   1              	 .cpu cortex-m4
   2              	 .eabi_attribute 27,1
   3              	 .eabi_attribute 20,1
   4              	 .eabi_attribute 21,1
   5              	 .eabi_attribute 23,3
   6              	 .eabi_attribute 24,1
   7              	 .eabi_attribute 25,1
   8              	 .eabi_attribute 26,1
   9              	 .eabi_attribute 30,6
  10              	 .eabi_attribute 34,1
  11              	 .eabi_attribute 18,4
  12              	 .file "main_alg.c"
  13              	 .text
  14              	.Ltext0:
  15              	 .cfi_sections .debug_frame
  16              	 .section .text.XMC_GPIO_SetOutputHigh,"ax",%progbits
  17              	 .align 1
  18              	 .arch armv7e-m
  19              	 .syntax unified
  20              	 .thumb
  21              	 .thumb_func
  22              	 .fpu fpv4-sp-d16
  24              	XMC_GPIO_SetOutputHigh:
  25              	.LFB135:
  26              	 .file 1 "C:/Workspaces/DAVE-4.4.2-64Bit/_PKDS_TSTS06_923M_X45_V1_8/Libraries/XMCLib/inc/xmc_gpio.h"
   1:C:/Workspaces/DAVE-4.4.2-64Bit/_PKDS_TSTS06_923M_X45_V1_8/Libraries/XMCLib/inc\xmc_gpio.h **** /**
   2:C:/Workspaces/DAVE-4.4.2-64Bit/_PKDS_TSTS06_923M_X45_V1_8/Libraries/XMCLib/inc\xmc_gpio.h ****  * @file xmc_gpio.h
   3:C:/Workspaces/DAVE-4.4.2-64Bit/_PKDS_TSTS06_923M_X45_V1_8/Libraries/XMCLib/inc\xmc_gpio.h ****  * @date 2015-06-20
   4:C:/Workspaces/DAVE-4.4.2-64Bit/_PKDS_TSTS06_923M_X45_V1_8/Libraries/XMCLib/inc\xmc_gpio.h ****  *
   5:C:/Workspaces/DAVE-4.4.2-64Bit/_PKDS_TSTS06_923M_X45_V1_8/Libraries/XMCLib/inc\xmc_gpio.h ****  * @cond
   6:C:/Workspaces/DAVE-4.4.2-64Bit/_PKDS_TSTS06_923M_X45_V1_8/Libraries/XMCLib/inc\xmc_gpio.h ****  *****************************************************************************
   7:C:/Workspaces/DAVE-4.4.2-64Bit/_PKDS_TSTS06_923M_X45_V1_8/Libraries/XMCLib/inc\xmc_gpio.h ****  * XMClib v2.2.0 - XMC Peripheral Driver Library
   8:C:/Workspaces/DAVE-4.4.2-64Bit/_PKDS_TSTS06_923M_X45_V1_8/Libraries/XMCLib/inc\xmc_gpio.h ****  *
   9:C:/Workspaces/DAVE-4.4.2-64Bit/_PKDS_TSTS06_923M_X45_V1_8/Libraries/XMCLib/inc\xmc_gpio.h ****  * Copyright (c) 2015-2020, Infineon Technologies AG
  10:C:/Workspaces/DAVE-4.4.2-64Bit/_PKDS_TSTS06_923M_X45_V1_8/Libraries/XMCLib/inc\xmc_gpio.h ****  * All rights reserved.
  11:C:/Workspaces/DAVE-4.4.2-64Bit/_PKDS_TSTS06_923M_X45_V1_8/Libraries/XMCLib/inc\xmc_gpio.h ****  *
  12:C:/Workspaces/DAVE-4.4.2-64Bit/_PKDS_TSTS06_923M_X45_V1_8/Libraries/XMCLib/inc\xmc_gpio.h ****  * Boost Software License - Version 1.0 - August 17th, 2003
  13:C:/Workspaces/DAVE-4.4.2-64Bit/_PKDS_TSTS06_923M_X45_V1_8/Libraries/XMCLib/inc\xmc_gpio.h ****  *
  14:C:/Workspaces/DAVE-4.4.2-64Bit/_PKDS_TSTS06_923M_X45_V1_8/Libraries/XMCLib/inc\xmc_gpio.h ****  * Permission is hereby granted, free of charge, to any person or organization
  15:C:/Workspaces/DAVE-4.4.2-64Bit/_PKDS_TSTS06_923M_X45_V1_8/Libraries/XMCLib/inc\xmc_gpio.h ****  * obtaining a copy of the software and accompanying documentation covered by
  16:C:/Workspaces/DAVE-4.4.2-64Bit/_PKDS_TSTS06_923M_X45_V1_8/Libraries/XMCLib/inc\xmc_gpio.h ****  * this license (the "Software") to use, reproduce, display, distribute,
  17:C:/Workspaces/DAVE-4.4.2-64Bit/_PKDS_TSTS06_923M_X45_V1_8/Libraries/XMCLib/inc\xmc_gpio.h ****  * execute, and transmit the Software, and to prepare derivative works of the
  18:C:/Workspaces/DAVE-4.4.2-64Bit/_PKDS_TSTS06_923M_X45_V1_8/Libraries/XMCLib/inc\xmc_gpio.h ****  * Software, and to permit third-parties to whom the Software is furnished to
  19:C:/Workspaces/DAVE-4.4.2-64Bit/_PKDS_TSTS06_923M_X45_V1_8/Libraries/XMCLib/inc\xmc_gpio.h ****  * do so, all subject to the following:
  20:C:/Workspaces/DAVE-4.4.2-64Bit/_PKDS_TSTS06_923M_X45_V1_8/Libraries/XMCLib/inc\xmc_gpio.h ****  *
  21:C:/Workspaces/DAVE-4.4.2-64Bit/_PKDS_TSTS06_923M_X45_V1_8/Libraries/XMCLib/inc\xmc_gpio.h ****  * The copyright notices in the Software and this entire statement, including
  22:C:/Workspaces/DAVE-4.4.2-64Bit/_PKDS_TSTS06_923M_X45_V1_8/Libraries/XMCLib/inc\xmc_gpio.h ****  * the above license grant, this restriction and the following disclaimer,
  23:C:/Workspaces/DAVE-4.4.2-64Bit/_PKDS_TSTS06_923M_X45_V1_8/Libraries/XMCLib/inc\xmc_gpio.h ****  * must be included in all copies of the Software, in whole or in part, and
  24:C:/Workspaces/DAVE-4.4.2-64Bit/_PKDS_TSTS06_923M_X45_V1_8/Libraries/XMCLib/inc\xmc_gpio.h ****  * all derivative works of the Software, unless such copies or derivative
  25:C:/Workspaces/DAVE-4.4.2-64Bit/_PKDS_TSTS06_923M_X45_V1_8/Libraries/XMCLib/inc\xmc_gpio.h ****  * works are solely in the form of machine-executable object code generated by
  26:C:/Workspaces/DAVE-4.4.2-64Bit/_PKDS_TSTS06_923M_X45_V1_8/Libraries/XMCLib/inc\xmc_gpio.h ****  * a source language processor.
  27:C:/Workspaces/DAVE-4.4.2-64Bit/_PKDS_TSTS06_923M_X45_V1_8/Libraries/XMCLib/inc\xmc_gpio.h ****  *
  28:C:/Workspaces/DAVE-4.4.2-64Bit/_PKDS_TSTS06_923M_X45_V1_8/Libraries/XMCLib/inc\xmc_gpio.h ****  * THE SOFTWARE IS PROVIDED "AS IS", WITHOUT WARRANTY OF ANY KIND, EXPRESS OR
  29:C:/Workspaces/DAVE-4.4.2-64Bit/_PKDS_TSTS06_923M_X45_V1_8/Libraries/XMCLib/inc\xmc_gpio.h ****  * IMPLIED, INCLUDING BUT NOT LIMITED TO THE WARRANTIES OF MERCHANTABILITY,
  30:C:/Workspaces/DAVE-4.4.2-64Bit/_PKDS_TSTS06_923M_X45_V1_8/Libraries/XMCLib/inc\xmc_gpio.h ****  * FITNESS FOR A PARTICULAR PURPOSE, TITLE AND NON-INFRINGEMENT. IN NO EVENT
  31:C:/Workspaces/DAVE-4.4.2-64Bit/_PKDS_TSTS06_923M_X45_V1_8/Libraries/XMCLib/inc\xmc_gpio.h ****  * SHALL THE COPYRIGHT HOLDERS OR ANYONE DISTRIBUTING THE SOFTWARE BE LIABLE
  32:C:/Workspaces/DAVE-4.4.2-64Bit/_PKDS_TSTS06_923M_X45_V1_8/Libraries/XMCLib/inc\xmc_gpio.h ****  * FOR ANY DAMAGES OR OTHER LIABILITY, WHETHER IN CONTRACT, TORT OR OTHERWISE,
  33:C:/Workspaces/DAVE-4.4.2-64Bit/_PKDS_TSTS06_923M_X45_V1_8/Libraries/XMCLib/inc\xmc_gpio.h ****  * ARISING FROM, OUT OF OR IN CONNECTION WITH THE SOFTWARE OR THE USE OR OTHER
  34:C:/Workspaces/DAVE-4.4.2-64Bit/_PKDS_TSTS06_923M_X45_V1_8/Libraries/XMCLib/inc\xmc_gpio.h ****  * DEALINGS IN THE SOFTWARE.
  35:C:/Workspaces/DAVE-4.4.2-64Bit/_PKDS_TSTS06_923M_X45_V1_8/Libraries/XMCLib/inc\xmc_gpio.h ****  *
  36:C:/Workspaces/DAVE-4.4.2-64Bit/_PKDS_TSTS06_923M_X45_V1_8/Libraries/XMCLib/inc\xmc_gpio.h ****  * To improve the quality of the software, users are encouraged to share
  37:C:/Workspaces/DAVE-4.4.2-64Bit/_PKDS_TSTS06_923M_X45_V1_8/Libraries/XMCLib/inc\xmc_gpio.h ****  * modifications, enhancements or bug fixes with Infineon Technologies AG
  38:C:/Workspaces/DAVE-4.4.2-64Bit/_PKDS_TSTS06_923M_X45_V1_8/Libraries/XMCLib/inc\xmc_gpio.h ****  * at XMCSupport@infineon.com.
  39:C:/Workspaces/DAVE-4.4.2-64Bit/_PKDS_TSTS06_923M_X45_V1_8/Libraries/XMCLib/inc\xmc_gpio.h ****  *****************************************************************************
  40:C:/Workspaces/DAVE-4.4.2-64Bit/_PKDS_TSTS06_923M_X45_V1_8/Libraries/XMCLib/inc\xmc_gpio.h ****  *
  41:C:/Workspaces/DAVE-4.4.2-64Bit/_PKDS_TSTS06_923M_X45_V1_8/Libraries/XMCLib/inc\xmc_gpio.h ****  * Change History
  42:C:/Workspaces/DAVE-4.4.2-64Bit/_PKDS_TSTS06_923M_X45_V1_8/Libraries/XMCLib/inc\xmc_gpio.h ****  * --------------
  43:C:/Workspaces/DAVE-4.4.2-64Bit/_PKDS_TSTS06_923M_X45_V1_8/Libraries/XMCLib/inc\xmc_gpio.h ****  *
  44:C:/Workspaces/DAVE-4.4.2-64Bit/_PKDS_TSTS06_923M_X45_V1_8/Libraries/XMCLib/inc\xmc_gpio.h ****  * 2015-02-20:
  45:C:/Workspaces/DAVE-4.4.2-64Bit/_PKDS_TSTS06_923M_X45_V1_8/Libraries/XMCLib/inc\xmc_gpio.h ****  *     - Initial draft<br>
  46:C:/Workspaces/DAVE-4.4.2-64Bit/_PKDS_TSTS06_923M_X45_V1_8/Libraries/XMCLib/inc\xmc_gpio.h ****  *     - Documentation improved <br>
  47:C:/Workspaces/DAVE-4.4.2-64Bit/_PKDS_TSTS06_923M_X45_V1_8/Libraries/XMCLib/inc\xmc_gpio.h ****  *
  48:C:/Workspaces/DAVE-4.4.2-64Bit/_PKDS_TSTS06_923M_X45_V1_8/Libraries/XMCLib/inc\xmc_gpio.h ****  * 2015-06-20:
  49:C:/Workspaces/DAVE-4.4.2-64Bit/_PKDS_TSTS06_923M_X45_V1_8/Libraries/XMCLib/inc\xmc_gpio.h ****  *     - Removed version macros and declaration of GetDriverVersion API
  50:C:/Workspaces/DAVE-4.4.2-64Bit/_PKDS_TSTS06_923M_X45_V1_8/Libraries/XMCLib/inc\xmc_gpio.h ****  *
  51:C:/Workspaces/DAVE-4.4.2-64Bit/_PKDS_TSTS06_923M_X45_V1_8/Libraries/XMCLib/inc\xmc_gpio.h ****  * @endcond
  52:C:/Workspaces/DAVE-4.4.2-64Bit/_PKDS_TSTS06_923M_X45_V1_8/Libraries/XMCLib/inc\xmc_gpio.h ****  *
  53:C:/Workspaces/DAVE-4.4.2-64Bit/_PKDS_TSTS06_923M_X45_V1_8/Libraries/XMCLib/inc\xmc_gpio.h ****  */
  54:C:/Workspaces/DAVE-4.4.2-64Bit/_PKDS_TSTS06_923M_X45_V1_8/Libraries/XMCLib/inc\xmc_gpio.h **** 
  55:C:/Workspaces/DAVE-4.4.2-64Bit/_PKDS_TSTS06_923M_X45_V1_8/Libraries/XMCLib/inc\xmc_gpio.h **** #ifndef XMC_GPIO_H
  56:C:/Workspaces/DAVE-4.4.2-64Bit/_PKDS_TSTS06_923M_X45_V1_8/Libraries/XMCLib/inc\xmc_gpio.h **** #define XMC_GPIO_H
  57:C:/Workspaces/DAVE-4.4.2-64Bit/_PKDS_TSTS06_923M_X45_V1_8/Libraries/XMCLib/inc\xmc_gpio.h **** 
  58:C:/Workspaces/DAVE-4.4.2-64Bit/_PKDS_TSTS06_923M_X45_V1_8/Libraries/XMCLib/inc\xmc_gpio.h **** /**************************************************************************************************
  59:C:/Workspaces/DAVE-4.4.2-64Bit/_PKDS_TSTS06_923M_X45_V1_8/Libraries/XMCLib/inc\xmc_gpio.h ****  * HEADER FILES
  60:C:/Workspaces/DAVE-4.4.2-64Bit/_PKDS_TSTS06_923M_X45_V1_8/Libraries/XMCLib/inc\xmc_gpio.h ****  **************************************************************************************************
  61:C:/Workspaces/DAVE-4.4.2-64Bit/_PKDS_TSTS06_923M_X45_V1_8/Libraries/XMCLib/inc\xmc_gpio.h **** 
  62:C:/Workspaces/DAVE-4.4.2-64Bit/_PKDS_TSTS06_923M_X45_V1_8/Libraries/XMCLib/inc\xmc_gpio.h **** #include "xmc_common.h"
  63:C:/Workspaces/DAVE-4.4.2-64Bit/_PKDS_TSTS06_923M_X45_V1_8/Libraries/XMCLib/inc\xmc_gpio.h **** 
  64:C:/Workspaces/DAVE-4.4.2-64Bit/_PKDS_TSTS06_923M_X45_V1_8/Libraries/XMCLib/inc\xmc_gpio.h **** /**
  65:C:/Workspaces/DAVE-4.4.2-64Bit/_PKDS_TSTS06_923M_X45_V1_8/Libraries/XMCLib/inc\xmc_gpio.h ****  * @addtogroup XMClib XMC Peripheral Library
  66:C:/Workspaces/DAVE-4.4.2-64Bit/_PKDS_TSTS06_923M_X45_V1_8/Libraries/XMCLib/inc\xmc_gpio.h ****  * @{
  67:C:/Workspaces/DAVE-4.4.2-64Bit/_PKDS_TSTS06_923M_X45_V1_8/Libraries/XMCLib/inc\xmc_gpio.h ****  */
  68:C:/Workspaces/DAVE-4.4.2-64Bit/_PKDS_TSTS06_923M_X45_V1_8/Libraries/XMCLib/inc\xmc_gpio.h **** 
  69:C:/Workspaces/DAVE-4.4.2-64Bit/_PKDS_TSTS06_923M_X45_V1_8/Libraries/XMCLib/inc\xmc_gpio.h **** /**
  70:C:/Workspaces/DAVE-4.4.2-64Bit/_PKDS_TSTS06_923M_X45_V1_8/Libraries/XMCLib/inc\xmc_gpio.h ****  * @addtogroup GPIO
  71:C:/Workspaces/DAVE-4.4.2-64Bit/_PKDS_TSTS06_923M_X45_V1_8/Libraries/XMCLib/inc\xmc_gpio.h ****  * @brief General Purpose Input Output (GPIO) driver for the XMC microcontroller family.
  72:C:/Workspaces/DAVE-4.4.2-64Bit/_PKDS_TSTS06_923M_X45_V1_8/Libraries/XMCLib/inc\xmc_gpio.h ****  *
  73:C:/Workspaces/DAVE-4.4.2-64Bit/_PKDS_TSTS06_923M_X45_V1_8/Libraries/XMCLib/inc\xmc_gpio.h ****  * GPIO driver provide a generic and very flexible software interface for all standard digital I/O 
  74:C:/Workspaces/DAVE-4.4.2-64Bit/_PKDS_TSTS06_923M_X45_V1_8/Libraries/XMCLib/inc\xmc_gpio.h ****  * Each port slice has individual interfaces for the operation as General Purpose I/O and it furthe
  75:C:/Workspaces/DAVE-4.4.2-64Bit/_PKDS_TSTS06_923M_X45_V1_8/Libraries/XMCLib/inc\xmc_gpio.h ****  * connectivity to the on-chip periphery and the control for the pad characteristics.
  76:C:/Workspaces/DAVE-4.4.2-64Bit/_PKDS_TSTS06_923M_X45_V1_8/Libraries/XMCLib/inc\xmc_gpio.h ****  *
  77:C:/Workspaces/DAVE-4.4.2-64Bit/_PKDS_TSTS06_923M_X45_V1_8/Libraries/XMCLib/inc\xmc_gpio.h ****  * The driver is divided into Input and Output mode.
  78:C:/Workspaces/DAVE-4.4.2-64Bit/_PKDS_TSTS06_923M_X45_V1_8/Libraries/XMCLib/inc\xmc_gpio.h ****  *
  79:C:/Workspaces/DAVE-4.4.2-64Bit/_PKDS_TSTS06_923M_X45_V1_8/Libraries/XMCLib/inc\xmc_gpio.h ****  * Input mode features:
  80:C:/Workspaces/DAVE-4.4.2-64Bit/_PKDS_TSTS06_923M_X45_V1_8/Libraries/XMCLib/inc\xmc_gpio.h ****  * -# Configuration structure XMC_GPIO_CONFIG_t and initialization function XMC_GPIO_Init()
  81:C:/Workspaces/DAVE-4.4.2-64Bit/_PKDS_TSTS06_923M_X45_V1_8/Libraries/XMCLib/inc\xmc_gpio.h ****  * -# Allows the selection of weak pull-up or pull-down device. Configuration structure XMC_GPIO_MO
  82:C:/Workspaces/DAVE-4.4.2-64Bit/_PKDS_TSTS06_923M_X45_V1_8/Libraries/XMCLib/inc\xmc_gpio.h ****  * \if XMC1
  83:C:/Workspaces/DAVE-4.4.2-64Bit/_PKDS_TSTS06_923M_X45_V1_8/Libraries/XMCLib/inc\xmc_gpio.h ****  * -# Allows the selection of input hysteresis. XMC_GPIO_SetInputHysteresis()
  84:C:/Workspaces/DAVE-4.4.2-64Bit/_PKDS_TSTS06_923M_X45_V1_8/Libraries/XMCLib/inc\xmc_gpio.h ****  * \endif
  85:C:/Workspaces/DAVE-4.4.2-64Bit/_PKDS_TSTS06_923M_X45_V1_8/Libraries/XMCLib/inc\xmc_gpio.h ****  *
  86:C:/Workspaces/DAVE-4.4.2-64Bit/_PKDS_TSTS06_923M_X45_V1_8/Libraries/XMCLib/inc\xmc_gpio.h ****  *
  87:C:/Workspaces/DAVE-4.4.2-64Bit/_PKDS_TSTS06_923M_X45_V1_8/Libraries/XMCLib/inc\xmc_gpio.h ****  * Output mode features:
  88:C:/Workspaces/DAVE-4.4.2-64Bit/_PKDS_TSTS06_923M_X45_V1_8/Libraries/XMCLib/inc\xmc_gpio.h ****  * -# Allows the selection of push pull/open drain and Alternate output. Configuration structure XM
  89:C:/Workspaces/DAVE-4.4.2-64Bit/_PKDS_TSTS06_923M_X45_V1_8/Libraries/XMCLib/inc\xmc_gpio.h ****  * \if XMC4
  90:C:/Workspaces/DAVE-4.4.2-64Bit/_PKDS_TSTS06_923M_X45_V1_8/Libraries/XMCLib/inc\xmc_gpio.h ****  * -# Allows the selection of pad driver strength. Configuration structure XMC_GPIO_OUTPUT_STRENGTH
  91:C:/Workspaces/DAVE-4.4.2-64Bit/_PKDS_TSTS06_923M_X45_V1_8/Libraries/XMCLib/inc\xmc_gpio.h ****  * \endif
  92:C:/Workspaces/DAVE-4.4.2-64Bit/_PKDS_TSTS06_923M_X45_V1_8/Libraries/XMCLib/inc\xmc_gpio.h ****  *
  93:C:/Workspaces/DAVE-4.4.2-64Bit/_PKDS_TSTS06_923M_X45_V1_8/Libraries/XMCLib/inc\xmc_gpio.h ****  * -# Allows the selection of initial output level. Configuration structure XMC_GPIO_OUTPUT_LEVEL_t
  94:C:/Workspaces/DAVE-4.4.2-64Bit/_PKDS_TSTS06_923M_X45_V1_8/Libraries/XMCLib/inc\xmc_gpio.h ****  *
  95:C:/Workspaces/DAVE-4.4.2-64Bit/_PKDS_TSTS06_923M_X45_V1_8/Libraries/XMCLib/inc\xmc_gpio.h ****  *@{
  96:C:/Workspaces/DAVE-4.4.2-64Bit/_PKDS_TSTS06_923M_X45_V1_8/Libraries/XMCLib/inc\xmc_gpio.h ****  */
  97:C:/Workspaces/DAVE-4.4.2-64Bit/_PKDS_TSTS06_923M_X45_V1_8/Libraries/XMCLib/inc\xmc_gpio.h **** 
  98:C:/Workspaces/DAVE-4.4.2-64Bit/_PKDS_TSTS06_923M_X45_V1_8/Libraries/XMCLib/inc\xmc_gpio.h **** /**************************************************************************************************
  99:C:/Workspaces/DAVE-4.4.2-64Bit/_PKDS_TSTS06_923M_X45_V1_8/Libraries/XMCLib/inc\xmc_gpio.h ****  * MACROS
 100:C:/Workspaces/DAVE-4.4.2-64Bit/_PKDS_TSTS06_923M_X45_V1_8/Libraries/XMCLib/inc\xmc_gpio.h ****  **************************************************************************************************
 101:C:/Workspaces/DAVE-4.4.2-64Bit/_PKDS_TSTS06_923M_X45_V1_8/Libraries/XMCLib/inc\xmc_gpio.h **** 
 102:C:/Workspaces/DAVE-4.4.2-64Bit/_PKDS_TSTS06_923M_X45_V1_8/Libraries/XMCLib/inc\xmc_gpio.h **** #define PORT_IOCR_PC_Pos PORT0_IOCR0_PC0_Pos
 103:C:/Workspaces/DAVE-4.4.2-64Bit/_PKDS_TSTS06_923M_X45_V1_8/Libraries/XMCLib/inc\xmc_gpio.h **** #define PORT_IOCR_PC_Msk PORT0_IOCR0_PC0_Msk
 104:C:/Workspaces/DAVE-4.4.2-64Bit/_PKDS_TSTS06_923M_X45_V1_8/Libraries/XMCLib/inc\xmc_gpio.h **** 
 105:C:/Workspaces/DAVE-4.4.2-64Bit/_PKDS_TSTS06_923M_X45_V1_8/Libraries/XMCLib/inc\xmc_gpio.h **** #define PORT_IOCR_PC_Size 				(8U)
 106:C:/Workspaces/DAVE-4.4.2-64Bit/_PKDS_TSTS06_923M_X45_V1_8/Libraries/XMCLib/inc\xmc_gpio.h **** 
 107:C:/Workspaces/DAVE-4.4.2-64Bit/_PKDS_TSTS06_923M_X45_V1_8/Libraries/XMCLib/inc\xmc_gpio.h **** 
 108:C:/Workspaces/DAVE-4.4.2-64Bit/_PKDS_TSTS06_923M_X45_V1_8/Libraries/XMCLib/inc\xmc_gpio.h **** #define XMC_GPIO_CHECK_OUTPUT_LEVEL(level) ((level == XMC_GPIO_OUTPUT_LEVEL_LOW) || \
 109:C:/Workspaces/DAVE-4.4.2-64Bit/_PKDS_TSTS06_923M_X45_V1_8/Libraries/XMCLib/inc\xmc_gpio.h ****                                             (level == XMC_GPIO_OUTPUT_LEVEL_HIGH))
 110:C:/Workspaces/DAVE-4.4.2-64Bit/_PKDS_TSTS06_923M_X45_V1_8/Libraries/XMCLib/inc\xmc_gpio.h **** 
 111:C:/Workspaces/DAVE-4.4.2-64Bit/_PKDS_TSTS06_923M_X45_V1_8/Libraries/XMCLib/inc\xmc_gpio.h **** #define XMC_GPIO_CHECK_HWCTRL(hwctrl) ((hwctrl == XMC_GPIO_HWCTRL_DISABLED) || \
 112:C:/Workspaces/DAVE-4.4.2-64Bit/_PKDS_TSTS06_923M_X45_V1_8/Libraries/XMCLib/inc\xmc_gpio.h ****                                        (hwctrl == XMC_GPIO_HWCTRL_PERIPHERAL1) || \
 113:C:/Workspaces/DAVE-4.4.2-64Bit/_PKDS_TSTS06_923M_X45_V1_8/Libraries/XMCLib/inc\xmc_gpio.h ****                                        (hwctrl == XMC_GPIO_HWCTRL_PERIPHERAL2))
 114:C:/Workspaces/DAVE-4.4.2-64Bit/_PKDS_TSTS06_923M_X45_V1_8/Libraries/XMCLib/inc\xmc_gpio.h **** 
 115:C:/Workspaces/DAVE-4.4.2-64Bit/_PKDS_TSTS06_923M_X45_V1_8/Libraries/XMCLib/inc\xmc_gpio.h **** /**************************************************************************************************
 116:C:/Workspaces/DAVE-4.4.2-64Bit/_PKDS_TSTS06_923M_X45_V1_8/Libraries/XMCLib/inc\xmc_gpio.h ****  * ENUMS
 117:C:/Workspaces/DAVE-4.4.2-64Bit/_PKDS_TSTS06_923M_X45_V1_8/Libraries/XMCLib/inc\xmc_gpio.h ****  **************************************************************************************************
 118:C:/Workspaces/DAVE-4.4.2-64Bit/_PKDS_TSTS06_923M_X45_V1_8/Libraries/XMCLib/inc\xmc_gpio.h **** 
 119:C:/Workspaces/DAVE-4.4.2-64Bit/_PKDS_TSTS06_923M_X45_V1_8/Libraries/XMCLib/inc\xmc_gpio.h **** 
 120:C:/Workspaces/DAVE-4.4.2-64Bit/_PKDS_TSTS06_923M_X45_V1_8/Libraries/XMCLib/inc\xmc_gpio.h **** /**
 121:C:/Workspaces/DAVE-4.4.2-64Bit/_PKDS_TSTS06_923M_X45_V1_8/Libraries/XMCLib/inc\xmc_gpio.h ****  * Defines output level of a pin. Use type \a XMC_GPIO_OUTPUT_LEVEL_t for this enum.
 122:C:/Workspaces/DAVE-4.4.2-64Bit/_PKDS_TSTS06_923M_X45_V1_8/Libraries/XMCLib/inc\xmc_gpio.h ****  */
 123:C:/Workspaces/DAVE-4.4.2-64Bit/_PKDS_TSTS06_923M_X45_V1_8/Libraries/XMCLib/inc\xmc_gpio.h **** typedef enum XMC_GPIO_OUTPUT_LEVEL
 124:C:/Workspaces/DAVE-4.4.2-64Bit/_PKDS_TSTS06_923M_X45_V1_8/Libraries/XMCLib/inc\xmc_gpio.h **** {
 125:C:/Workspaces/DAVE-4.4.2-64Bit/_PKDS_TSTS06_923M_X45_V1_8/Libraries/XMCLib/inc\xmc_gpio.h ****   XMC_GPIO_OUTPUT_LEVEL_LOW  = 0x10000U, /**<  Reset bit */
 126:C:/Workspaces/DAVE-4.4.2-64Bit/_PKDS_TSTS06_923M_X45_V1_8/Libraries/XMCLib/inc\xmc_gpio.h ****   XMC_GPIO_OUTPUT_LEVEL_HIGH = 0x1U, 	/**< Set bit  */
 127:C:/Workspaces/DAVE-4.4.2-64Bit/_PKDS_TSTS06_923M_X45_V1_8/Libraries/XMCLib/inc\xmc_gpio.h **** } XMC_GPIO_OUTPUT_LEVEL_t;
 128:C:/Workspaces/DAVE-4.4.2-64Bit/_PKDS_TSTS06_923M_X45_V1_8/Libraries/XMCLib/inc\xmc_gpio.h **** 
 129:C:/Workspaces/DAVE-4.4.2-64Bit/_PKDS_TSTS06_923M_X45_V1_8/Libraries/XMCLib/inc\xmc_gpio.h **** /**
 130:C:/Workspaces/DAVE-4.4.2-64Bit/_PKDS_TSTS06_923M_X45_V1_8/Libraries/XMCLib/inc\xmc_gpio.h ****  * Defines direct hardware control characteristics of the pin . Use type \a XMC_GPIO_HWCTRL_t for t
 131:C:/Workspaces/DAVE-4.4.2-64Bit/_PKDS_TSTS06_923M_X45_V1_8/Libraries/XMCLib/inc\xmc_gpio.h ****  */
 132:C:/Workspaces/DAVE-4.4.2-64Bit/_PKDS_TSTS06_923M_X45_V1_8/Libraries/XMCLib/inc\xmc_gpio.h **** typedef enum XMC_GPIO_HWCTRL
 133:C:/Workspaces/DAVE-4.4.2-64Bit/_PKDS_TSTS06_923M_X45_V1_8/Libraries/XMCLib/inc\xmc_gpio.h **** {
 134:C:/Workspaces/DAVE-4.4.2-64Bit/_PKDS_TSTS06_923M_X45_V1_8/Libraries/XMCLib/inc\xmc_gpio.h ****   XMC_GPIO_HWCTRL_DISABLED     = 0x0U, /**<  Software control only */
 135:C:/Workspaces/DAVE-4.4.2-64Bit/_PKDS_TSTS06_923M_X45_V1_8/Libraries/XMCLib/inc\xmc_gpio.h ****   XMC_GPIO_HWCTRL_PERIPHERAL1  = 0x1U, /**<  HWI0/HWO0 control path can override the software confi
 136:C:/Workspaces/DAVE-4.4.2-64Bit/_PKDS_TSTS06_923M_X45_V1_8/Libraries/XMCLib/inc\xmc_gpio.h ****   XMC_GPIO_HWCTRL_PERIPHERAL2  = 0x2U  /**<  HWI1/HWO1 control path can override the software confi
 137:C:/Workspaces/DAVE-4.4.2-64Bit/_PKDS_TSTS06_923M_X45_V1_8/Libraries/XMCLib/inc\xmc_gpio.h **** } XMC_GPIO_HWCTRL_t;
 138:C:/Workspaces/DAVE-4.4.2-64Bit/_PKDS_TSTS06_923M_X45_V1_8/Libraries/XMCLib/inc\xmc_gpio.h **** 
 139:C:/Workspaces/DAVE-4.4.2-64Bit/_PKDS_TSTS06_923M_X45_V1_8/Libraries/XMCLib/inc\xmc_gpio.h **** /**************************************************************************************************
 140:C:/Workspaces/DAVE-4.4.2-64Bit/_PKDS_TSTS06_923M_X45_V1_8/Libraries/XMCLib/inc\xmc_gpio.h ****  * DEVICE FAMILY EXTENSIONS
 141:C:/Workspaces/DAVE-4.4.2-64Bit/_PKDS_TSTS06_923M_X45_V1_8/Libraries/XMCLib/inc\xmc_gpio.h ****  **************************************************************************************************
 142:C:/Workspaces/DAVE-4.4.2-64Bit/_PKDS_TSTS06_923M_X45_V1_8/Libraries/XMCLib/inc\xmc_gpio.h **** 
 143:C:/Workspaces/DAVE-4.4.2-64Bit/_PKDS_TSTS06_923M_X45_V1_8/Libraries/XMCLib/inc\xmc_gpio.h **** #if UC_FAMILY == XMC1
 144:C:/Workspaces/DAVE-4.4.2-64Bit/_PKDS_TSTS06_923M_X45_V1_8/Libraries/XMCLib/inc\xmc_gpio.h **** #include "xmc1_gpio.h"
 145:C:/Workspaces/DAVE-4.4.2-64Bit/_PKDS_TSTS06_923M_X45_V1_8/Libraries/XMCLib/inc\xmc_gpio.h **** #elif UC_FAMILY == XMC4
 146:C:/Workspaces/DAVE-4.4.2-64Bit/_PKDS_TSTS06_923M_X45_V1_8/Libraries/XMCLib/inc\xmc_gpio.h **** #include "xmc4_gpio.h"
 147:C:/Workspaces/DAVE-4.4.2-64Bit/_PKDS_TSTS06_923M_X45_V1_8/Libraries/XMCLib/inc\xmc_gpio.h **** #else
 148:C:/Workspaces/DAVE-4.4.2-64Bit/_PKDS_TSTS06_923M_X45_V1_8/Libraries/XMCLib/inc\xmc_gpio.h **** #error "xmc_gpio.h: family device not supported"
 149:C:/Workspaces/DAVE-4.4.2-64Bit/_PKDS_TSTS06_923M_X45_V1_8/Libraries/XMCLib/inc\xmc_gpio.h **** #endif
 150:C:/Workspaces/DAVE-4.4.2-64Bit/_PKDS_TSTS06_923M_X45_V1_8/Libraries/XMCLib/inc\xmc_gpio.h **** 
 151:C:/Workspaces/DAVE-4.4.2-64Bit/_PKDS_TSTS06_923M_X45_V1_8/Libraries/XMCLib/inc\xmc_gpio.h **** /**************************************************************************************************
 152:C:/Workspaces/DAVE-4.4.2-64Bit/_PKDS_TSTS06_923M_X45_V1_8/Libraries/XMCLib/inc\xmc_gpio.h ****  * API PROTOTYPES
 153:C:/Workspaces/DAVE-4.4.2-64Bit/_PKDS_TSTS06_923M_X45_V1_8/Libraries/XMCLib/inc\xmc_gpio.h ****  **************************************************************************************************
 154:C:/Workspaces/DAVE-4.4.2-64Bit/_PKDS_TSTS06_923M_X45_V1_8/Libraries/XMCLib/inc\xmc_gpio.h **** 
 155:C:/Workspaces/DAVE-4.4.2-64Bit/_PKDS_TSTS06_923M_X45_V1_8/Libraries/XMCLib/inc\xmc_gpio.h **** #ifdef __cplusplus
 156:C:/Workspaces/DAVE-4.4.2-64Bit/_PKDS_TSTS06_923M_X45_V1_8/Libraries/XMCLib/inc\xmc_gpio.h **** extern "C" {
 157:C:/Workspaces/DAVE-4.4.2-64Bit/_PKDS_TSTS06_923M_X45_V1_8/Libraries/XMCLib/inc\xmc_gpio.h **** #endif
 158:C:/Workspaces/DAVE-4.4.2-64Bit/_PKDS_TSTS06_923M_X45_V1_8/Libraries/XMCLib/inc\xmc_gpio.h **** 
 159:C:/Workspaces/DAVE-4.4.2-64Bit/_PKDS_TSTS06_923M_X45_V1_8/Libraries/XMCLib/inc\xmc_gpio.h **** 
 160:C:/Workspaces/DAVE-4.4.2-64Bit/_PKDS_TSTS06_923M_X45_V1_8/Libraries/XMCLib/inc\xmc_gpio.h **** /**
 161:C:/Workspaces/DAVE-4.4.2-64Bit/_PKDS_TSTS06_923M_X45_V1_8/Libraries/XMCLib/inc\xmc_gpio.h ****  * @param  port	  Constant pointer pointing to GPIO port, to access port registers like Pn_OUT,Pn_O
 162:C:/Workspaces/DAVE-4.4.2-64Bit/_PKDS_TSTS06_923M_X45_V1_8/Libraries/XMCLib/inc\xmc_gpio.h ****  * @param  pin	  Port pin number.
 163:C:/Workspaces/DAVE-4.4.2-64Bit/_PKDS_TSTS06_923M_X45_V1_8/Libraries/XMCLib/inc\xmc_gpio.h ****  * @param  config GPIO configuration data structure. Refer data structure @ref XMC_GPIO_CONFIG_t fo
 164:C:/Workspaces/DAVE-4.4.2-64Bit/_PKDS_TSTS06_923M_X45_V1_8/Libraries/XMCLib/inc\xmc_gpio.h ****  *
 165:C:/Workspaces/DAVE-4.4.2-64Bit/_PKDS_TSTS06_923M_X45_V1_8/Libraries/XMCLib/inc\xmc_gpio.h ****  * @return None
 166:C:/Workspaces/DAVE-4.4.2-64Bit/_PKDS_TSTS06_923M_X45_V1_8/Libraries/XMCLib/inc\xmc_gpio.h ****  *
 167:C:/Workspaces/DAVE-4.4.2-64Bit/_PKDS_TSTS06_923M_X45_V1_8/Libraries/XMCLib/inc\xmc_gpio.h ****  * \par<b>Description:</b><br>
 168:C:/Workspaces/DAVE-4.4.2-64Bit/_PKDS_TSTS06_923M_X45_V1_8/Libraries/XMCLib/inc\xmc_gpio.h ****  * \if XMC1
 169:C:/Workspaces/DAVE-4.4.2-64Bit/_PKDS_TSTS06_923M_X45_V1_8/Libraries/XMCLib/inc\xmc_gpio.h ****  * Initializes input / output mode settings like, pull up / pull down devices,hysteresis, push pull
 170:C:/Workspaces/DAVE-4.4.2-64Bit/_PKDS_TSTS06_923M_X45_V1_8/Libraries/XMCLib/inc\xmc_gpio.h ****  * Also configures alternate function outputs and clears hardware port control for a selected \a po
 171:C:/Workspaces/DAVE-4.4.2-64Bit/_PKDS_TSTS06_923M_X45_V1_8/Libraries/XMCLib/inc\xmc_gpio.h ****  * \a config provides selected I/O settings. It configures hardware registers Pn_IOCR,Pn_OUT, Pn_OM
 172:C:/Workspaces/DAVE-4.4.2-64Bit/_PKDS_TSTS06_923M_X45_V1_8/Libraries/XMCLib/inc\xmc_gpio.h ****  * \endif
 173:C:/Workspaces/DAVE-4.4.2-64Bit/_PKDS_TSTS06_923M_X45_V1_8/Libraries/XMCLib/inc\xmc_gpio.h ****  * \if XMC4
 174:C:/Workspaces/DAVE-4.4.2-64Bit/_PKDS_TSTS06_923M_X45_V1_8/Libraries/XMCLib/inc\xmc_gpio.h ****  * Initializes input / output mode settings like, pull up / pull down devices,push pull /open drain
 175:C:/Workspaces/DAVE-4.4.2-64Bit/_PKDS_TSTS06_923M_X45_V1_8/Libraries/XMCLib/inc\xmc_gpio.h ****  * Also configures alternate function outputs and clears hardware port control for selected \a port
 176:C:/Workspaces/DAVE-4.4.2-64Bit/_PKDS_TSTS06_923M_X45_V1_8/Libraries/XMCLib/inc\xmc_gpio.h ****  * It configures hardware registers Pn_IOCR,Pn_OUT,Pn_OMR,Pn_PDISC and Pn_PDR.\n
 177:C:/Workspaces/DAVE-4.4.2-64Bit/_PKDS_TSTS06_923M_X45_V1_8/Libraries/XMCLib/inc\xmc_gpio.h ****  * \endif
 178:C:/Workspaces/DAVE-4.4.2-64Bit/_PKDS_TSTS06_923M_X45_V1_8/Libraries/XMCLib/inc\xmc_gpio.h ****  *
 179:C:/Workspaces/DAVE-4.4.2-64Bit/_PKDS_TSTS06_923M_X45_V1_8/Libraries/XMCLib/inc\xmc_gpio.h ****  * \par<b>Related APIs:</b><BR>
 180:C:/Workspaces/DAVE-4.4.2-64Bit/_PKDS_TSTS06_923M_X45_V1_8/Libraries/XMCLib/inc\xmc_gpio.h ****  *  None
 181:C:/Workspaces/DAVE-4.4.2-64Bit/_PKDS_TSTS06_923M_X45_V1_8/Libraries/XMCLib/inc\xmc_gpio.h ****  *
 182:C:/Workspaces/DAVE-4.4.2-64Bit/_PKDS_TSTS06_923M_X45_V1_8/Libraries/XMCLib/inc\xmc_gpio.h ****  * \par<b>Note:</b><br>
 183:C:/Workspaces/DAVE-4.4.2-64Bit/_PKDS_TSTS06_923M_X45_V1_8/Libraries/XMCLib/inc\xmc_gpio.h ****  * This API is called in definition of DAVE_init by code generation and therefore should not be exp
 184:C:/Workspaces/DAVE-4.4.2-64Bit/_PKDS_TSTS06_923M_X45_V1_8/Libraries/XMCLib/inc\xmc_gpio.h ****  * for the normal operation. Use other APIs only after DAVE_init is called successfully (returns DA
 185:C:/Workspaces/DAVE-4.4.2-64Bit/_PKDS_TSTS06_923M_X45_V1_8/Libraries/XMCLib/inc\xmc_gpio.h ****  *
 186:C:/Workspaces/DAVE-4.4.2-64Bit/_PKDS_TSTS06_923M_X45_V1_8/Libraries/XMCLib/inc\xmc_gpio.h ****  *
 187:C:/Workspaces/DAVE-4.4.2-64Bit/_PKDS_TSTS06_923M_X45_V1_8/Libraries/XMCLib/inc\xmc_gpio.h ****  */
 188:C:/Workspaces/DAVE-4.4.2-64Bit/_PKDS_TSTS06_923M_X45_V1_8/Libraries/XMCLib/inc\xmc_gpio.h **** 
 189:C:/Workspaces/DAVE-4.4.2-64Bit/_PKDS_TSTS06_923M_X45_V1_8/Libraries/XMCLib/inc\xmc_gpio.h **** 
 190:C:/Workspaces/DAVE-4.4.2-64Bit/_PKDS_TSTS06_923M_X45_V1_8/Libraries/XMCLib/inc\xmc_gpio.h **** void XMC_GPIO_Init(XMC_GPIO_PORT_t *const port, const uint8_t pin, const XMC_GPIO_CONFIG_t *const c
 191:C:/Workspaces/DAVE-4.4.2-64Bit/_PKDS_TSTS06_923M_X45_V1_8/Libraries/XMCLib/inc\xmc_gpio.h **** 
 192:C:/Workspaces/DAVE-4.4.2-64Bit/_PKDS_TSTS06_923M_X45_V1_8/Libraries/XMCLib/inc\xmc_gpio.h **** /**
 193:C:/Workspaces/DAVE-4.4.2-64Bit/_PKDS_TSTS06_923M_X45_V1_8/Libraries/XMCLib/inc\xmc_gpio.h ****  *
 194:C:/Workspaces/DAVE-4.4.2-64Bit/_PKDS_TSTS06_923M_X45_V1_8/Libraries/XMCLib/inc\xmc_gpio.h ****  * @param  port	Constant pointer pointing to GPIO port, to access hardware register Pn_IOCR.
 195:C:/Workspaces/DAVE-4.4.2-64Bit/_PKDS_TSTS06_923M_X45_V1_8/Libraries/XMCLib/inc\xmc_gpio.h ****  * @param  pin	Port pin number.
 196:C:/Workspaces/DAVE-4.4.2-64Bit/_PKDS_TSTS06_923M_X45_V1_8/Libraries/XMCLib/inc\xmc_gpio.h ****  * @param  mode input / output functionality selection. Refer @ref XMC_GPIO_MODE_t for valid values
 197:C:/Workspaces/DAVE-4.4.2-64Bit/_PKDS_TSTS06_923M_X45_V1_8/Libraries/XMCLib/inc\xmc_gpio.h ****  *
 198:C:/Workspaces/DAVE-4.4.2-64Bit/_PKDS_TSTS06_923M_X45_V1_8/Libraries/XMCLib/inc\xmc_gpio.h ****  * @return None
 199:C:/Workspaces/DAVE-4.4.2-64Bit/_PKDS_TSTS06_923M_X45_V1_8/Libraries/XMCLib/inc\xmc_gpio.h ****  *
 200:C:/Workspaces/DAVE-4.4.2-64Bit/_PKDS_TSTS06_923M_X45_V1_8/Libraries/XMCLib/inc\xmc_gpio.h ****  * \par<b>Description:</b><br>
 201:C:/Workspaces/DAVE-4.4.2-64Bit/_PKDS_TSTS06_923M_X45_V1_8/Libraries/XMCLib/inc\xmc_gpio.h ****  * Sets digital input and output driver functionality and characteristics of a GPIO port pin. It co
 202:C:/Workspaces/DAVE-4.4.2-64Bit/_PKDS_TSTS06_923M_X45_V1_8/Libraries/XMCLib/inc\xmc_gpio.h ****  * registers Pn_IOCR. \a mode is initially configured during initialization in XMC_GPIO_Init(). Cal
 203:C:/Workspaces/DAVE-4.4.2-64Bit/_PKDS_TSTS06_923M_X45_V1_8/Libraries/XMCLib/inc\xmc_gpio.h ****  * the port direction functionality as needed later in the program.
 204:C:/Workspaces/DAVE-4.4.2-64Bit/_PKDS_TSTS06_923M_X45_V1_8/Libraries/XMCLib/inc\xmc_gpio.h ****  *
 205:C:/Workspaces/DAVE-4.4.2-64Bit/_PKDS_TSTS06_923M_X45_V1_8/Libraries/XMCLib/inc\xmc_gpio.h ****  * \par<b>Related APIs:</b><BR>
 206:C:/Workspaces/DAVE-4.4.2-64Bit/_PKDS_TSTS06_923M_X45_V1_8/Libraries/XMCLib/inc\xmc_gpio.h ****  *  None
 207:C:/Workspaces/DAVE-4.4.2-64Bit/_PKDS_TSTS06_923M_X45_V1_8/Libraries/XMCLib/inc\xmc_gpio.h ****  *
 208:C:/Workspaces/DAVE-4.4.2-64Bit/_PKDS_TSTS06_923M_X45_V1_8/Libraries/XMCLib/inc\xmc_gpio.h ****  */
 209:C:/Workspaces/DAVE-4.4.2-64Bit/_PKDS_TSTS06_923M_X45_V1_8/Libraries/XMCLib/inc\xmc_gpio.h **** 
 210:C:/Workspaces/DAVE-4.4.2-64Bit/_PKDS_TSTS06_923M_X45_V1_8/Libraries/XMCLib/inc\xmc_gpio.h **** void XMC_GPIO_SetMode(XMC_GPIO_PORT_t *const port, const uint8_t pin, const XMC_GPIO_MODE_t mode);
 211:C:/Workspaces/DAVE-4.4.2-64Bit/_PKDS_TSTS06_923M_X45_V1_8/Libraries/XMCLib/inc\xmc_gpio.h **** 
 212:C:/Workspaces/DAVE-4.4.2-64Bit/_PKDS_TSTS06_923M_X45_V1_8/Libraries/XMCLib/inc\xmc_gpio.h **** 
 213:C:/Workspaces/DAVE-4.4.2-64Bit/_PKDS_TSTS06_923M_X45_V1_8/Libraries/XMCLib/inc\xmc_gpio.h **** /**
 214:C:/Workspaces/DAVE-4.4.2-64Bit/_PKDS_TSTS06_923M_X45_V1_8/Libraries/XMCLib/inc\xmc_gpio.h ****  *
 215:C:/Workspaces/DAVE-4.4.2-64Bit/_PKDS_TSTS06_923M_X45_V1_8/Libraries/XMCLib/inc\xmc_gpio.h ****  * @param  port	 Constant pointer pointing to GPIO port, to access hardware register Pn_OMR.
 216:C:/Workspaces/DAVE-4.4.2-64Bit/_PKDS_TSTS06_923M_X45_V1_8/Libraries/XMCLib/inc\xmc_gpio.h ****  * @param  pin	 Port pin number.
 217:C:/Workspaces/DAVE-4.4.2-64Bit/_PKDS_TSTS06_923M_X45_V1_8/Libraries/XMCLib/inc\xmc_gpio.h ****  * @param  level output level selection. Refer @ref XMC_GPIO_OUTPUT_LEVEL_t for valid values.
 218:C:/Workspaces/DAVE-4.4.2-64Bit/_PKDS_TSTS06_923M_X45_V1_8/Libraries/XMCLib/inc\xmc_gpio.h ****  *
 219:C:/Workspaces/DAVE-4.4.2-64Bit/_PKDS_TSTS06_923M_X45_V1_8/Libraries/XMCLib/inc\xmc_gpio.h ****  * @return None
 220:C:/Workspaces/DAVE-4.4.2-64Bit/_PKDS_TSTS06_923M_X45_V1_8/Libraries/XMCLib/inc\xmc_gpio.h ****  *
 221:C:/Workspaces/DAVE-4.4.2-64Bit/_PKDS_TSTS06_923M_X45_V1_8/Libraries/XMCLib/inc\xmc_gpio.h ****  * \par<b>Description:</b><br>
 222:C:/Workspaces/DAVE-4.4.2-64Bit/_PKDS_TSTS06_923M_X45_V1_8/Libraries/XMCLib/inc\xmc_gpio.h ****  * Set port pin output level to high or low.It configures hardware registers Pn_OMR.\a level is ini
 223:C:/Workspaces/DAVE-4.4.2-64Bit/_PKDS_TSTS06_923M_X45_V1_8/Libraries/XMCLib/inc\xmc_gpio.h ****  * configured during initialization in XMC_GPIO_Init(). Call this API to alter output level as need
 224:C:/Workspaces/DAVE-4.4.2-64Bit/_PKDS_TSTS06_923M_X45_V1_8/Libraries/XMCLib/inc\xmc_gpio.h ****  *
 225:C:/Workspaces/DAVE-4.4.2-64Bit/_PKDS_TSTS06_923M_X45_V1_8/Libraries/XMCLib/inc\xmc_gpio.h ****  * \par<b>Related APIs:</b><BR>
 226:C:/Workspaces/DAVE-4.4.2-64Bit/_PKDS_TSTS06_923M_X45_V1_8/Libraries/XMCLib/inc\xmc_gpio.h ****  *  XMC_GPIO_SetOutputHigh(), XMC_GPIO_SetOutputLow().
 227:C:/Workspaces/DAVE-4.4.2-64Bit/_PKDS_TSTS06_923M_X45_V1_8/Libraries/XMCLib/inc\xmc_gpio.h ****  *
 228:C:/Workspaces/DAVE-4.4.2-64Bit/_PKDS_TSTS06_923M_X45_V1_8/Libraries/XMCLib/inc\xmc_gpio.h ****  * \par<b>Note:</b><br>
 229:C:/Workspaces/DAVE-4.4.2-64Bit/_PKDS_TSTS06_923M_X45_V1_8/Libraries/XMCLib/inc\xmc_gpio.h ****  * Prior to this api, user has to configure port pin to output mode using XMC_GPIO_SetMode().
 230:C:/Workspaces/DAVE-4.4.2-64Bit/_PKDS_TSTS06_923M_X45_V1_8/Libraries/XMCLib/inc\xmc_gpio.h ****  *
 231:C:/Workspaces/DAVE-4.4.2-64Bit/_PKDS_TSTS06_923M_X45_V1_8/Libraries/XMCLib/inc\xmc_gpio.h ****  */
 232:C:/Workspaces/DAVE-4.4.2-64Bit/_PKDS_TSTS06_923M_X45_V1_8/Libraries/XMCLib/inc\xmc_gpio.h **** 
 233:C:/Workspaces/DAVE-4.4.2-64Bit/_PKDS_TSTS06_923M_X45_V1_8/Libraries/XMCLib/inc\xmc_gpio.h **** 
 234:C:/Workspaces/DAVE-4.4.2-64Bit/_PKDS_TSTS06_923M_X45_V1_8/Libraries/XMCLib/inc\xmc_gpio.h **** __STATIC_INLINE void XMC_GPIO_SetOutputLevel(XMC_GPIO_PORT_t *const port, const uint8_t pin, const 
 235:C:/Workspaces/DAVE-4.4.2-64Bit/_PKDS_TSTS06_923M_X45_V1_8/Libraries/XMCLib/inc\xmc_gpio.h **** {
 236:C:/Workspaces/DAVE-4.4.2-64Bit/_PKDS_TSTS06_923M_X45_V1_8/Libraries/XMCLib/inc\xmc_gpio.h ****   XMC_ASSERT("XMC_GPIO_SetOutputLevel: Invalid port", XMC_GPIO_CHECK_OUTPUT_PORT(port));
 237:C:/Workspaces/DAVE-4.4.2-64Bit/_PKDS_TSTS06_923M_X45_V1_8/Libraries/XMCLib/inc\xmc_gpio.h ****   XMC_ASSERT("XMC_GPIO_SetOutputLevel: Invalid output level", XMC_GPIO_CHECK_OUTPUT_LEVEL(level));
 238:C:/Workspaces/DAVE-4.4.2-64Bit/_PKDS_TSTS06_923M_X45_V1_8/Libraries/XMCLib/inc\xmc_gpio.h **** 
 239:C:/Workspaces/DAVE-4.4.2-64Bit/_PKDS_TSTS06_923M_X45_V1_8/Libraries/XMCLib/inc\xmc_gpio.h ****   port->OMR = (uint32_t)level << pin;
 240:C:/Workspaces/DAVE-4.4.2-64Bit/_PKDS_TSTS06_923M_X45_V1_8/Libraries/XMCLib/inc\xmc_gpio.h **** }
 241:C:/Workspaces/DAVE-4.4.2-64Bit/_PKDS_TSTS06_923M_X45_V1_8/Libraries/XMCLib/inc\xmc_gpio.h **** 
 242:C:/Workspaces/DAVE-4.4.2-64Bit/_PKDS_TSTS06_923M_X45_V1_8/Libraries/XMCLib/inc\xmc_gpio.h **** 
 243:C:/Workspaces/DAVE-4.4.2-64Bit/_PKDS_TSTS06_923M_X45_V1_8/Libraries/XMCLib/inc\xmc_gpio.h **** /**
 244:C:/Workspaces/DAVE-4.4.2-64Bit/_PKDS_TSTS06_923M_X45_V1_8/Libraries/XMCLib/inc\xmc_gpio.h ****  * @param  port constant pointer pointing to GPIO port, to access hardware register Pn_OMR.
 245:C:/Workspaces/DAVE-4.4.2-64Bit/_PKDS_TSTS06_923M_X45_V1_8/Libraries/XMCLib/inc\xmc_gpio.h ****  * @param  pin	Port pin number.
 246:C:/Workspaces/DAVE-4.4.2-64Bit/_PKDS_TSTS06_923M_X45_V1_8/Libraries/XMCLib/inc\xmc_gpio.h ****  *
 247:C:/Workspaces/DAVE-4.4.2-64Bit/_PKDS_TSTS06_923M_X45_V1_8/Libraries/XMCLib/inc\xmc_gpio.h ****  * @return None
 248:C:/Workspaces/DAVE-4.4.2-64Bit/_PKDS_TSTS06_923M_X45_V1_8/Libraries/XMCLib/inc\xmc_gpio.h ****  *
 249:C:/Workspaces/DAVE-4.4.2-64Bit/_PKDS_TSTS06_923M_X45_V1_8/Libraries/XMCLib/inc\xmc_gpio.h ****  * \par<b>Description:</b><br>
 250:C:/Workspaces/DAVE-4.4.2-64Bit/_PKDS_TSTS06_923M_X45_V1_8/Libraries/XMCLib/inc\xmc_gpio.h ****  *  Sets port pin output to high. It configures hardware registers Pn_OMR.
 251:C:/Workspaces/DAVE-4.4.2-64Bit/_PKDS_TSTS06_923M_X45_V1_8/Libraries/XMCLib/inc\xmc_gpio.h ****  *
 252:C:/Workspaces/DAVE-4.4.2-64Bit/_PKDS_TSTS06_923M_X45_V1_8/Libraries/XMCLib/inc\xmc_gpio.h ****  *  \par<b>Related APIs:</b><BR>
 253:C:/Workspaces/DAVE-4.4.2-64Bit/_PKDS_TSTS06_923M_X45_V1_8/Libraries/XMCLib/inc\xmc_gpio.h ****  *  XMC_GPIO_SetOutputLow()
 254:C:/Workspaces/DAVE-4.4.2-64Bit/_PKDS_TSTS06_923M_X45_V1_8/Libraries/XMCLib/inc\xmc_gpio.h ****  *
 255:C:/Workspaces/DAVE-4.4.2-64Bit/_PKDS_TSTS06_923M_X45_V1_8/Libraries/XMCLib/inc\xmc_gpio.h ****  * \par<b>Note:</b><br>
 256:C:/Workspaces/DAVE-4.4.2-64Bit/_PKDS_TSTS06_923M_X45_V1_8/Libraries/XMCLib/inc\xmc_gpio.h ****  * Prior to this api, user has to configure port pin to output mode using XMC_GPIO_SetMode().\n
 257:C:/Workspaces/DAVE-4.4.2-64Bit/_PKDS_TSTS06_923M_X45_V1_8/Libraries/XMCLib/inc\xmc_gpio.h ****  * Register Pn_OMR is virtual and does not contain any flip-flop. A read action delivers the value 
 258:C:/Workspaces/DAVE-4.4.2-64Bit/_PKDS_TSTS06_923M_X45_V1_8/Libraries/XMCLib/inc\xmc_gpio.h ****  *
 259:C:/Workspaces/DAVE-4.4.2-64Bit/_PKDS_TSTS06_923M_X45_V1_8/Libraries/XMCLib/inc\xmc_gpio.h ****  */
 260:C:/Workspaces/DAVE-4.4.2-64Bit/_PKDS_TSTS06_923M_X45_V1_8/Libraries/XMCLib/inc\xmc_gpio.h **** 
 261:C:/Workspaces/DAVE-4.4.2-64Bit/_PKDS_TSTS06_923M_X45_V1_8/Libraries/XMCLib/inc\xmc_gpio.h **** __STATIC_INLINE void XMC_GPIO_SetOutputHigh(XMC_GPIO_PORT_t *const port, const uint8_t pin)
 262:C:/Workspaces/DAVE-4.4.2-64Bit/_PKDS_TSTS06_923M_X45_V1_8/Libraries/XMCLib/inc\xmc_gpio.h **** {
  27              	 .loc 1 262 1
  28              	 .cfi_startproc
  29              	 
  30              	 
  31              	 
  32 0000 80B4     	 push {r7}
  33              	.LCFI0:
  34              	 .cfi_def_cfa_offset 4
  35              	 .cfi_offset 7,-4
  36 0002 83B0     	 sub sp,sp,#12
  37              	.LCFI1:
  38              	 .cfi_def_cfa_offset 16
  39 0004 00AF     	 add r7,sp,#0
  40              	.LCFI2:
  41              	 .cfi_def_cfa_register 7
  42 0006 7860     	 str r0,[r7,#4]
  43 0008 0B46     	 mov r3,r1
  44 000a FB70     	 strb r3,[r7,#3]
 263:C:/Workspaces/DAVE-4.4.2-64Bit/_PKDS_TSTS06_923M_X45_V1_8/Libraries/XMCLib/inc\xmc_gpio.h ****   XMC_ASSERT("XMC_GPIO_SetOutputHigh: Invalid port", XMC_GPIO_CHECK_OUTPUT_PORT(port));
 264:C:/Workspaces/DAVE-4.4.2-64Bit/_PKDS_TSTS06_923M_X45_V1_8/Libraries/XMCLib/inc\xmc_gpio.h **** 
 265:C:/Workspaces/DAVE-4.4.2-64Bit/_PKDS_TSTS06_923M_X45_V1_8/Libraries/XMCLib/inc\xmc_gpio.h ****   port->OMR = (uint32_t)0x1U << pin;
  45              	 .loc 1 265 30
  46 000c FB78     	 ldrb r3,[r7,#3]
  47 000e 0122     	 movs r2,#1
  48 0010 9A40     	 lsls r2,r2,r3
  49              	 .loc 1 265 13
  50 0012 7B68     	 ldr r3,[r7,#4]
  51 0014 5A60     	 str r2,[r3,#4]
 266:C:/Workspaces/DAVE-4.4.2-64Bit/_PKDS_TSTS06_923M_X45_V1_8/Libraries/XMCLib/inc\xmc_gpio.h **** }
  52              	 .loc 1 266 1
  53 0016 00BF     	 nop
  54 0018 0C37     	 adds r7,r7,#12
  55              	.LCFI3:
  56              	 .cfi_def_cfa_offset 4
  57 001a BD46     	 mov sp,r7
  58              	.LCFI4:
  59              	 .cfi_def_cfa_register 13
  60              	 
  61 001c 5DF8047B 	 ldr r7,[sp],#4
  62              	.LCFI5:
  63              	 .cfi_restore 7
  64              	 .cfi_def_cfa_offset 0
  65 0020 7047     	 bx lr
  66              	 .cfi_endproc
  67              	.LFE135:
  69              	 .section .text.XMC_GPIO_SetOutputLow,"ax",%progbits
  70              	 .align 1
  71              	 .syntax unified
  72              	 .thumb
  73              	 .thumb_func
  74              	 .fpu fpv4-sp-d16
  76              	XMC_GPIO_SetOutputLow:
  77              	.LFB136:
 267:C:/Workspaces/DAVE-4.4.2-64Bit/_PKDS_TSTS06_923M_X45_V1_8/Libraries/XMCLib/inc\xmc_gpio.h **** 
 268:C:/Workspaces/DAVE-4.4.2-64Bit/_PKDS_TSTS06_923M_X45_V1_8/Libraries/XMCLib/inc\xmc_gpio.h **** /**
 269:C:/Workspaces/DAVE-4.4.2-64Bit/_PKDS_TSTS06_923M_X45_V1_8/Libraries/XMCLib/inc\xmc_gpio.h ****  *
 270:C:/Workspaces/DAVE-4.4.2-64Bit/_PKDS_TSTS06_923M_X45_V1_8/Libraries/XMCLib/inc\xmc_gpio.h ****  * @param  port	constant pointer pointing to GPIO port, to access hardware register Pn_OMR.
 271:C:/Workspaces/DAVE-4.4.2-64Bit/_PKDS_TSTS06_923M_X45_V1_8/Libraries/XMCLib/inc\xmc_gpio.h ****  * @param  pin	port pin number.
 272:C:/Workspaces/DAVE-4.4.2-64Bit/_PKDS_TSTS06_923M_X45_V1_8/Libraries/XMCLib/inc\xmc_gpio.h ****  *
 273:C:/Workspaces/DAVE-4.4.2-64Bit/_PKDS_TSTS06_923M_X45_V1_8/Libraries/XMCLib/inc\xmc_gpio.h ****  * @return  None
 274:C:/Workspaces/DAVE-4.4.2-64Bit/_PKDS_TSTS06_923M_X45_V1_8/Libraries/XMCLib/inc\xmc_gpio.h ****  *
 275:C:/Workspaces/DAVE-4.4.2-64Bit/_PKDS_TSTS06_923M_X45_V1_8/Libraries/XMCLib/inc\xmc_gpio.h ****  *\par<b>Description:</b><br>
 276:C:/Workspaces/DAVE-4.4.2-64Bit/_PKDS_TSTS06_923M_X45_V1_8/Libraries/XMCLib/inc\xmc_gpio.h ****  * Sets port pin output to low. It configures hardware registers Pn_OMR.\n
 277:C:/Workspaces/DAVE-4.4.2-64Bit/_PKDS_TSTS06_923M_X45_V1_8/Libraries/XMCLib/inc\xmc_gpio.h ****  *
 278:C:/Workspaces/DAVE-4.4.2-64Bit/_PKDS_TSTS06_923M_X45_V1_8/Libraries/XMCLib/inc\xmc_gpio.h ****  * \par<b>Related APIs:</b><BR>>
 279:C:/Workspaces/DAVE-4.4.2-64Bit/_PKDS_TSTS06_923M_X45_V1_8/Libraries/XMCLib/inc\xmc_gpio.h ****  * XMC_GPIO_SetOutputHigh()
 280:C:/Workspaces/DAVE-4.4.2-64Bit/_PKDS_TSTS06_923M_X45_V1_8/Libraries/XMCLib/inc\xmc_gpio.h ****  *
 281:C:/Workspaces/DAVE-4.4.2-64Bit/_PKDS_TSTS06_923M_X45_V1_8/Libraries/XMCLib/inc\xmc_gpio.h ****  *\par<b>Note:</b><br>
 282:C:/Workspaces/DAVE-4.4.2-64Bit/_PKDS_TSTS06_923M_X45_V1_8/Libraries/XMCLib/inc\xmc_gpio.h ****  * Prior to this api, user has to configure port pin to output mode using XMC_GPIO_SetMode().
 283:C:/Workspaces/DAVE-4.4.2-64Bit/_PKDS_TSTS06_923M_X45_V1_8/Libraries/XMCLib/inc\xmc_gpio.h ****  * Register Pn_OMR is virtual and does not contain any flip-flop. A read action delivers the value 
 284:C:/Workspaces/DAVE-4.4.2-64Bit/_PKDS_TSTS06_923M_X45_V1_8/Libraries/XMCLib/inc\xmc_gpio.h ****  *
 285:C:/Workspaces/DAVE-4.4.2-64Bit/_PKDS_TSTS06_923M_X45_V1_8/Libraries/XMCLib/inc\xmc_gpio.h ****  */
 286:C:/Workspaces/DAVE-4.4.2-64Bit/_PKDS_TSTS06_923M_X45_V1_8/Libraries/XMCLib/inc\xmc_gpio.h **** 
 287:C:/Workspaces/DAVE-4.4.2-64Bit/_PKDS_TSTS06_923M_X45_V1_8/Libraries/XMCLib/inc\xmc_gpio.h **** __STATIC_INLINE void XMC_GPIO_SetOutputLow(XMC_GPIO_PORT_t *const port, const uint8_t pin)
 288:C:/Workspaces/DAVE-4.4.2-64Bit/_PKDS_TSTS06_923M_X45_V1_8/Libraries/XMCLib/inc\xmc_gpio.h **** {
  78              	 .loc 1 288 1
  79              	 .cfi_startproc
  80              	 
  81              	 
  82              	 
  83 0000 80B4     	 push {r7}
  84              	.LCFI6:
  85              	 .cfi_def_cfa_offset 4
  86              	 .cfi_offset 7,-4
  87 0002 83B0     	 sub sp,sp,#12
  88              	.LCFI7:
  89              	 .cfi_def_cfa_offset 16
  90 0004 00AF     	 add r7,sp,#0
  91              	.LCFI8:
  92              	 .cfi_def_cfa_register 7
  93 0006 7860     	 str r0,[r7,#4]
  94 0008 0B46     	 mov r3,r1
  95 000a FB70     	 strb r3,[r7,#3]
 289:C:/Workspaces/DAVE-4.4.2-64Bit/_PKDS_TSTS06_923M_X45_V1_8/Libraries/XMCLib/inc\xmc_gpio.h ****   XMC_ASSERT("XMC_GPIO_SetOutputLow: Invalid port", XMC_GPIO_CHECK_OUTPUT_PORT(port));
 290:C:/Workspaces/DAVE-4.4.2-64Bit/_PKDS_TSTS06_923M_X45_V1_8/Libraries/XMCLib/inc\xmc_gpio.h **** 
 291:C:/Workspaces/DAVE-4.4.2-64Bit/_PKDS_TSTS06_923M_X45_V1_8/Libraries/XMCLib/inc\xmc_gpio.h ****   port->OMR = 0x10000U << pin;
  96              	 .loc 1 291 24
  97 000c FB78     	 ldrb r3,[r7,#3]
  98 000e 4FF48032 	 mov r2,#65536
  99 0012 9A40     	 lsls r2,r2,r3
 100              	 .loc 1 291 13
 101 0014 7B68     	 ldr r3,[r7,#4]
 102 0016 5A60     	 str r2,[r3,#4]
 292:C:/Workspaces/DAVE-4.4.2-64Bit/_PKDS_TSTS06_923M_X45_V1_8/Libraries/XMCLib/inc\xmc_gpio.h **** }
 103              	 .loc 1 292 1
 104 0018 00BF     	 nop
 105 001a 0C37     	 adds r7,r7,#12
 106              	.LCFI9:
 107              	 .cfi_def_cfa_offset 4
 108 001c BD46     	 mov sp,r7
 109              	.LCFI10:
 110              	 .cfi_def_cfa_register 13
 111              	 
 112 001e 5DF8047B 	 ldr r7,[sp],#4
 113              	.LCFI11:
 114              	 .cfi_restore 7
 115              	 .cfi_def_cfa_offset 0
 116 0022 7047     	 bx lr
 117              	 .cfi_endproc
 118              	.LFE136:
 120              	 .section .text.XMC_GPIO_ToggleOutput,"ax",%progbits
 121              	 .align 1
 122              	 .syntax unified
 123              	 .thumb
 124              	 .thumb_func
 125              	 .fpu fpv4-sp-d16
 127              	XMC_GPIO_ToggleOutput:
 128              	.LFB137:
 293:C:/Workspaces/DAVE-4.4.2-64Bit/_PKDS_TSTS06_923M_X45_V1_8/Libraries/XMCLib/inc\xmc_gpio.h **** 
 294:C:/Workspaces/DAVE-4.4.2-64Bit/_PKDS_TSTS06_923M_X45_V1_8/Libraries/XMCLib/inc\xmc_gpio.h **** /**
 295:C:/Workspaces/DAVE-4.4.2-64Bit/_PKDS_TSTS06_923M_X45_V1_8/Libraries/XMCLib/inc\xmc_gpio.h ****  *
 296:C:/Workspaces/DAVE-4.4.2-64Bit/_PKDS_TSTS06_923M_X45_V1_8/Libraries/XMCLib/inc\xmc_gpio.h ****  * @param port constant pointer pointing to GPIO port, to access hardware register Pn_OMR.
 297:C:/Workspaces/DAVE-4.4.2-64Bit/_PKDS_TSTS06_923M_X45_V1_8/Libraries/XMCLib/inc\xmc_gpio.h ****  * @param pin  port pin number.
 298:C:/Workspaces/DAVE-4.4.2-64Bit/_PKDS_TSTS06_923M_X45_V1_8/Libraries/XMCLib/inc\xmc_gpio.h ****  *
 299:C:/Workspaces/DAVE-4.4.2-64Bit/_PKDS_TSTS06_923M_X45_V1_8/Libraries/XMCLib/inc\xmc_gpio.h ****  * @return None
 300:C:/Workspaces/DAVE-4.4.2-64Bit/_PKDS_TSTS06_923M_X45_V1_8/Libraries/XMCLib/inc\xmc_gpio.h ****  *
 301:C:/Workspaces/DAVE-4.4.2-64Bit/_PKDS_TSTS06_923M_X45_V1_8/Libraries/XMCLib/inc\xmc_gpio.h ****  * \par<b>Description:</b><br>
 302:C:/Workspaces/DAVE-4.4.2-64Bit/_PKDS_TSTS06_923M_X45_V1_8/Libraries/XMCLib/inc\xmc_gpio.h ****  * Configures port pin output to Toggle. It configures hardware registers Pn_OMR.
 303:C:/Workspaces/DAVE-4.4.2-64Bit/_PKDS_TSTS06_923M_X45_V1_8/Libraries/XMCLib/inc\xmc_gpio.h ****  *
 304:C:/Workspaces/DAVE-4.4.2-64Bit/_PKDS_TSTS06_923M_X45_V1_8/Libraries/XMCLib/inc\xmc_gpio.h ****  * \par<b>Related APIs:</b><BR>
 305:C:/Workspaces/DAVE-4.4.2-64Bit/_PKDS_TSTS06_923M_X45_V1_8/Libraries/XMCLib/inc\xmc_gpio.h ****  * XMC_GPIO_SetOutputHigh(), XMC_GPIO_SetOutputLow().
 306:C:/Workspaces/DAVE-4.4.2-64Bit/_PKDS_TSTS06_923M_X45_V1_8/Libraries/XMCLib/inc\xmc_gpio.h ****  *
 307:C:/Workspaces/DAVE-4.4.2-64Bit/_PKDS_TSTS06_923M_X45_V1_8/Libraries/XMCLib/inc\xmc_gpio.h ****  * \par<b>Note:</b><br>
 308:C:/Workspaces/DAVE-4.4.2-64Bit/_PKDS_TSTS06_923M_X45_V1_8/Libraries/XMCLib/inc\xmc_gpio.h ****  * Prior to this api, user has to configure port pin to output mode using XMC_GPIO_SetMode(). Regis
 309:C:/Workspaces/DAVE-4.4.2-64Bit/_PKDS_TSTS06_923M_X45_V1_8/Libraries/XMCLib/inc\xmc_gpio.h ****  * and does not contain any flip-flop. A read action delivers the value of 0.
 310:C:/Workspaces/DAVE-4.4.2-64Bit/_PKDS_TSTS06_923M_X45_V1_8/Libraries/XMCLib/inc\xmc_gpio.h ****  *
 311:C:/Workspaces/DAVE-4.4.2-64Bit/_PKDS_TSTS06_923M_X45_V1_8/Libraries/XMCLib/inc\xmc_gpio.h ****  */
 312:C:/Workspaces/DAVE-4.4.2-64Bit/_PKDS_TSTS06_923M_X45_V1_8/Libraries/XMCLib/inc\xmc_gpio.h **** 
 313:C:/Workspaces/DAVE-4.4.2-64Bit/_PKDS_TSTS06_923M_X45_V1_8/Libraries/XMCLib/inc\xmc_gpio.h **** __STATIC_INLINE void XMC_GPIO_ToggleOutput(XMC_GPIO_PORT_t *const port, const uint8_t pin)
 314:C:/Workspaces/DAVE-4.4.2-64Bit/_PKDS_TSTS06_923M_X45_V1_8/Libraries/XMCLib/inc\xmc_gpio.h **** {
 129              	 .loc 1 314 1
 130              	 .cfi_startproc
 131              	 
 132              	 
 133              	 
 134 0000 80B4     	 push {r7}
 135              	.LCFI12:
 136              	 .cfi_def_cfa_offset 4
 137              	 .cfi_offset 7,-4
 138 0002 83B0     	 sub sp,sp,#12
 139              	.LCFI13:
 140              	 .cfi_def_cfa_offset 16
 141 0004 00AF     	 add r7,sp,#0
 142              	.LCFI14:
 143              	 .cfi_def_cfa_register 7
 144 0006 7860     	 str r0,[r7,#4]
 145 0008 0B46     	 mov r3,r1
 146 000a FB70     	 strb r3,[r7,#3]
 315:C:/Workspaces/DAVE-4.4.2-64Bit/_PKDS_TSTS06_923M_X45_V1_8/Libraries/XMCLib/inc\xmc_gpio.h ****   XMC_ASSERT("XMC_GPIO_ToggleOutput: Invalid port", XMC_GPIO_CHECK_OUTPUT_PORT(port));
 316:C:/Workspaces/DAVE-4.4.2-64Bit/_PKDS_TSTS06_923M_X45_V1_8/Libraries/XMCLib/inc\xmc_gpio.h **** 
 317:C:/Workspaces/DAVE-4.4.2-64Bit/_PKDS_TSTS06_923M_X45_V1_8/Libraries/XMCLib/inc\xmc_gpio.h ****   port->OMR = 0x10001U << pin;
 147              	 .loc 1 317 24
 148 000c FB78     	 ldrb r3,[r7,#3]
 149 000e 4FF00112 	 mov r2,#65537
 150 0012 9A40     	 lsls r2,r2,r3
 151              	 .loc 1 317 13
 152 0014 7B68     	 ldr r3,[r7,#4]
 153 0016 5A60     	 str r2,[r3,#4]
 318:C:/Workspaces/DAVE-4.4.2-64Bit/_PKDS_TSTS06_923M_X45_V1_8/Libraries/XMCLib/inc\xmc_gpio.h **** }
 154              	 .loc 1 318 1
 155 0018 00BF     	 nop
 156 001a 0C37     	 adds r7,r7,#12
 157              	.LCFI15:
 158              	 .cfi_def_cfa_offset 4
 159 001c BD46     	 mov sp,r7
 160              	.LCFI16:
 161              	 .cfi_def_cfa_register 13
 162              	 
 163 001e 5DF8047B 	 ldr r7,[sp],#4
 164              	.LCFI17:
 165              	 .cfi_restore 7
 166              	 .cfi_def_cfa_offset 0
 167 0022 7047     	 bx lr
 168              	 .cfi_endproc
 169              	.LFE137:
 171              	 .section .text.DIGITAL_IO_SetOutputHigh,"ax",%progbits
 172              	 .align 1
 173              	 .syntax unified
 174              	 .thumb
 175              	 .thumb_func
 176              	 .fpu fpv4-sp-d16
 178              	DIGITAL_IO_SetOutputHigh:
 179              	.LFB143:
 180              	 .file 2 "C:/Workspaces/DAVE-4.4.2-64Bit/_PKDS_TSTS06_923M_X45_V1_8/Dave/Generated/DIGITAL_IO/digital_io.h"
   1:C:/Workspaces/DAVE-4.4.2-64Bit/_PKDS_TSTS06_923M_X45_V1_8/Dave/Generated/DIGITAL_IO\digital_io.h **** /*
   2:C:/Workspaces/DAVE-4.4.2-64Bit/_PKDS_TSTS06_923M_X45_V1_8/Dave/Generated/DIGITAL_IO\digital_io.h ****  *
   3:C:/Workspaces/DAVE-4.4.2-64Bit/_PKDS_TSTS06_923M_X45_V1_8/Dave/Generated/DIGITAL_IO\digital_io.h ****  * @file digital_io.h
   4:C:/Workspaces/DAVE-4.4.2-64Bit/_PKDS_TSTS06_923M_X45_V1_8/Dave/Generated/DIGITAL_IO\digital_io.h ****  * @date 2021-01-08
   5:C:/Workspaces/DAVE-4.4.2-64Bit/_PKDS_TSTS06_923M_X45_V1_8/Dave/Generated/DIGITAL_IO\digital_io.h ****  *
   6:C:/Workspaces/DAVE-4.4.2-64Bit/_PKDS_TSTS06_923M_X45_V1_8/Dave/Generated/DIGITAL_IO\digital_io.h ****  * NOTE:
   7:C:/Workspaces/DAVE-4.4.2-64Bit/_PKDS_TSTS06_923M_X45_V1_8/Dave/Generated/DIGITAL_IO\digital_io.h ****  * This file is generated by DAVE. Any manual modification done to this file will be lost when the 
   8:C:/Workspaces/DAVE-4.4.2-64Bit/_PKDS_TSTS06_923M_X45_V1_8/Dave/Generated/DIGITAL_IO\digital_io.h ****  *
   9:C:/Workspaces/DAVE-4.4.2-64Bit/_PKDS_TSTS06_923M_X45_V1_8/Dave/Generated/DIGITAL_IO\digital_io.h ****  * @cond
  10:C:/Workspaces/DAVE-4.4.2-64Bit/_PKDS_TSTS06_923M_X45_V1_8/Dave/Generated/DIGITAL_IO\digital_io.h ****  **************************************************************************************************
  11:C:/Workspaces/DAVE-4.4.2-64Bit/_PKDS_TSTS06_923M_X45_V1_8/Dave/Generated/DIGITAL_IO\digital_io.h ****  * DIGITAL_IO v4.0.18 - The DIGITAL_IO APP is used to configure a port pin as digital Input/Output.
  12:C:/Workspaces/DAVE-4.4.2-64Bit/_PKDS_TSTS06_923M_X45_V1_8/Dave/Generated/DIGITAL_IO\digital_io.h ****  *
  13:C:/Workspaces/DAVE-4.4.2-64Bit/_PKDS_TSTS06_923M_X45_V1_8/Dave/Generated/DIGITAL_IO\digital_io.h ****  * Copyright (c) 2015-2020, Infineon Technologies AG
  14:C:/Workspaces/DAVE-4.4.2-64Bit/_PKDS_TSTS06_923M_X45_V1_8/Dave/Generated/DIGITAL_IO\digital_io.h ****  * All rights reserved.
  15:C:/Workspaces/DAVE-4.4.2-64Bit/_PKDS_TSTS06_923M_X45_V1_8/Dave/Generated/DIGITAL_IO\digital_io.h ****  *
  16:C:/Workspaces/DAVE-4.4.2-64Bit/_PKDS_TSTS06_923M_X45_V1_8/Dave/Generated/DIGITAL_IO\digital_io.h ****  * Redistribution and use in source and binary forms, with or without modification,are permitted pr
  17:C:/Workspaces/DAVE-4.4.2-64Bit/_PKDS_TSTS06_923M_X45_V1_8/Dave/Generated/DIGITAL_IO\digital_io.h ****  * following conditions are met:
  18:C:/Workspaces/DAVE-4.4.2-64Bit/_PKDS_TSTS06_923M_X45_V1_8/Dave/Generated/DIGITAL_IO\digital_io.h ****  *
  19:C:/Workspaces/DAVE-4.4.2-64Bit/_PKDS_TSTS06_923M_X45_V1_8/Dave/Generated/DIGITAL_IO\digital_io.h ****  *   Redistributions of source code must retain the above copyright notice, this list of conditions
  20:C:/Workspaces/DAVE-4.4.2-64Bit/_PKDS_TSTS06_923M_X45_V1_8/Dave/Generated/DIGITAL_IO\digital_io.h ****  *   disclaimer.
  21:C:/Workspaces/DAVE-4.4.2-64Bit/_PKDS_TSTS06_923M_X45_V1_8/Dave/Generated/DIGITAL_IO\digital_io.h ****  *
  22:C:/Workspaces/DAVE-4.4.2-64Bit/_PKDS_TSTS06_923M_X45_V1_8/Dave/Generated/DIGITAL_IO\digital_io.h ****  *   Redistributions in binary form must reproduce the above copyright notice, this list of conditi
  23:C:/Workspaces/DAVE-4.4.2-64Bit/_PKDS_TSTS06_923M_X45_V1_8/Dave/Generated/DIGITAL_IO\digital_io.h ****  *   following disclaimer in the documentation and/or other materials provided with the distributio
  24:C:/Workspaces/DAVE-4.4.2-64Bit/_PKDS_TSTS06_923M_X45_V1_8/Dave/Generated/DIGITAL_IO\digital_io.h ****  *
  25:C:/Workspaces/DAVE-4.4.2-64Bit/_PKDS_TSTS06_923M_X45_V1_8/Dave/Generated/DIGITAL_IO\digital_io.h ****  *   Neither the name of the copyright holders nor the names of its contributors may be used to end
  26:C:/Workspaces/DAVE-4.4.2-64Bit/_PKDS_TSTS06_923M_X45_V1_8/Dave/Generated/DIGITAL_IO\digital_io.h ****  *   products derived from this software without specific prior written permission.
  27:C:/Workspaces/DAVE-4.4.2-64Bit/_PKDS_TSTS06_923M_X45_V1_8/Dave/Generated/DIGITAL_IO\digital_io.h ****  *
  28:C:/Workspaces/DAVE-4.4.2-64Bit/_PKDS_TSTS06_923M_X45_V1_8/Dave/Generated/DIGITAL_IO\digital_io.h ****  * THIS SOFTWARE IS PROVIDED BY THE COPYRIGHT HOLDERS AND CONTRIBUTORS "AS IS" AND ANY EXPRESS OR I
  29:C:/Workspaces/DAVE-4.4.2-64Bit/_PKDS_TSTS06_923M_X45_V1_8/Dave/Generated/DIGITAL_IO\digital_io.h ****  * INCLUDING, BUT NOT LIMITED TO, THE IMPLIED WARRANTIES OF MERCHANTABILITY AND FITNESS FOR A PARTI
  30:C:/Workspaces/DAVE-4.4.2-64Bit/_PKDS_TSTS06_923M_X45_V1_8/Dave/Generated/DIGITAL_IO\digital_io.h ****  * DISCLAIMED. IN NO EVENT SHALL THE COPYRIGHT HOLDER OR CONTRIBUTORS BE LIABLE  FOR ANY DIRECT, IN
  31:C:/Workspaces/DAVE-4.4.2-64Bit/_PKDS_TSTS06_923M_X45_V1_8/Dave/Generated/DIGITAL_IO\digital_io.h ****  * SPECIAL, EXEMPLARY, OR CONSEQUENTIAL DAMAGES (INCLUDING, BUT NOT LIMITED TO, PROCUREMENT OF SUBS
  32:C:/Workspaces/DAVE-4.4.2-64Bit/_PKDS_TSTS06_923M_X45_V1_8/Dave/Generated/DIGITAL_IO\digital_io.h ****  * SERVICES; LOSS OF USE, DATA, OR PROFITS; OR BUSINESS INTERRUPTION) HOWEVER CAUSED AND ON ANY THE
  33:C:/Workspaces/DAVE-4.4.2-64Bit/_PKDS_TSTS06_923M_X45_V1_8/Dave/Generated/DIGITAL_IO\digital_io.h ****  * WHETHER IN CONTRACT, STRICT LIABILITY,OR TORT (INCLUDING NEGLIGENCE OR OTHERWISE) ARISING IN ANY
  34:C:/Workspaces/DAVE-4.4.2-64Bit/_PKDS_TSTS06_923M_X45_V1_8/Dave/Generated/DIGITAL_IO\digital_io.h ****  * USE OF THIS SOFTWARE, EVEN IF ADVISED OF THE POSSIBILITY OF SUCH DAMAGE.
  35:C:/Workspaces/DAVE-4.4.2-64Bit/_PKDS_TSTS06_923M_X45_V1_8/Dave/Generated/DIGITAL_IO\digital_io.h ****  *
  36:C:/Workspaces/DAVE-4.4.2-64Bit/_PKDS_TSTS06_923M_X45_V1_8/Dave/Generated/DIGITAL_IO\digital_io.h ****  * To improve the quality of the software, users are encouraged to share modifications, enhancement
  37:C:/Workspaces/DAVE-4.4.2-64Bit/_PKDS_TSTS06_923M_X45_V1_8/Dave/Generated/DIGITAL_IO\digital_io.h ****  * with Infineon Technologies AG (dave@infineon.com).
  38:C:/Workspaces/DAVE-4.4.2-64Bit/_PKDS_TSTS06_923M_X45_V1_8/Dave/Generated/DIGITAL_IO\digital_io.h ****  **************************************************************************************************
  39:C:/Workspaces/DAVE-4.4.2-64Bit/_PKDS_TSTS06_923M_X45_V1_8/Dave/Generated/DIGITAL_IO\digital_io.h ****  *
  40:C:/Workspaces/DAVE-4.4.2-64Bit/_PKDS_TSTS06_923M_X45_V1_8/Dave/Generated/DIGITAL_IO\digital_io.h ****  * Change History
  41:C:/Workspaces/DAVE-4.4.2-64Bit/_PKDS_TSTS06_923M_X45_V1_8/Dave/Generated/DIGITAL_IO\digital_io.h ****  * --------------
  42:C:/Workspaces/DAVE-4.4.2-64Bit/_PKDS_TSTS06_923M_X45_V1_8/Dave/Generated/DIGITAL_IO\digital_io.h ****  *
  43:C:/Workspaces/DAVE-4.4.2-64Bit/_PKDS_TSTS06_923M_X45_V1_8/Dave/Generated/DIGITAL_IO\digital_io.h ****  * 2015-02-16
  44:C:/Workspaces/DAVE-4.4.2-64Bit/_PKDS_TSTS06_923M_X45_V1_8/Dave/Generated/DIGITAL_IO\digital_io.h ****  *     - Initial version
  45:C:/Workspaces/DAVE-4.4.2-64Bit/_PKDS_TSTS06_923M_X45_V1_8/Dave/Generated/DIGITAL_IO\digital_io.h ****  *
  46:C:/Workspaces/DAVE-4.4.2-64Bit/_PKDS_TSTS06_923M_X45_V1_8/Dave/Generated/DIGITAL_IO\digital_io.h ****  * 2015-04-22
  47:C:/Workspaces/DAVE-4.4.2-64Bit/_PKDS_TSTS06_923M_X45_V1_8/Dave/Generated/DIGITAL_IO\digital_io.h ****  *     - XMC_ASSERT is added in static inline functions.<br>
  48:C:/Workspaces/DAVE-4.4.2-64Bit/_PKDS_TSTS06_923M_X45_V1_8/Dave/Generated/DIGITAL_IO\digital_io.h ****  *
  49:C:/Workspaces/DAVE-4.4.2-64Bit/_PKDS_TSTS06_923M_X45_V1_8/Dave/Generated/DIGITAL_IO\digital_io.h ****  * 2015-06-20
  50:C:/Workspaces/DAVE-4.4.2-64Bit/_PKDS_TSTS06_923M_X45_V1_8/Dave/Generated/DIGITAL_IO\digital_io.h ****  *     - Version check added for XMCLib dependency.<br>
  51:C:/Workspaces/DAVE-4.4.2-64Bit/_PKDS_TSTS06_923M_X45_V1_8/Dave/Generated/DIGITAL_IO\digital_io.h ****  *
  52:C:/Workspaces/DAVE-4.4.2-64Bit/_PKDS_TSTS06_923M_X45_V1_8/Dave/Generated/DIGITAL_IO\digital_io.h ****  * 2015-12-22
  53:C:/Workspaces/DAVE-4.4.2-64Bit/_PKDS_TSTS06_923M_X45_V1_8/Dave/Generated/DIGITAL_IO\digital_io.h ****  *     - Added hardware controlled IO feature.
  54:C:/Workspaces/DAVE-4.4.2-64Bit/_PKDS_TSTS06_923M_X45_V1_8/Dave/Generated/DIGITAL_IO\digital_io.h ****  * 2016-07-08:
  55:C:/Workspaces/DAVE-4.4.2-64Bit/_PKDS_TSTS06_923M_X45_V1_8/Dave/Generated/DIGITAL_IO\digital_io.h ****  *     - Fixed incorrect case for an included header.<br>
  56:C:/Workspaces/DAVE-4.4.2-64Bit/_PKDS_TSTS06_923M_X45_V1_8/Dave/Generated/DIGITAL_IO\digital_io.h ****  * 2021-01-08:
  57:C:/Workspaces/DAVE-4.4.2-64Bit/_PKDS_TSTS06_923M_X45_V1_8/Dave/Generated/DIGITAL_IO\digital_io.h ****  *     - Modified check for minimum XMCLib version
  58:C:/Workspaces/DAVE-4.4.2-64Bit/_PKDS_TSTS06_923M_X45_V1_8/Dave/Generated/DIGITAL_IO\digital_io.h ****  *
  59:C:/Workspaces/DAVE-4.4.2-64Bit/_PKDS_TSTS06_923M_X45_V1_8/Dave/Generated/DIGITAL_IO\digital_io.h ****  * @endcond
  60:C:/Workspaces/DAVE-4.4.2-64Bit/_PKDS_TSTS06_923M_X45_V1_8/Dave/Generated/DIGITAL_IO\digital_io.h ****  *
  61:C:/Workspaces/DAVE-4.4.2-64Bit/_PKDS_TSTS06_923M_X45_V1_8/Dave/Generated/DIGITAL_IO\digital_io.h ****  */
  62:C:/Workspaces/DAVE-4.4.2-64Bit/_PKDS_TSTS06_923M_X45_V1_8/Dave/Generated/DIGITAL_IO\digital_io.h **** 
  63:C:/Workspaces/DAVE-4.4.2-64Bit/_PKDS_TSTS06_923M_X45_V1_8/Dave/Generated/DIGITAL_IO\digital_io.h **** /**************************************************************************************************
  64:C:/Workspaces/DAVE-4.4.2-64Bit/_PKDS_TSTS06_923M_X45_V1_8/Dave/Generated/DIGITAL_IO\digital_io.h ****  * HEADER FILES
  65:C:/Workspaces/DAVE-4.4.2-64Bit/_PKDS_TSTS06_923M_X45_V1_8/Dave/Generated/DIGITAL_IO\digital_io.h ****  **************************************************************************************************
  66:C:/Workspaces/DAVE-4.4.2-64Bit/_PKDS_TSTS06_923M_X45_V1_8/Dave/Generated/DIGITAL_IO\digital_io.h **** 
  67:C:/Workspaces/DAVE-4.4.2-64Bit/_PKDS_TSTS06_923M_X45_V1_8/Dave/Generated/DIGITAL_IO\digital_io.h **** #ifndef DIGITAL_IO_H
  68:C:/Workspaces/DAVE-4.4.2-64Bit/_PKDS_TSTS06_923M_X45_V1_8/Dave/Generated/DIGITAL_IO\digital_io.h **** #define DIGITAL_IO_H
  69:C:/Workspaces/DAVE-4.4.2-64Bit/_PKDS_TSTS06_923M_X45_V1_8/Dave/Generated/DIGITAL_IO\digital_io.h **** 
  70:C:/Workspaces/DAVE-4.4.2-64Bit/_PKDS_TSTS06_923M_X45_V1_8/Dave/Generated/DIGITAL_IO\digital_io.h **** #include "xmc_gpio.h"
  71:C:/Workspaces/DAVE-4.4.2-64Bit/_PKDS_TSTS06_923M_X45_V1_8/Dave/Generated/DIGITAL_IO\digital_io.h **** #include "DAVE_Common.h"
  72:C:/Workspaces/DAVE-4.4.2-64Bit/_PKDS_TSTS06_923M_X45_V1_8/Dave/Generated/DIGITAL_IO\digital_io.h **** #include "digital_io_conf.h"
  73:C:/Workspaces/DAVE-4.4.2-64Bit/_PKDS_TSTS06_923M_X45_V1_8/Dave/Generated/DIGITAL_IO\digital_io.h **** 
  74:C:/Workspaces/DAVE-4.4.2-64Bit/_PKDS_TSTS06_923M_X45_V1_8/Dave/Generated/DIGITAL_IO\digital_io.h **** /**************************************************************************************************
  75:C:/Workspaces/DAVE-4.4.2-64Bit/_PKDS_TSTS06_923M_X45_V1_8/Dave/Generated/DIGITAL_IO\digital_io.h ****  * MACROS
  76:C:/Workspaces/DAVE-4.4.2-64Bit/_PKDS_TSTS06_923M_X45_V1_8/Dave/Generated/DIGITAL_IO\digital_io.h ****  **************************************************************************************************
  77:C:/Workspaces/DAVE-4.4.2-64Bit/_PKDS_TSTS06_923M_X45_V1_8/Dave/Generated/DIGITAL_IO\digital_io.h **** #define DIGITAL_IO_XMC_LIB_MAJOR_VERSION 2
  78:C:/Workspaces/DAVE-4.4.2-64Bit/_PKDS_TSTS06_923M_X45_V1_8/Dave/Generated/DIGITAL_IO\digital_io.h **** #define DIGITAL_IO_XMC_LIB_MINOR_VERSION 0
  79:C:/Workspaces/DAVE-4.4.2-64Bit/_PKDS_TSTS06_923M_X45_V1_8/Dave/Generated/DIGITAL_IO\digital_io.h **** #define DIGITAL_IO_XMC_LIB_PATCH_VERSION 0
  80:C:/Workspaces/DAVE-4.4.2-64Bit/_PKDS_TSTS06_923M_X45_V1_8/Dave/Generated/DIGITAL_IO\digital_io.h **** 
  81:C:/Workspaces/DAVE-4.4.2-64Bit/_PKDS_TSTS06_923M_X45_V1_8/Dave/Generated/DIGITAL_IO\digital_io.h **** #if !((XMC_LIB_MAJOR_VERSION > DIGITAL_IO_XMC_LIB_MAJOR_VERSION) ||\
  82:C:/Workspaces/DAVE-4.4.2-64Bit/_PKDS_TSTS06_923M_X45_V1_8/Dave/Generated/DIGITAL_IO\digital_io.h ****       ((XMC_LIB_MAJOR_VERSION == DIGITAL_IO_XMC_LIB_MAJOR_VERSION) && (XMC_LIB_MINOR_VERSION > DIGI
  83:C:/Workspaces/DAVE-4.4.2-64Bit/_PKDS_TSTS06_923M_X45_V1_8/Dave/Generated/DIGITAL_IO\digital_io.h ****       ((XMC_LIB_MAJOR_VERSION == DIGITAL_IO_XMC_LIB_MAJOR_VERSION) && (XMC_LIB_MINOR_VERSION == DIG
  84:C:/Workspaces/DAVE-4.4.2-64Bit/_PKDS_TSTS06_923M_X45_V1_8/Dave/Generated/DIGITAL_IO\digital_io.h **** #error "DIGITAL_IO requires XMC Peripheral Library v2.0.0 or higher"
  85:C:/Workspaces/DAVE-4.4.2-64Bit/_PKDS_TSTS06_923M_X45_V1_8/Dave/Generated/DIGITAL_IO\digital_io.h **** #endif
  86:C:/Workspaces/DAVE-4.4.2-64Bit/_PKDS_TSTS06_923M_X45_V1_8/Dave/Generated/DIGITAL_IO\digital_io.h **** 
  87:C:/Workspaces/DAVE-4.4.2-64Bit/_PKDS_TSTS06_923M_X45_V1_8/Dave/Generated/DIGITAL_IO\digital_io.h ****  /*************************************************************************************************
  88:C:/Workspaces/DAVE-4.4.2-64Bit/_PKDS_TSTS06_923M_X45_V1_8/Dave/Generated/DIGITAL_IO\digital_io.h ****  * ENUMS
  89:C:/Workspaces/DAVE-4.4.2-64Bit/_PKDS_TSTS06_923M_X45_V1_8/Dave/Generated/DIGITAL_IO\digital_io.h ****  **************************************************************************************************
  90:C:/Workspaces/DAVE-4.4.2-64Bit/_PKDS_TSTS06_923M_X45_V1_8/Dave/Generated/DIGITAL_IO\digital_io.h **** 
  91:C:/Workspaces/DAVE-4.4.2-64Bit/_PKDS_TSTS06_923M_X45_V1_8/Dave/Generated/DIGITAL_IO\digital_io.h **** /**
  92:C:/Workspaces/DAVE-4.4.2-64Bit/_PKDS_TSTS06_923M_X45_V1_8/Dave/Generated/DIGITAL_IO\digital_io.h **** * @ingroup DIGITAL_IO_enumerations
  93:C:/Workspaces/DAVE-4.4.2-64Bit/_PKDS_TSTS06_923M_X45_V1_8/Dave/Generated/DIGITAL_IO\digital_io.h **** * @{
  94:C:/Workspaces/DAVE-4.4.2-64Bit/_PKDS_TSTS06_923M_X45_V1_8/Dave/Generated/DIGITAL_IO\digital_io.h **** */
  95:C:/Workspaces/DAVE-4.4.2-64Bit/_PKDS_TSTS06_923M_X45_V1_8/Dave/Generated/DIGITAL_IO\digital_io.h **** 
  96:C:/Workspaces/DAVE-4.4.2-64Bit/_PKDS_TSTS06_923M_X45_V1_8/Dave/Generated/DIGITAL_IO\digital_io.h **** /**
  97:C:/Workspaces/DAVE-4.4.2-64Bit/_PKDS_TSTS06_923M_X45_V1_8/Dave/Generated/DIGITAL_IO\digital_io.h **** * @brief Initialization status of DIGITAL_IO APP.
  98:C:/Workspaces/DAVE-4.4.2-64Bit/_PKDS_TSTS06_923M_X45_V1_8/Dave/Generated/DIGITAL_IO\digital_io.h **** */
  99:C:/Workspaces/DAVE-4.4.2-64Bit/_PKDS_TSTS06_923M_X45_V1_8/Dave/Generated/DIGITAL_IO\digital_io.h **** typedef enum DIGITAL_IO_STATUS
 100:C:/Workspaces/DAVE-4.4.2-64Bit/_PKDS_TSTS06_923M_X45_V1_8/Dave/Generated/DIGITAL_IO\digital_io.h **** {
 101:C:/Workspaces/DAVE-4.4.2-64Bit/_PKDS_TSTS06_923M_X45_V1_8/Dave/Generated/DIGITAL_IO\digital_io.h ****   DIGITAL_IO_STATUS_OK = 0U,/**< 0=Status OK */
 102:C:/Workspaces/DAVE-4.4.2-64Bit/_PKDS_TSTS06_923M_X45_V1_8/Dave/Generated/DIGITAL_IO\digital_io.h ****   DIGITAL_IO_STATUS_FAILURE = 1U/**< 1=Status Failed */
 103:C:/Workspaces/DAVE-4.4.2-64Bit/_PKDS_TSTS06_923M_X45_V1_8/Dave/Generated/DIGITAL_IO\digital_io.h **** } DIGITAL_IO_STATUS_t;
 104:C:/Workspaces/DAVE-4.4.2-64Bit/_PKDS_TSTS06_923M_X45_V1_8/Dave/Generated/DIGITAL_IO\digital_io.h **** 
 105:C:/Workspaces/DAVE-4.4.2-64Bit/_PKDS_TSTS06_923M_X45_V1_8/Dave/Generated/DIGITAL_IO\digital_io.h **** /**
 106:C:/Workspaces/DAVE-4.4.2-64Bit/_PKDS_TSTS06_923M_X45_V1_8/Dave/Generated/DIGITAL_IO\digital_io.h **** * @}
 107:C:/Workspaces/DAVE-4.4.2-64Bit/_PKDS_TSTS06_923M_X45_V1_8/Dave/Generated/DIGITAL_IO\digital_io.h **** */
 108:C:/Workspaces/DAVE-4.4.2-64Bit/_PKDS_TSTS06_923M_X45_V1_8/Dave/Generated/DIGITAL_IO\digital_io.h **** 
 109:C:/Workspaces/DAVE-4.4.2-64Bit/_PKDS_TSTS06_923M_X45_V1_8/Dave/Generated/DIGITAL_IO\digital_io.h **** /**************************************************************************************************
 110:C:/Workspaces/DAVE-4.4.2-64Bit/_PKDS_TSTS06_923M_X45_V1_8/Dave/Generated/DIGITAL_IO\digital_io.h ****  * DATA STRUCTURES
 111:C:/Workspaces/DAVE-4.4.2-64Bit/_PKDS_TSTS06_923M_X45_V1_8/Dave/Generated/DIGITAL_IO\digital_io.h ****  **************************************************************************************************
 112:C:/Workspaces/DAVE-4.4.2-64Bit/_PKDS_TSTS06_923M_X45_V1_8/Dave/Generated/DIGITAL_IO\digital_io.h **** /**
 113:C:/Workspaces/DAVE-4.4.2-64Bit/_PKDS_TSTS06_923M_X45_V1_8/Dave/Generated/DIGITAL_IO\digital_io.h **** * @ingroup DIGITAL_IO_datastructures
 114:C:/Workspaces/DAVE-4.4.2-64Bit/_PKDS_TSTS06_923M_X45_V1_8/Dave/Generated/DIGITAL_IO\digital_io.h **** * @{
 115:C:/Workspaces/DAVE-4.4.2-64Bit/_PKDS_TSTS06_923M_X45_V1_8/Dave/Generated/DIGITAL_IO\digital_io.h **** */
 116:C:/Workspaces/DAVE-4.4.2-64Bit/_PKDS_TSTS06_923M_X45_V1_8/Dave/Generated/DIGITAL_IO\digital_io.h **** 
 117:C:/Workspaces/DAVE-4.4.2-64Bit/_PKDS_TSTS06_923M_X45_V1_8/Dave/Generated/DIGITAL_IO\digital_io.h **** /**
 118:C:/Workspaces/DAVE-4.4.2-64Bit/_PKDS_TSTS06_923M_X45_V1_8/Dave/Generated/DIGITAL_IO\digital_io.h **** * @brief Initialization data structure of DIGITAL_IO APP
 119:C:/Workspaces/DAVE-4.4.2-64Bit/_PKDS_TSTS06_923M_X45_V1_8/Dave/Generated/DIGITAL_IO\digital_io.h **** */
 120:C:/Workspaces/DAVE-4.4.2-64Bit/_PKDS_TSTS06_923M_X45_V1_8/Dave/Generated/DIGITAL_IO\digital_io.h **** typedef struct DIGITAL_IO
 121:C:/Workspaces/DAVE-4.4.2-64Bit/_PKDS_TSTS06_923M_X45_V1_8/Dave/Generated/DIGITAL_IO\digital_io.h **** {
 122:C:/Workspaces/DAVE-4.4.2-64Bit/_PKDS_TSTS06_923M_X45_V1_8/Dave/Generated/DIGITAL_IO\digital_io.h ****   XMC_GPIO_PORT_t *const gpio_port;             /**< port number */
 123:C:/Workspaces/DAVE-4.4.2-64Bit/_PKDS_TSTS06_923M_X45_V1_8/Dave/Generated/DIGITAL_IO\digital_io.h ****   const XMC_GPIO_CONFIG_t gpio_config;          /**< mode, initial output level and pad driver stre
 124:C:/Workspaces/DAVE-4.4.2-64Bit/_PKDS_TSTS06_923M_X45_V1_8/Dave/Generated/DIGITAL_IO\digital_io.h ****   const uint8_t gpio_pin;                       /**< pin number */
 125:C:/Workspaces/DAVE-4.4.2-64Bit/_PKDS_TSTS06_923M_X45_V1_8/Dave/Generated/DIGITAL_IO\digital_io.h ****   const XMC_GPIO_HWCTRL_t hwctrl;               /**< Hardware port control */
 126:C:/Workspaces/DAVE-4.4.2-64Bit/_PKDS_TSTS06_923M_X45_V1_8/Dave/Generated/DIGITAL_IO\digital_io.h **** } DIGITAL_IO_t;
 127:C:/Workspaces/DAVE-4.4.2-64Bit/_PKDS_TSTS06_923M_X45_V1_8/Dave/Generated/DIGITAL_IO\digital_io.h **** 
 128:C:/Workspaces/DAVE-4.4.2-64Bit/_PKDS_TSTS06_923M_X45_V1_8/Dave/Generated/DIGITAL_IO\digital_io.h **** 
 129:C:/Workspaces/DAVE-4.4.2-64Bit/_PKDS_TSTS06_923M_X45_V1_8/Dave/Generated/DIGITAL_IO\digital_io.h **** /**
 130:C:/Workspaces/DAVE-4.4.2-64Bit/_PKDS_TSTS06_923M_X45_V1_8/Dave/Generated/DIGITAL_IO\digital_io.h **** * @}
 131:C:/Workspaces/DAVE-4.4.2-64Bit/_PKDS_TSTS06_923M_X45_V1_8/Dave/Generated/DIGITAL_IO\digital_io.h **** */
 132:C:/Workspaces/DAVE-4.4.2-64Bit/_PKDS_TSTS06_923M_X45_V1_8/Dave/Generated/DIGITAL_IO\digital_io.h **** 
 133:C:/Workspaces/DAVE-4.4.2-64Bit/_PKDS_TSTS06_923M_X45_V1_8/Dave/Generated/DIGITAL_IO\digital_io.h **** 
 134:C:/Workspaces/DAVE-4.4.2-64Bit/_PKDS_TSTS06_923M_X45_V1_8/Dave/Generated/DIGITAL_IO\digital_io.h **** /**************************************************************************************************
 135:C:/Workspaces/DAVE-4.4.2-64Bit/_PKDS_TSTS06_923M_X45_V1_8/Dave/Generated/DIGITAL_IO\digital_io.h ****  * API Prototypes
 136:C:/Workspaces/DAVE-4.4.2-64Bit/_PKDS_TSTS06_923M_X45_V1_8/Dave/Generated/DIGITAL_IO\digital_io.h ****  **************************************************************************************************
 137:C:/Workspaces/DAVE-4.4.2-64Bit/_PKDS_TSTS06_923M_X45_V1_8/Dave/Generated/DIGITAL_IO\digital_io.h **** 
 138:C:/Workspaces/DAVE-4.4.2-64Bit/_PKDS_TSTS06_923M_X45_V1_8/Dave/Generated/DIGITAL_IO\digital_io.h **** 
 139:C:/Workspaces/DAVE-4.4.2-64Bit/_PKDS_TSTS06_923M_X45_V1_8/Dave/Generated/DIGITAL_IO\digital_io.h **** #ifdef __cplusplus
 140:C:/Workspaces/DAVE-4.4.2-64Bit/_PKDS_TSTS06_923M_X45_V1_8/Dave/Generated/DIGITAL_IO\digital_io.h **** extern "C" {
 141:C:/Workspaces/DAVE-4.4.2-64Bit/_PKDS_TSTS06_923M_X45_V1_8/Dave/Generated/DIGITAL_IO\digital_io.h **** #endif
 142:C:/Workspaces/DAVE-4.4.2-64Bit/_PKDS_TSTS06_923M_X45_V1_8/Dave/Generated/DIGITAL_IO\digital_io.h **** 
 143:C:/Workspaces/DAVE-4.4.2-64Bit/_PKDS_TSTS06_923M_X45_V1_8/Dave/Generated/DIGITAL_IO\digital_io.h **** /**
 144:C:/Workspaces/DAVE-4.4.2-64Bit/_PKDS_TSTS06_923M_X45_V1_8/Dave/Generated/DIGITAL_IO\digital_io.h **** * @ingroup DIGITAL_IO_apidoc
 145:C:/Workspaces/DAVE-4.4.2-64Bit/_PKDS_TSTS06_923M_X45_V1_8/Dave/Generated/DIGITAL_IO\digital_io.h **** * @{
 146:C:/Workspaces/DAVE-4.4.2-64Bit/_PKDS_TSTS06_923M_X45_V1_8/Dave/Generated/DIGITAL_IO\digital_io.h **** */
 147:C:/Workspaces/DAVE-4.4.2-64Bit/_PKDS_TSTS06_923M_X45_V1_8/Dave/Generated/DIGITAL_IO\digital_io.h **** 
 148:C:/Workspaces/DAVE-4.4.2-64Bit/_PKDS_TSTS06_923M_X45_V1_8/Dave/Generated/DIGITAL_IO\digital_io.h **** 
 149:C:/Workspaces/DAVE-4.4.2-64Bit/_PKDS_TSTS06_923M_X45_V1_8/Dave/Generated/DIGITAL_IO\digital_io.h **** 
 150:C:/Workspaces/DAVE-4.4.2-64Bit/_PKDS_TSTS06_923M_X45_V1_8/Dave/Generated/DIGITAL_IO\digital_io.h **** /**
 151:C:/Workspaces/DAVE-4.4.2-64Bit/_PKDS_TSTS06_923M_X45_V1_8/Dave/Generated/DIGITAL_IO\digital_io.h **** * @brief Get DIGITAL_IO APP version
 152:C:/Workspaces/DAVE-4.4.2-64Bit/_PKDS_TSTS06_923M_X45_V1_8/Dave/Generated/DIGITAL_IO\digital_io.h **** * @return DAVE_APP_VERSION_t APP version information (major, minor and patch number)
 153:C:/Workspaces/DAVE-4.4.2-64Bit/_PKDS_TSTS06_923M_X45_V1_8/Dave/Generated/DIGITAL_IO\digital_io.h **** *
 154:C:/Workspaces/DAVE-4.4.2-64Bit/_PKDS_TSTS06_923M_X45_V1_8/Dave/Generated/DIGITAL_IO\digital_io.h **** * \par<b>Description: </b><br>
 155:C:/Workspaces/DAVE-4.4.2-64Bit/_PKDS_TSTS06_923M_X45_V1_8/Dave/Generated/DIGITAL_IO\digital_io.h **** * The function can be used to check application software compatibility with a
 156:C:/Workspaces/DAVE-4.4.2-64Bit/_PKDS_TSTS06_923M_X45_V1_8/Dave/Generated/DIGITAL_IO\digital_io.h **** * specific version of the APP.
 157:C:/Workspaces/DAVE-4.4.2-64Bit/_PKDS_TSTS06_923M_X45_V1_8/Dave/Generated/DIGITAL_IO\digital_io.h **** *
 158:C:/Workspaces/DAVE-4.4.2-64Bit/_PKDS_TSTS06_923M_X45_V1_8/Dave/Generated/DIGITAL_IO\digital_io.h **** * Example Usage:
 159:C:/Workspaces/DAVE-4.4.2-64Bit/_PKDS_TSTS06_923M_X45_V1_8/Dave/Generated/DIGITAL_IO\digital_io.h **** *
 160:C:/Workspaces/DAVE-4.4.2-64Bit/_PKDS_TSTS06_923M_X45_V1_8/Dave/Generated/DIGITAL_IO\digital_io.h **** * @code
 161:C:/Workspaces/DAVE-4.4.2-64Bit/_PKDS_TSTS06_923M_X45_V1_8/Dave/Generated/DIGITAL_IO\digital_io.h **** * #include "DAVE.h"
 162:C:/Workspaces/DAVE-4.4.2-64Bit/_PKDS_TSTS06_923M_X45_V1_8/Dave/Generated/DIGITAL_IO\digital_io.h **** *
 163:C:/Workspaces/DAVE-4.4.2-64Bit/_PKDS_TSTS06_923M_X45_V1_8/Dave/Generated/DIGITAL_IO\digital_io.h **** * int main(void)
 164:C:/Workspaces/DAVE-4.4.2-64Bit/_PKDS_TSTS06_923M_X45_V1_8/Dave/Generated/DIGITAL_IO\digital_io.h **** * {
 165:C:/Workspaces/DAVE-4.4.2-64Bit/_PKDS_TSTS06_923M_X45_V1_8/Dave/Generated/DIGITAL_IO\digital_io.h **** *   DAVE_STATUS_t init_status;
 166:C:/Workspaces/DAVE-4.4.2-64Bit/_PKDS_TSTS06_923M_X45_V1_8/Dave/Generated/DIGITAL_IO\digital_io.h **** *   DAVE_APP_VERSION_t version;
 167:C:/Workspaces/DAVE-4.4.2-64Bit/_PKDS_TSTS06_923M_X45_V1_8/Dave/Generated/DIGITAL_IO\digital_io.h **** *
 168:C:/Workspaces/DAVE-4.4.2-64Bit/_PKDS_TSTS06_923M_X45_V1_8/Dave/Generated/DIGITAL_IO\digital_io.h **** *   // Initialize DIGITAL_IO APP:
 169:C:/Workspaces/DAVE-4.4.2-64Bit/_PKDS_TSTS06_923M_X45_V1_8/Dave/Generated/DIGITAL_IO\digital_io.h **** *   // DIGITAL_IO_Init() is called from within DAVE_Init().
 170:C:/Workspaces/DAVE-4.4.2-64Bit/_PKDS_TSTS06_923M_X45_V1_8/Dave/Generated/DIGITAL_IO\digital_io.h **** *   init_status = DAVE_Init();
 171:C:/Workspaces/DAVE-4.4.2-64Bit/_PKDS_TSTS06_923M_X45_V1_8/Dave/Generated/DIGITAL_IO\digital_io.h **** *   if(init_status == DAVE_STATUS_SUCCESS)
 172:C:/Workspaces/DAVE-4.4.2-64Bit/_PKDS_TSTS06_923M_X45_V1_8/Dave/Generated/DIGITAL_IO\digital_io.h **** *   {
 173:C:/Workspaces/DAVE-4.4.2-64Bit/_PKDS_TSTS06_923M_X45_V1_8/Dave/Generated/DIGITAL_IO\digital_io.h **** *     version = DIGITAL_IO_GetAppVersion();
 174:C:/Workspaces/DAVE-4.4.2-64Bit/_PKDS_TSTS06_923M_X45_V1_8/Dave/Generated/DIGITAL_IO\digital_io.h **** *     if (version.major != 4U) {
 175:C:/Workspaces/DAVE-4.4.2-64Bit/_PKDS_TSTS06_923M_X45_V1_8/Dave/Generated/DIGITAL_IO\digital_io.h **** *     // Probably, not the right version.
 176:C:/Workspaces/DAVE-4.4.2-64Bit/_PKDS_TSTS06_923M_X45_V1_8/Dave/Generated/DIGITAL_IO\digital_io.h **** *     }
 177:C:/Workspaces/DAVE-4.4.2-64Bit/_PKDS_TSTS06_923M_X45_V1_8/Dave/Generated/DIGITAL_IO\digital_io.h **** *   }
 178:C:/Workspaces/DAVE-4.4.2-64Bit/_PKDS_TSTS06_923M_X45_V1_8/Dave/Generated/DIGITAL_IO\digital_io.h **** *
 179:C:/Workspaces/DAVE-4.4.2-64Bit/_PKDS_TSTS06_923M_X45_V1_8/Dave/Generated/DIGITAL_IO\digital_io.h **** *     // More code here
 180:C:/Workspaces/DAVE-4.4.2-64Bit/_PKDS_TSTS06_923M_X45_V1_8/Dave/Generated/DIGITAL_IO\digital_io.h **** *     while(1) {
 181:C:/Workspaces/DAVE-4.4.2-64Bit/_PKDS_TSTS06_923M_X45_V1_8/Dave/Generated/DIGITAL_IO\digital_io.h **** *
 182:C:/Workspaces/DAVE-4.4.2-64Bit/_PKDS_TSTS06_923M_X45_V1_8/Dave/Generated/DIGITAL_IO\digital_io.h **** *     }
 183:C:/Workspaces/DAVE-4.4.2-64Bit/_PKDS_TSTS06_923M_X45_V1_8/Dave/Generated/DIGITAL_IO\digital_io.h **** *     return (1);
 184:C:/Workspaces/DAVE-4.4.2-64Bit/_PKDS_TSTS06_923M_X45_V1_8/Dave/Generated/DIGITAL_IO\digital_io.h **** *  }
 185:C:/Workspaces/DAVE-4.4.2-64Bit/_PKDS_TSTS06_923M_X45_V1_8/Dave/Generated/DIGITAL_IO\digital_io.h **** * @endcode<BR>
 186:C:/Workspaces/DAVE-4.4.2-64Bit/_PKDS_TSTS06_923M_X45_V1_8/Dave/Generated/DIGITAL_IO\digital_io.h **** */
 187:C:/Workspaces/DAVE-4.4.2-64Bit/_PKDS_TSTS06_923M_X45_V1_8/Dave/Generated/DIGITAL_IO\digital_io.h **** 
 188:C:/Workspaces/DAVE-4.4.2-64Bit/_PKDS_TSTS06_923M_X45_V1_8/Dave/Generated/DIGITAL_IO\digital_io.h **** DAVE_APP_VERSION_t DIGITAL_IO_GetAppVersion(void);
 189:C:/Workspaces/DAVE-4.4.2-64Bit/_PKDS_TSTS06_923M_X45_V1_8/Dave/Generated/DIGITAL_IO\digital_io.h **** 
 190:C:/Workspaces/DAVE-4.4.2-64Bit/_PKDS_TSTS06_923M_X45_V1_8/Dave/Generated/DIGITAL_IO\digital_io.h **** /**
 191:C:/Workspaces/DAVE-4.4.2-64Bit/_PKDS_TSTS06_923M_X45_V1_8/Dave/Generated/DIGITAL_IO\digital_io.h **** *
 192:C:/Workspaces/DAVE-4.4.2-64Bit/_PKDS_TSTS06_923M_X45_V1_8/Dave/Generated/DIGITAL_IO\digital_io.h **** * @brief Function to initialize the port pin as per UI settings.
 193:C:/Workspaces/DAVE-4.4.2-64Bit/_PKDS_TSTS06_923M_X45_V1_8/Dave/Generated/DIGITAL_IO\digital_io.h **** * @param handler Pointer pointing to APP data structure. Refer @ref DIGITAL_IO_t for details.
 194:C:/Workspaces/DAVE-4.4.2-64Bit/_PKDS_TSTS06_923M_X45_V1_8/Dave/Generated/DIGITAL_IO\digital_io.h **** * @return DIGITAL_IO_STATUS_t DIGITAL_IO APP status. Refer @ref DIGITAL_IO_STATUS_t structure for d
 195:C:/Workspaces/DAVE-4.4.2-64Bit/_PKDS_TSTS06_923M_X45_V1_8/Dave/Generated/DIGITAL_IO\digital_io.h **** *
 196:C:/Workspaces/DAVE-4.4.2-64Bit/_PKDS_TSTS06_923M_X45_V1_8/Dave/Generated/DIGITAL_IO\digital_io.h **** * \par<b>Description:</b><br>
 197:C:/Workspaces/DAVE-4.4.2-64Bit/_PKDS_TSTS06_923M_X45_V1_8/Dave/Generated/DIGITAL_IO\digital_io.h **** * This function initializes GPIO port registers IOCR,PDISC,OMR,PDR/PHCR to configure pin direction,
 198:C:/Workspaces/DAVE-4.4.2-64Bit/_PKDS_TSTS06_923M_X45_V1_8/Dave/Generated/DIGITAL_IO\digital_io.h **** * and pad driver strength/hysteresis.
 199:C:/Workspaces/DAVE-4.4.2-64Bit/_PKDS_TSTS06_923M_X45_V1_8/Dave/Generated/DIGITAL_IO\digital_io.h **** *
 200:C:/Workspaces/DAVE-4.4.2-64Bit/_PKDS_TSTS06_923M_X45_V1_8/Dave/Generated/DIGITAL_IO\digital_io.h **** * \par<b>Related APIs:</b><BR>
 201:C:/Workspaces/DAVE-4.4.2-64Bit/_PKDS_TSTS06_923M_X45_V1_8/Dave/Generated/DIGITAL_IO\digital_io.h **** * None
 202:C:/Workspaces/DAVE-4.4.2-64Bit/_PKDS_TSTS06_923M_X45_V1_8/Dave/Generated/DIGITAL_IO\digital_io.h **** *
 203:C:/Workspaces/DAVE-4.4.2-64Bit/_PKDS_TSTS06_923M_X45_V1_8/Dave/Generated/DIGITAL_IO\digital_io.h **** * Example Usage:
 204:C:/Workspaces/DAVE-4.4.2-64Bit/_PKDS_TSTS06_923M_X45_V1_8/Dave/Generated/DIGITAL_IO\digital_io.h **** * @code
 205:C:/Workspaces/DAVE-4.4.2-64Bit/_PKDS_TSTS06_923M_X45_V1_8/Dave/Generated/DIGITAL_IO\digital_io.h **** * #include "DAVE.h" //Declarations from DAVE Code Generation (includes SFR declaration)
 206:C:/Workspaces/DAVE-4.4.2-64Bit/_PKDS_TSTS06_923M_X45_V1_8/Dave/Generated/DIGITAL_IO\digital_io.h **** *
 207:C:/Workspaces/DAVE-4.4.2-64Bit/_PKDS_TSTS06_923M_X45_V1_8/Dave/Generated/DIGITAL_IO\digital_io.h **** * int main(void)
 208:C:/Workspaces/DAVE-4.4.2-64Bit/_PKDS_TSTS06_923M_X45_V1_8/Dave/Generated/DIGITAL_IO\digital_io.h **** * {
 209:C:/Workspaces/DAVE-4.4.2-64Bit/_PKDS_TSTS06_923M_X45_V1_8/Dave/Generated/DIGITAL_IO\digital_io.h **** *   DAVE_STATUS_t status;
 210:C:/Workspaces/DAVE-4.4.2-64Bit/_PKDS_TSTS06_923M_X45_V1_8/Dave/Generated/DIGITAL_IO\digital_io.h **** *   status = DAVE_Init();  //(DAVE_STATUS_t)DIGITAL_IO_Init(&DIGITAL_IO_0) is called within DAVE_In
 211:C:/Workspaces/DAVE-4.4.2-64Bit/_PKDS_TSTS06_923M_X45_V1_8/Dave/Generated/DIGITAL_IO\digital_io.h **** *   if(status == DAVE_STATUS_SUCCESS)
 212:C:/Workspaces/DAVE-4.4.2-64Bit/_PKDS_TSTS06_923M_X45_V1_8/Dave/Generated/DIGITAL_IO\digital_io.h **** *   {
 213:C:/Workspaces/DAVE-4.4.2-64Bit/_PKDS_TSTS06_923M_X45_V1_8/Dave/Generated/DIGITAL_IO\digital_io.h **** *     XMC_DEBUG("DAVE Apps initialization success\n");
 214:C:/Workspaces/DAVE-4.4.2-64Bit/_PKDS_TSTS06_923M_X45_V1_8/Dave/Generated/DIGITAL_IO\digital_io.h **** *   }
 215:C:/Workspaces/DAVE-4.4.2-64Bit/_PKDS_TSTS06_923M_X45_V1_8/Dave/Generated/DIGITAL_IO\digital_io.h **** *   else
 216:C:/Workspaces/DAVE-4.4.2-64Bit/_PKDS_TSTS06_923M_X45_V1_8/Dave/Generated/DIGITAL_IO\digital_io.h **** *   {
 217:C:/Workspaces/DAVE-4.4.2-64Bit/_PKDS_TSTS06_923M_X45_V1_8/Dave/Generated/DIGITAL_IO\digital_io.h **** *     XMC_DEBUG(("DAVE Apps initialization failed with status %d\n", status));
 218:C:/Workspaces/DAVE-4.4.2-64Bit/_PKDS_TSTS06_923M_X45_V1_8/Dave/Generated/DIGITAL_IO\digital_io.h **** *     while(1U)
 219:C:/Workspaces/DAVE-4.4.2-64Bit/_PKDS_TSTS06_923M_X45_V1_8/Dave/Generated/DIGITAL_IO\digital_io.h **** *     {
 220:C:/Workspaces/DAVE-4.4.2-64Bit/_PKDS_TSTS06_923M_X45_V1_8/Dave/Generated/DIGITAL_IO\digital_io.h **** *     }
 221:C:/Workspaces/DAVE-4.4.2-64Bit/_PKDS_TSTS06_923M_X45_V1_8/Dave/Generated/DIGITAL_IO\digital_io.h **** *   }
 222:C:/Workspaces/DAVE-4.4.2-64Bit/_PKDS_TSTS06_923M_X45_V1_8/Dave/Generated/DIGITAL_IO\digital_io.h **** *   //Placeholder for user application code. The while loop below can be replaced with user applica
 223:C:/Workspaces/DAVE-4.4.2-64Bit/_PKDS_TSTS06_923M_X45_V1_8/Dave/Generated/DIGITAL_IO\digital_io.h **** *   while(1U)
 224:C:/Workspaces/DAVE-4.4.2-64Bit/_PKDS_TSTS06_923M_X45_V1_8/Dave/Generated/DIGITAL_IO\digital_io.h **** *   {
 225:C:/Workspaces/DAVE-4.4.2-64Bit/_PKDS_TSTS06_923M_X45_V1_8/Dave/Generated/DIGITAL_IO\digital_io.h **** *   }
 226:C:/Workspaces/DAVE-4.4.2-64Bit/_PKDS_TSTS06_923M_X45_V1_8/Dave/Generated/DIGITAL_IO\digital_io.h **** *   return 1U;
 227:C:/Workspaces/DAVE-4.4.2-64Bit/_PKDS_TSTS06_923M_X45_V1_8/Dave/Generated/DIGITAL_IO\digital_io.h **** *  }
 228:C:/Workspaces/DAVE-4.4.2-64Bit/_PKDS_TSTS06_923M_X45_V1_8/Dave/Generated/DIGITAL_IO\digital_io.h **** *  @endcode
 229:C:/Workspaces/DAVE-4.4.2-64Bit/_PKDS_TSTS06_923M_X45_V1_8/Dave/Generated/DIGITAL_IO\digital_io.h **** */
 230:C:/Workspaces/DAVE-4.4.2-64Bit/_PKDS_TSTS06_923M_X45_V1_8/Dave/Generated/DIGITAL_IO\digital_io.h **** 
 231:C:/Workspaces/DAVE-4.4.2-64Bit/_PKDS_TSTS06_923M_X45_V1_8/Dave/Generated/DIGITAL_IO\digital_io.h **** DIGITAL_IO_STATUS_t DIGITAL_IO_Init(const DIGITAL_IO_t *const handler);
 232:C:/Workspaces/DAVE-4.4.2-64Bit/_PKDS_TSTS06_923M_X45_V1_8/Dave/Generated/DIGITAL_IO\digital_io.h **** 
 233:C:/Workspaces/DAVE-4.4.2-64Bit/_PKDS_TSTS06_923M_X45_V1_8/Dave/Generated/DIGITAL_IO\digital_io.h **** /**
 234:C:/Workspaces/DAVE-4.4.2-64Bit/_PKDS_TSTS06_923M_X45_V1_8/Dave/Generated/DIGITAL_IO\digital_io.h **** *
 235:C:/Workspaces/DAVE-4.4.2-64Bit/_PKDS_TSTS06_923M_X45_V1_8/Dave/Generated/DIGITAL_IO\digital_io.h **** * @brief Function to set port pin high.
 236:C:/Workspaces/DAVE-4.4.2-64Bit/_PKDS_TSTS06_923M_X45_V1_8/Dave/Generated/DIGITAL_IO\digital_io.h **** * @param handler Pointer pointing to APP data structure. Refer @ref DIGITAL_IO_t for details.
 237:C:/Workspaces/DAVE-4.4.2-64Bit/_PKDS_TSTS06_923M_X45_V1_8/Dave/Generated/DIGITAL_IO\digital_io.h **** * @return None
 238:C:/Workspaces/DAVE-4.4.2-64Bit/_PKDS_TSTS06_923M_X45_V1_8/Dave/Generated/DIGITAL_IO\digital_io.h **** *
 239:C:/Workspaces/DAVE-4.4.2-64Bit/_PKDS_TSTS06_923M_X45_V1_8/Dave/Generated/DIGITAL_IO\digital_io.h **** * \par<b>Description:</b><br>
 240:C:/Workspaces/DAVE-4.4.2-64Bit/_PKDS_TSTS06_923M_X45_V1_8/Dave/Generated/DIGITAL_IO\digital_io.h **** * This function configures port output modification register Pn_OMR, to make port pin to high level
 241:C:/Workspaces/DAVE-4.4.2-64Bit/_PKDS_TSTS06_923M_X45_V1_8/Dave/Generated/DIGITAL_IO\digital_io.h **** *
 242:C:/Workspaces/DAVE-4.4.2-64Bit/_PKDS_TSTS06_923M_X45_V1_8/Dave/Generated/DIGITAL_IO\digital_io.h **** * \par<b>Related APIs:</b><BR>
 243:C:/Workspaces/DAVE-4.4.2-64Bit/_PKDS_TSTS06_923M_X45_V1_8/Dave/Generated/DIGITAL_IO\digital_io.h **** *  DIGITAL_IO_SetOutputLow()
 244:C:/Workspaces/DAVE-4.4.2-64Bit/_PKDS_TSTS06_923M_X45_V1_8/Dave/Generated/DIGITAL_IO\digital_io.h **** *
 245:C:/Workspaces/DAVE-4.4.2-64Bit/_PKDS_TSTS06_923M_X45_V1_8/Dave/Generated/DIGITAL_IO\digital_io.h **** * Example Usage:
 246:C:/Workspaces/DAVE-4.4.2-64Bit/_PKDS_TSTS06_923M_X45_V1_8/Dave/Generated/DIGITAL_IO\digital_io.h **** * @code
 247:C:/Workspaces/DAVE-4.4.2-64Bit/_PKDS_TSTS06_923M_X45_V1_8/Dave/Generated/DIGITAL_IO\digital_io.h **** * #include "DAVE.h" //Declarations from DAVE Code Generation (includes SFR declaration)
 248:C:/Workspaces/DAVE-4.4.2-64Bit/_PKDS_TSTS06_923M_X45_V1_8/Dave/Generated/DIGITAL_IO\digital_io.h **** *
 249:C:/Workspaces/DAVE-4.4.2-64Bit/_PKDS_TSTS06_923M_X45_V1_8/Dave/Generated/DIGITAL_IO\digital_io.h **** * int main(void)
 250:C:/Workspaces/DAVE-4.4.2-64Bit/_PKDS_TSTS06_923M_X45_V1_8/Dave/Generated/DIGITAL_IO\digital_io.h **** * {
 251:C:/Workspaces/DAVE-4.4.2-64Bit/_PKDS_TSTS06_923M_X45_V1_8/Dave/Generated/DIGITAL_IO\digital_io.h **** *   DAVE_STATUS_t status;
 252:C:/Workspaces/DAVE-4.4.2-64Bit/_PKDS_TSTS06_923M_X45_V1_8/Dave/Generated/DIGITAL_IO\digital_io.h **** *   status = DAVE_Init();  //(DAVE_STATUS_t)DIGITAL_IO_Init(&DIGITAL_IO_0) is called within DAVE_In
 253:C:/Workspaces/DAVE-4.4.2-64Bit/_PKDS_TSTS06_923M_X45_V1_8/Dave/Generated/DIGITAL_IO\digital_io.h **** *   if(status == DAVE_STATUS_SUCCESS)
 254:C:/Workspaces/DAVE-4.4.2-64Bit/_PKDS_TSTS06_923M_X45_V1_8/Dave/Generated/DIGITAL_IO\digital_io.h **** *   {
 255:C:/Workspaces/DAVE-4.4.2-64Bit/_PKDS_TSTS06_923M_X45_V1_8/Dave/Generated/DIGITAL_IO\digital_io.h **** *     XMC_DEBUG("DAVE Apps initialization success\n");
 256:C:/Workspaces/DAVE-4.4.2-64Bit/_PKDS_TSTS06_923M_X45_V1_8/Dave/Generated/DIGITAL_IO\digital_io.h **** *   }
 257:C:/Workspaces/DAVE-4.4.2-64Bit/_PKDS_TSTS06_923M_X45_V1_8/Dave/Generated/DIGITAL_IO\digital_io.h **** *   else
 258:C:/Workspaces/DAVE-4.4.2-64Bit/_PKDS_TSTS06_923M_X45_V1_8/Dave/Generated/DIGITAL_IO\digital_io.h **** *   {
 259:C:/Workspaces/DAVE-4.4.2-64Bit/_PKDS_TSTS06_923M_X45_V1_8/Dave/Generated/DIGITAL_IO\digital_io.h **** *     XMC_DEBUG(("DAVE Apps initialization failed with status %d\n", status));
 260:C:/Workspaces/DAVE-4.4.2-64Bit/_PKDS_TSTS06_923M_X45_V1_8/Dave/Generated/DIGITAL_IO\digital_io.h **** *     while(1U)
 261:C:/Workspaces/DAVE-4.4.2-64Bit/_PKDS_TSTS06_923M_X45_V1_8/Dave/Generated/DIGITAL_IO\digital_io.h **** *     {
 262:C:/Workspaces/DAVE-4.4.2-64Bit/_PKDS_TSTS06_923M_X45_V1_8/Dave/Generated/DIGITAL_IO\digital_io.h **** *     }
 263:C:/Workspaces/DAVE-4.4.2-64Bit/_PKDS_TSTS06_923M_X45_V1_8/Dave/Generated/DIGITAL_IO\digital_io.h **** *   }
 264:C:/Workspaces/DAVE-4.4.2-64Bit/_PKDS_TSTS06_923M_X45_V1_8/Dave/Generated/DIGITAL_IO\digital_io.h **** *   //Placeholder for user application code. The while loop below can be replaced with user applica
 265:C:/Workspaces/DAVE-4.4.2-64Bit/_PKDS_TSTS06_923M_X45_V1_8/Dave/Generated/DIGITAL_IO\digital_io.h **** *   DIGITAL_IO_SetOutputHigh(&DIGITAL_IO_0);
 266:C:/Workspaces/DAVE-4.4.2-64Bit/_PKDS_TSTS06_923M_X45_V1_8/Dave/Generated/DIGITAL_IO\digital_io.h **** *   while(1U)
 267:C:/Workspaces/DAVE-4.4.2-64Bit/_PKDS_TSTS06_923M_X45_V1_8/Dave/Generated/DIGITAL_IO\digital_io.h **** *   {
 268:C:/Workspaces/DAVE-4.4.2-64Bit/_PKDS_TSTS06_923M_X45_V1_8/Dave/Generated/DIGITAL_IO\digital_io.h **** *     // Add application code here
 269:C:/Workspaces/DAVE-4.4.2-64Bit/_PKDS_TSTS06_923M_X45_V1_8/Dave/Generated/DIGITAL_IO\digital_io.h **** *   }
 270:C:/Workspaces/DAVE-4.4.2-64Bit/_PKDS_TSTS06_923M_X45_V1_8/Dave/Generated/DIGITAL_IO\digital_io.h **** *
 271:C:/Workspaces/DAVE-4.4.2-64Bit/_PKDS_TSTS06_923M_X45_V1_8/Dave/Generated/DIGITAL_IO\digital_io.h **** *   return (1);
 272:C:/Workspaces/DAVE-4.4.2-64Bit/_PKDS_TSTS06_923M_X45_V1_8/Dave/Generated/DIGITAL_IO\digital_io.h **** * }
 273:C:/Workspaces/DAVE-4.4.2-64Bit/_PKDS_TSTS06_923M_X45_V1_8/Dave/Generated/DIGITAL_IO\digital_io.h **** *  @endcode
 274:C:/Workspaces/DAVE-4.4.2-64Bit/_PKDS_TSTS06_923M_X45_V1_8/Dave/Generated/DIGITAL_IO\digital_io.h **** */
 275:C:/Workspaces/DAVE-4.4.2-64Bit/_PKDS_TSTS06_923M_X45_V1_8/Dave/Generated/DIGITAL_IO\digital_io.h **** 
 276:C:/Workspaces/DAVE-4.4.2-64Bit/_PKDS_TSTS06_923M_X45_V1_8/Dave/Generated/DIGITAL_IO\digital_io.h **** __STATIC_INLINE void DIGITAL_IO_SetOutputHigh(const DIGITAL_IO_t *const handler)
 277:C:/Workspaces/DAVE-4.4.2-64Bit/_PKDS_TSTS06_923M_X45_V1_8/Dave/Generated/DIGITAL_IO\digital_io.h **** {
 181              	 .loc 2 277 1
 182              	 .cfi_startproc
 183              	 
 184              	 
 185 0000 80B5     	 push {r7,lr}
 186              	.LCFI18:
 187              	 .cfi_def_cfa_offset 8
 188              	 .cfi_offset 7,-8
 189              	 .cfi_offset 14,-4
 190 0002 82B0     	 sub sp,sp,#8
 191              	.LCFI19:
 192              	 .cfi_def_cfa_offset 16
 193 0004 00AF     	 add r7,sp,#0
 194              	.LCFI20:
 195              	 .cfi_def_cfa_register 7
 196 0006 7860     	 str r0,[r7,#4]
 278:C:/Workspaces/DAVE-4.4.2-64Bit/_PKDS_TSTS06_923M_X45_V1_8/Dave/Generated/DIGITAL_IO\digital_io.h ****   XMC_ASSERT("DIGITAL_IO_SetOutputHigh: handler null pointer", handler != NULL);
 279:C:/Workspaces/DAVE-4.4.2-64Bit/_PKDS_TSTS06_923M_X45_V1_8/Dave/Generated/DIGITAL_IO\digital_io.h ****   XMC_GPIO_SetOutputHigh(handler->gpio_port, handler->gpio_pin);
 197              	 .loc 2 279 3
 198 0008 7B68     	 ldr r3,[r7,#4]
 199 000a 1A68     	 ldr r2,[r3]
 200 000c 7B68     	 ldr r3,[r7,#4]
 201 000e 1B7C     	 ldrb r3,[r3,#16]
 202 0010 1946     	 mov r1,r3
 203 0012 1046     	 mov r0,r2
 204 0014 FFF7FEFF 	 bl XMC_GPIO_SetOutputHigh
 280:C:/Workspaces/DAVE-4.4.2-64Bit/_PKDS_TSTS06_923M_X45_V1_8/Dave/Generated/DIGITAL_IO\digital_io.h **** }
 205              	 .loc 2 280 1
 206 0018 00BF     	 nop
 207 001a 0837     	 adds r7,r7,#8
 208              	.LCFI21:
 209              	 .cfi_def_cfa_offset 8
 210 001c BD46     	 mov sp,r7
 211              	.LCFI22:
 212              	 .cfi_def_cfa_register 13
 213              	 
 214 001e 80BD     	 pop {r7,pc}
 215              	 .cfi_endproc
 216              	.LFE143:
 218              	 .section .text.DIGITAL_IO_SetOutputLow,"ax",%progbits
 219              	 .align 1
 220              	 .syntax unified
 221              	 .thumb
 222              	 .thumb_func
 223              	 .fpu fpv4-sp-d16
 225              	DIGITAL_IO_SetOutputLow:
 226              	.LFB144:
 281:C:/Workspaces/DAVE-4.4.2-64Bit/_PKDS_TSTS06_923M_X45_V1_8/Dave/Generated/DIGITAL_IO\digital_io.h **** 
 282:C:/Workspaces/DAVE-4.4.2-64Bit/_PKDS_TSTS06_923M_X45_V1_8/Dave/Generated/DIGITAL_IO\digital_io.h **** /**
 283:C:/Workspaces/DAVE-4.4.2-64Bit/_PKDS_TSTS06_923M_X45_V1_8/Dave/Generated/DIGITAL_IO\digital_io.h **** * @brief Function to reset port pin.
 284:C:/Workspaces/DAVE-4.4.2-64Bit/_PKDS_TSTS06_923M_X45_V1_8/Dave/Generated/DIGITAL_IO\digital_io.h **** * @param handler Pointer pointing to APP data structure. Refer @ref DIGITAL_IO_t for details.
 285:C:/Workspaces/DAVE-4.4.2-64Bit/_PKDS_TSTS06_923M_X45_V1_8/Dave/Generated/DIGITAL_IO\digital_io.h **** * @return None
 286:C:/Workspaces/DAVE-4.4.2-64Bit/_PKDS_TSTS06_923M_X45_V1_8/Dave/Generated/DIGITAL_IO\digital_io.h **** *
 287:C:/Workspaces/DAVE-4.4.2-64Bit/_PKDS_TSTS06_923M_X45_V1_8/Dave/Generated/DIGITAL_IO\digital_io.h **** * \par<b>Description:</b><br>
 288:C:/Workspaces/DAVE-4.4.2-64Bit/_PKDS_TSTS06_923M_X45_V1_8/Dave/Generated/DIGITAL_IO\digital_io.h **** * This function configures port output modification register Pn_OMR, to make port pin to low level.
 289:C:/Workspaces/DAVE-4.4.2-64Bit/_PKDS_TSTS06_923M_X45_V1_8/Dave/Generated/DIGITAL_IO\digital_io.h **** *
 290:C:/Workspaces/DAVE-4.4.2-64Bit/_PKDS_TSTS06_923M_X45_V1_8/Dave/Generated/DIGITAL_IO\digital_io.h **** * \par<b>Related APIs:</b><BR>
 291:C:/Workspaces/DAVE-4.4.2-64Bit/_PKDS_TSTS06_923M_X45_V1_8/Dave/Generated/DIGITAL_IO\digital_io.h **** * DIGITAL_IO_SetOutputHigh()
 292:C:/Workspaces/DAVE-4.4.2-64Bit/_PKDS_TSTS06_923M_X45_V1_8/Dave/Generated/DIGITAL_IO\digital_io.h **** *
 293:C:/Workspaces/DAVE-4.4.2-64Bit/_PKDS_TSTS06_923M_X45_V1_8/Dave/Generated/DIGITAL_IO\digital_io.h **** * Example Usage:
 294:C:/Workspaces/DAVE-4.4.2-64Bit/_PKDS_TSTS06_923M_X45_V1_8/Dave/Generated/DIGITAL_IO\digital_io.h **** * @code
 295:C:/Workspaces/DAVE-4.4.2-64Bit/_PKDS_TSTS06_923M_X45_V1_8/Dave/Generated/DIGITAL_IO\digital_io.h **** *  #include "DAVE.h" //Declarations from DAVE Code Generation (includes SFR declaration)
 296:C:/Workspaces/DAVE-4.4.2-64Bit/_PKDS_TSTS06_923M_X45_V1_8/Dave/Generated/DIGITAL_IO\digital_io.h **** *
 297:C:/Workspaces/DAVE-4.4.2-64Bit/_PKDS_TSTS06_923M_X45_V1_8/Dave/Generated/DIGITAL_IO\digital_io.h **** *  int main(void)
 298:C:/Workspaces/DAVE-4.4.2-64Bit/_PKDS_TSTS06_923M_X45_V1_8/Dave/Generated/DIGITAL_IO\digital_io.h **** *  {
 299:C:/Workspaces/DAVE-4.4.2-64Bit/_PKDS_TSTS06_923M_X45_V1_8/Dave/Generated/DIGITAL_IO\digital_io.h **** *    DAVE_STATUS_t status;
 300:C:/Workspaces/DAVE-4.4.2-64Bit/_PKDS_TSTS06_923M_X45_V1_8/Dave/Generated/DIGITAL_IO\digital_io.h **** *    status = DAVE_Init();  //(DAVE_STATUS_t)DIGITAL_IO_Init(&DIGITAL_IO_0) is called within DAVE_I
 301:C:/Workspaces/DAVE-4.4.2-64Bit/_PKDS_TSTS06_923M_X45_V1_8/Dave/Generated/DIGITAL_IO\digital_io.h **** *    if(status == DAVE_STATUS_SUCCESS)
 302:C:/Workspaces/DAVE-4.4.2-64Bit/_PKDS_TSTS06_923M_X45_V1_8/Dave/Generated/DIGITAL_IO\digital_io.h **** *    {
 303:C:/Workspaces/DAVE-4.4.2-64Bit/_PKDS_TSTS06_923M_X45_V1_8/Dave/Generated/DIGITAL_IO\digital_io.h **** *      XMC_DEBUG("DAVE Apps initialization success\n");
 304:C:/Workspaces/DAVE-4.4.2-64Bit/_PKDS_TSTS06_923M_X45_V1_8/Dave/Generated/DIGITAL_IO\digital_io.h **** *    }
 305:C:/Workspaces/DAVE-4.4.2-64Bit/_PKDS_TSTS06_923M_X45_V1_8/Dave/Generated/DIGITAL_IO\digital_io.h **** *    else
 306:C:/Workspaces/DAVE-4.4.2-64Bit/_PKDS_TSTS06_923M_X45_V1_8/Dave/Generated/DIGITAL_IO\digital_io.h **** *    {
 307:C:/Workspaces/DAVE-4.4.2-64Bit/_PKDS_TSTS06_923M_X45_V1_8/Dave/Generated/DIGITAL_IO\digital_io.h **** *      XMC_DEBUG(("DAVE Apps initialization failed with status %d\n", status));
 308:C:/Workspaces/DAVE-4.4.2-64Bit/_PKDS_TSTS06_923M_X45_V1_8/Dave/Generated/DIGITAL_IO\digital_io.h **** *      while(1U)
 309:C:/Workspaces/DAVE-4.4.2-64Bit/_PKDS_TSTS06_923M_X45_V1_8/Dave/Generated/DIGITAL_IO\digital_io.h **** *      {
 310:C:/Workspaces/DAVE-4.4.2-64Bit/_PKDS_TSTS06_923M_X45_V1_8/Dave/Generated/DIGITAL_IO\digital_io.h **** *      }
 311:C:/Workspaces/DAVE-4.4.2-64Bit/_PKDS_TSTS06_923M_X45_V1_8/Dave/Generated/DIGITAL_IO\digital_io.h **** *    }
 312:C:/Workspaces/DAVE-4.4.2-64Bit/_PKDS_TSTS06_923M_X45_V1_8/Dave/Generated/DIGITAL_IO\digital_io.h **** *    //Placeholder for user application code. The while loop below can be replaced with user applic
 313:C:/Workspaces/DAVE-4.4.2-64Bit/_PKDS_TSTS06_923M_X45_V1_8/Dave/Generated/DIGITAL_IO\digital_io.h **** *    DIGITAL_IO_SetOutputLow(&DIGITAL_IO_0);
 314:C:/Workspaces/DAVE-4.4.2-64Bit/_PKDS_TSTS06_923M_X45_V1_8/Dave/Generated/DIGITAL_IO\digital_io.h **** *    while(1U)
 315:C:/Workspaces/DAVE-4.4.2-64Bit/_PKDS_TSTS06_923M_X45_V1_8/Dave/Generated/DIGITAL_IO\digital_io.h **** *    {
 316:C:/Workspaces/DAVE-4.4.2-64Bit/_PKDS_TSTS06_923M_X45_V1_8/Dave/Generated/DIGITAL_IO\digital_io.h **** *      // Add application code here
 317:C:/Workspaces/DAVE-4.4.2-64Bit/_PKDS_TSTS06_923M_X45_V1_8/Dave/Generated/DIGITAL_IO\digital_io.h **** *    }
 318:C:/Workspaces/DAVE-4.4.2-64Bit/_PKDS_TSTS06_923M_X45_V1_8/Dave/Generated/DIGITAL_IO\digital_io.h **** *
 319:C:/Workspaces/DAVE-4.4.2-64Bit/_PKDS_TSTS06_923M_X45_V1_8/Dave/Generated/DIGITAL_IO\digital_io.h **** *   return (1);
 320:C:/Workspaces/DAVE-4.4.2-64Bit/_PKDS_TSTS06_923M_X45_V1_8/Dave/Generated/DIGITAL_IO\digital_io.h **** * }
 321:C:/Workspaces/DAVE-4.4.2-64Bit/_PKDS_TSTS06_923M_X45_V1_8/Dave/Generated/DIGITAL_IO\digital_io.h **** *  @endcode
 322:C:/Workspaces/DAVE-4.4.2-64Bit/_PKDS_TSTS06_923M_X45_V1_8/Dave/Generated/DIGITAL_IO\digital_io.h **** */
 323:C:/Workspaces/DAVE-4.4.2-64Bit/_PKDS_TSTS06_923M_X45_V1_8/Dave/Generated/DIGITAL_IO\digital_io.h **** 
 324:C:/Workspaces/DAVE-4.4.2-64Bit/_PKDS_TSTS06_923M_X45_V1_8/Dave/Generated/DIGITAL_IO\digital_io.h **** __STATIC_INLINE void DIGITAL_IO_SetOutputLow(const DIGITAL_IO_t *const handler)
 325:C:/Workspaces/DAVE-4.4.2-64Bit/_PKDS_TSTS06_923M_X45_V1_8/Dave/Generated/DIGITAL_IO\digital_io.h **** {
 227              	 .loc 2 325 1
 228              	 .cfi_startproc
 229              	 
 230              	 
 231 0000 80B5     	 push {r7,lr}
 232              	.LCFI23:
 233              	 .cfi_def_cfa_offset 8
 234              	 .cfi_offset 7,-8
 235              	 .cfi_offset 14,-4
 236 0002 82B0     	 sub sp,sp,#8
 237              	.LCFI24:
 238              	 .cfi_def_cfa_offset 16
 239 0004 00AF     	 add r7,sp,#0
 240              	.LCFI25:
 241              	 .cfi_def_cfa_register 7
 242 0006 7860     	 str r0,[r7,#4]
 326:C:/Workspaces/DAVE-4.4.2-64Bit/_PKDS_TSTS06_923M_X45_V1_8/Dave/Generated/DIGITAL_IO\digital_io.h ****   XMC_ASSERT("DIGITAL_IO_SetOutputLow: handler null pointer", handler != NULL);
 327:C:/Workspaces/DAVE-4.4.2-64Bit/_PKDS_TSTS06_923M_X45_V1_8/Dave/Generated/DIGITAL_IO\digital_io.h ****   XMC_GPIO_SetOutputLow(handler->gpio_port,handler->gpio_pin);
 243              	 .loc 2 327 3
 244 0008 7B68     	 ldr r3,[r7,#4]
 245 000a 1A68     	 ldr r2,[r3]
 246 000c 7B68     	 ldr r3,[r7,#4]
 247 000e 1B7C     	 ldrb r3,[r3,#16]
 248 0010 1946     	 mov r1,r3
 249 0012 1046     	 mov r0,r2
 250 0014 FFF7FEFF 	 bl XMC_GPIO_SetOutputLow
 328:C:/Workspaces/DAVE-4.4.2-64Bit/_PKDS_TSTS06_923M_X45_V1_8/Dave/Generated/DIGITAL_IO\digital_io.h **** }
 251              	 .loc 2 328 1
 252 0018 00BF     	 nop
 253 001a 0837     	 adds r7,r7,#8
 254              	.LCFI26:
 255              	 .cfi_def_cfa_offset 8
 256 001c BD46     	 mov sp,r7
 257              	.LCFI27:
 258              	 .cfi_def_cfa_register 13
 259              	 
 260 001e 80BD     	 pop {r7,pc}
 261              	 .cfi_endproc
 262              	.LFE144:
 264              	 .section .text.DIGITAL_IO_ToggleOutput,"ax",%progbits
 265              	 .align 1
 266              	 .syntax unified
 267              	 .thumb
 268              	 .thumb_func
 269              	 .fpu fpv4-sp-d16
 271              	DIGITAL_IO_ToggleOutput:
 272              	.LFB145:
 329:C:/Workspaces/DAVE-4.4.2-64Bit/_PKDS_TSTS06_923M_X45_V1_8/Dave/Generated/DIGITAL_IO\digital_io.h **** 
 330:C:/Workspaces/DAVE-4.4.2-64Bit/_PKDS_TSTS06_923M_X45_V1_8/Dave/Generated/DIGITAL_IO\digital_io.h **** /**
 331:C:/Workspaces/DAVE-4.4.2-64Bit/_PKDS_TSTS06_923M_X45_V1_8/Dave/Generated/DIGITAL_IO\digital_io.h **** * @brief Function to Toggle port pin.
 332:C:/Workspaces/DAVE-4.4.2-64Bit/_PKDS_TSTS06_923M_X45_V1_8/Dave/Generated/DIGITAL_IO\digital_io.h **** * @param handler Pointer pointing to APP data structure. Refer @ref DIGITAL_IO_t for details.
 333:C:/Workspaces/DAVE-4.4.2-64Bit/_PKDS_TSTS06_923M_X45_V1_8/Dave/Generated/DIGITAL_IO\digital_io.h **** * @return None
 334:C:/Workspaces/DAVE-4.4.2-64Bit/_PKDS_TSTS06_923M_X45_V1_8/Dave/Generated/DIGITAL_IO\digital_io.h **** *
 335:C:/Workspaces/DAVE-4.4.2-64Bit/_PKDS_TSTS06_923M_X45_V1_8/Dave/Generated/DIGITAL_IO\digital_io.h **** * \par<b>Description:</b><br>
 336:C:/Workspaces/DAVE-4.4.2-64Bit/_PKDS_TSTS06_923M_X45_V1_8/Dave/Generated/DIGITAL_IO\digital_io.h **** * This function configures port output modification register Pn_OMR, to toggle port pin.
 337:C:/Workspaces/DAVE-4.4.2-64Bit/_PKDS_TSTS06_923M_X45_V1_8/Dave/Generated/DIGITAL_IO\digital_io.h **** *
 338:C:/Workspaces/DAVE-4.4.2-64Bit/_PKDS_TSTS06_923M_X45_V1_8/Dave/Generated/DIGITAL_IO\digital_io.h **** * \par<b>Related APIs:</b><BR>
 339:C:/Workspaces/DAVE-4.4.2-64Bit/_PKDS_TSTS06_923M_X45_V1_8/Dave/Generated/DIGITAL_IO\digital_io.h **** * DIGITAL_IO_SetOutputLow(), DIGITAL_IO_SetOutputHigh()
 340:C:/Workspaces/DAVE-4.4.2-64Bit/_PKDS_TSTS06_923M_X45_V1_8/Dave/Generated/DIGITAL_IO\digital_io.h **** *
 341:C:/Workspaces/DAVE-4.4.2-64Bit/_PKDS_TSTS06_923M_X45_V1_8/Dave/Generated/DIGITAL_IO\digital_io.h **** * Example Usage:
 342:C:/Workspaces/DAVE-4.4.2-64Bit/_PKDS_TSTS06_923M_X45_V1_8/Dave/Generated/DIGITAL_IO\digital_io.h **** *
 343:C:/Workspaces/DAVE-4.4.2-64Bit/_PKDS_TSTS06_923M_X45_V1_8/Dave/Generated/DIGITAL_IO\digital_io.h **** * @code
 344:C:/Workspaces/DAVE-4.4.2-64Bit/_PKDS_TSTS06_923M_X45_V1_8/Dave/Generated/DIGITAL_IO\digital_io.h **** * #include "DAVE.h" //Declarations from DAVE Code Generation (includes SFR declaration)
 345:C:/Workspaces/DAVE-4.4.2-64Bit/_PKDS_TSTS06_923M_X45_V1_8/Dave/Generated/DIGITAL_IO\digital_io.h **** *
 346:C:/Workspaces/DAVE-4.4.2-64Bit/_PKDS_TSTS06_923M_X45_V1_8/Dave/Generated/DIGITAL_IO\digital_io.h **** * int main(void)
 347:C:/Workspaces/DAVE-4.4.2-64Bit/_PKDS_TSTS06_923M_X45_V1_8/Dave/Generated/DIGITAL_IO\digital_io.h **** * {
 348:C:/Workspaces/DAVE-4.4.2-64Bit/_PKDS_TSTS06_923M_X45_V1_8/Dave/Generated/DIGITAL_IO\digital_io.h **** *   DAVE_STATUS_t status;
 349:C:/Workspaces/DAVE-4.4.2-64Bit/_PKDS_TSTS06_923M_X45_V1_8/Dave/Generated/DIGITAL_IO\digital_io.h **** *   uint32_t delay_count;;
 350:C:/Workspaces/DAVE-4.4.2-64Bit/_PKDS_TSTS06_923M_X45_V1_8/Dave/Generated/DIGITAL_IO\digital_io.h **** *   status = DAVE_Init();  //(DAVE_STATUS_t)DIGITAL_IO_Init(&DIGITAL_IO_0) is called within DAVE_In
 351:C:/Workspaces/DAVE-4.4.2-64Bit/_PKDS_TSTS06_923M_X45_V1_8/Dave/Generated/DIGITAL_IO\digital_io.h **** *   if(status == DAVE_STATUS_SUCCESS)
 352:C:/Workspaces/DAVE-4.4.2-64Bit/_PKDS_TSTS06_923M_X45_V1_8/Dave/Generated/DIGITAL_IO\digital_io.h **** *   {
 353:C:/Workspaces/DAVE-4.4.2-64Bit/_PKDS_TSTS06_923M_X45_V1_8/Dave/Generated/DIGITAL_IO\digital_io.h **** *     XMC_DEBUG("DAVE Apps initialization success\n");
 354:C:/Workspaces/DAVE-4.4.2-64Bit/_PKDS_TSTS06_923M_X45_V1_8/Dave/Generated/DIGITAL_IO\digital_io.h **** *   }
 355:C:/Workspaces/DAVE-4.4.2-64Bit/_PKDS_TSTS06_923M_X45_V1_8/Dave/Generated/DIGITAL_IO\digital_io.h **** *   else
 356:C:/Workspaces/DAVE-4.4.2-64Bit/_PKDS_TSTS06_923M_X45_V1_8/Dave/Generated/DIGITAL_IO\digital_io.h **** *   {
 357:C:/Workspaces/DAVE-4.4.2-64Bit/_PKDS_TSTS06_923M_X45_V1_8/Dave/Generated/DIGITAL_IO\digital_io.h **** *      XMC_DEBUG(("DAVE Apps initialization failed with status %d\n", status));
 358:C:/Workspaces/DAVE-4.4.2-64Bit/_PKDS_TSTS06_923M_X45_V1_8/Dave/Generated/DIGITAL_IO\digital_io.h **** *      while(1U)
 359:C:/Workspaces/DAVE-4.4.2-64Bit/_PKDS_TSTS06_923M_X45_V1_8/Dave/Generated/DIGITAL_IO\digital_io.h **** *      {
 360:C:/Workspaces/DAVE-4.4.2-64Bit/_PKDS_TSTS06_923M_X45_V1_8/Dave/Generated/DIGITAL_IO\digital_io.h **** *      }
 361:C:/Workspaces/DAVE-4.4.2-64Bit/_PKDS_TSTS06_923M_X45_V1_8/Dave/Generated/DIGITAL_IO\digital_io.h **** *   }
 362:C:/Workspaces/DAVE-4.4.2-64Bit/_PKDS_TSTS06_923M_X45_V1_8/Dave/Generated/DIGITAL_IO\digital_io.h **** *   //Placeholder for user application code. The while loop below can be replaced with user applica
 363:C:/Workspaces/DAVE-4.4.2-64Bit/_PKDS_TSTS06_923M_X45_V1_8/Dave/Generated/DIGITAL_IO\digital_io.h **** *   while(1U)
 364:C:/Workspaces/DAVE-4.4.2-64Bit/_PKDS_TSTS06_923M_X45_V1_8/Dave/Generated/DIGITAL_IO\digital_io.h **** *   {
 365:C:/Workspaces/DAVE-4.4.2-64Bit/_PKDS_TSTS06_923M_X45_V1_8/Dave/Generated/DIGITAL_IO\digital_io.h **** *      DIGITAL_IO_ToggleOutput(&DIGITAL_IO_0); //toggles : 1 -> 0 (if initial output level is logic
 366:C:/Workspaces/DAVE-4.4.2-64Bit/_PKDS_TSTS06_923M_X45_V1_8/Dave/Generated/DIGITAL_IO\digital_io.h **** *      //Add application code here
 367:C:/Workspaces/DAVE-4.4.2-64Bit/_PKDS_TSTS06_923M_X45_V1_8/Dave/Generated/DIGITAL_IO\digital_io.h **** *      for(delay_count = 0;delay_count<0xfffff;delay_count++);
 368:C:/Workspaces/DAVE-4.4.2-64Bit/_PKDS_TSTS06_923M_X45_V1_8/Dave/Generated/DIGITAL_IO\digital_io.h **** *      DIGITAL_IO_ToggleOutput(&DIGITAL_IO_0); //toggles : 0 -> 1
 369:C:/Workspaces/DAVE-4.4.2-64Bit/_PKDS_TSTS06_923M_X45_V1_8/Dave/Generated/DIGITAL_IO\digital_io.h **** *      //Add application code here
 370:C:/Workspaces/DAVE-4.4.2-64Bit/_PKDS_TSTS06_923M_X45_V1_8/Dave/Generated/DIGITAL_IO\digital_io.h **** *      for(delay_count = 0;delay_count<0xfffff;delay_count++);
 371:C:/Workspaces/DAVE-4.4.2-64Bit/_PKDS_TSTS06_923M_X45_V1_8/Dave/Generated/DIGITAL_IO\digital_io.h **** *   }
 372:C:/Workspaces/DAVE-4.4.2-64Bit/_PKDS_TSTS06_923M_X45_V1_8/Dave/Generated/DIGITAL_IO\digital_io.h **** *   return (1);
 373:C:/Workspaces/DAVE-4.4.2-64Bit/_PKDS_TSTS06_923M_X45_V1_8/Dave/Generated/DIGITAL_IO\digital_io.h **** * }
 374:C:/Workspaces/DAVE-4.4.2-64Bit/_PKDS_TSTS06_923M_X45_V1_8/Dave/Generated/DIGITAL_IO\digital_io.h **** *  @endcode
 375:C:/Workspaces/DAVE-4.4.2-64Bit/_PKDS_TSTS06_923M_X45_V1_8/Dave/Generated/DIGITAL_IO\digital_io.h **** */
 376:C:/Workspaces/DAVE-4.4.2-64Bit/_PKDS_TSTS06_923M_X45_V1_8/Dave/Generated/DIGITAL_IO\digital_io.h **** 
 377:C:/Workspaces/DAVE-4.4.2-64Bit/_PKDS_TSTS06_923M_X45_V1_8/Dave/Generated/DIGITAL_IO\digital_io.h **** __STATIC_INLINE void DIGITAL_IO_ToggleOutput(const DIGITAL_IO_t *const handler)
 378:C:/Workspaces/DAVE-4.4.2-64Bit/_PKDS_TSTS06_923M_X45_V1_8/Dave/Generated/DIGITAL_IO\digital_io.h **** {
 273              	 .loc 2 378 1
 274              	 .cfi_startproc
 275              	 
 276              	 
 277 0000 80B5     	 push {r7,lr}
 278              	.LCFI28:
 279              	 .cfi_def_cfa_offset 8
 280              	 .cfi_offset 7,-8
 281              	 .cfi_offset 14,-4
 282 0002 82B0     	 sub sp,sp,#8
 283              	.LCFI29:
 284              	 .cfi_def_cfa_offset 16
 285 0004 00AF     	 add r7,sp,#0
 286              	.LCFI30:
 287              	 .cfi_def_cfa_register 7
 288 0006 7860     	 str r0,[r7,#4]
 379:C:/Workspaces/DAVE-4.4.2-64Bit/_PKDS_TSTS06_923M_X45_V1_8/Dave/Generated/DIGITAL_IO\digital_io.h ****   XMC_ASSERT("DIGITAL_IO_ToggleOutput: handler null pointer", handler != NULL);
 380:C:/Workspaces/DAVE-4.4.2-64Bit/_PKDS_TSTS06_923M_X45_V1_8/Dave/Generated/DIGITAL_IO\digital_io.h ****   XMC_GPIO_ToggleOutput(handler->gpio_port, handler->gpio_pin);
 289              	 .loc 2 380 3
 290 0008 7B68     	 ldr r3,[r7,#4]
 291 000a 1A68     	 ldr r2,[r3]
 292 000c 7B68     	 ldr r3,[r7,#4]
 293 000e 1B7C     	 ldrb r3,[r3,#16]
 294 0010 1946     	 mov r1,r3
 295 0012 1046     	 mov r0,r2
 296 0014 FFF7FEFF 	 bl XMC_GPIO_ToggleOutput
 381:C:/Workspaces/DAVE-4.4.2-64Bit/_PKDS_TSTS06_923M_X45_V1_8/Dave/Generated/DIGITAL_IO\digital_io.h **** }
 297              	 .loc 2 381 1
 298 0018 00BF     	 nop
 299 001a 0837     	 adds r7,r7,#8
 300              	.LCFI31:
 301              	 .cfi_def_cfa_offset 8
 302 001c BD46     	 mov sp,r7
 303              	.LCFI32:
 304              	 .cfi_def_cfa_register 13
 305              	 
 306 001e 80BD     	 pop {r7,pc}
 307              	 .cfi_endproc
 308              	.LFE145:
 310              	 .section .text.CAN_NODE_MO_UpdateID,"ax",%progbits
 311              	 .align 1
 312              	 .syntax unified
 313              	 .thumb
 314              	 .thumb_func
 315              	 .fpu fpv4-sp-d16
 317              	CAN_NODE_MO_UpdateID:
 318              	.LFB249:
 319              	 .file 3 "C:/Workspaces/DAVE-4.4.2-64Bit/_PKDS_TSTS06_923M_X45_V1_8/Dave/Generated/CAN_NODE/can_node.h"
   1:C:/Workspaces/DAVE-4.4.2-64Bit/_PKDS_TSTS06_923M_X45_V1_8/Dave/Generated/CAN_NODE\can_node.h **** /**
   2:C:/Workspaces/DAVE-4.4.2-64Bit/_PKDS_TSTS06_923M_X45_V1_8/Dave/Generated/CAN_NODE\can_node.h ****  * @file can_node.h
   3:C:/Workspaces/DAVE-4.4.2-64Bit/_PKDS_TSTS06_923M_X45_V1_8/Dave/Generated/CAN_NODE\can_node.h ****  * @date 2021-01-08
   4:C:/Workspaces/DAVE-4.4.2-64Bit/_PKDS_TSTS06_923M_X45_V1_8/Dave/Generated/CAN_NODE\can_node.h ****  *
   5:C:/Workspaces/DAVE-4.4.2-64Bit/_PKDS_TSTS06_923M_X45_V1_8/Dave/Generated/CAN_NODE\can_node.h ****  * NOTE:
   6:C:/Workspaces/DAVE-4.4.2-64Bit/_PKDS_TSTS06_923M_X45_V1_8/Dave/Generated/CAN_NODE\can_node.h ****  * This file is generated by DAVE. Any manual modification done to this file will be lost when the 
   7:C:/Workspaces/DAVE-4.4.2-64Bit/_PKDS_TSTS06_923M_X45_V1_8/Dave/Generated/CAN_NODE\can_node.h ****  *
   8:C:/Workspaces/DAVE-4.4.2-64Bit/_PKDS_TSTS06_923M_X45_V1_8/Dave/Generated/CAN_NODE\can_node.h ****  * @cond
   9:C:/Workspaces/DAVE-4.4.2-64Bit/_PKDS_TSTS06_923M_X45_V1_8/Dave/Generated/CAN_NODE\can_node.h ****  **************************************************************************************************
  10:C:/Workspaces/DAVE-4.4.2-64Bit/_PKDS_TSTS06_923M_X45_V1_8/Dave/Generated/CAN_NODE\can_node.h ****  * CAN_NODE v4.1.24 - Configures a Node and MO registers of MultiCAN module. It provides a run-time
  11:C:/Workspaces/DAVE-4.4.2-64Bit/_PKDS_TSTS06_923M_X45_V1_8/Dave/Generated/CAN_NODE\can_node.h ****  *                   node baud rate and to enable/disable Node and MO events.
  12:C:/Workspaces/DAVE-4.4.2-64Bit/_PKDS_TSTS06_923M_X45_V1_8/Dave/Generated/CAN_NODE\can_node.h ****  *
  13:C:/Workspaces/DAVE-4.4.2-64Bit/_PKDS_TSTS06_923M_X45_V1_8/Dave/Generated/CAN_NODE\can_node.h ****  * Copyright (c) 2015-2020, Infineon Technologies AG
  14:C:/Workspaces/DAVE-4.4.2-64Bit/_PKDS_TSTS06_923M_X45_V1_8/Dave/Generated/CAN_NODE\can_node.h ****  * All rights reserved.
  15:C:/Workspaces/DAVE-4.4.2-64Bit/_PKDS_TSTS06_923M_X45_V1_8/Dave/Generated/CAN_NODE\can_node.h ****  *                                             
  16:C:/Workspaces/DAVE-4.4.2-64Bit/_PKDS_TSTS06_923M_X45_V1_8/Dave/Generated/CAN_NODE\can_node.h ****  * Redistribution and use in source and binary forms, with or without modification,are permitted pr
  17:C:/Workspaces/DAVE-4.4.2-64Bit/_PKDS_TSTS06_923M_X45_V1_8/Dave/Generated/CAN_NODE\can_node.h ****  * following conditions are met:
  18:C:/Workspaces/DAVE-4.4.2-64Bit/_PKDS_TSTS06_923M_X45_V1_8/Dave/Generated/CAN_NODE\can_node.h ****  *
  19:C:/Workspaces/DAVE-4.4.2-64Bit/_PKDS_TSTS06_923M_X45_V1_8/Dave/Generated/CAN_NODE\can_node.h ****  *   Redistributions of source code must retain the above copyright notice, this list of conditions
  20:C:/Workspaces/DAVE-4.4.2-64Bit/_PKDS_TSTS06_923M_X45_V1_8/Dave/Generated/CAN_NODE\can_node.h ****  *   disclaimer.
  21:C:/Workspaces/DAVE-4.4.2-64Bit/_PKDS_TSTS06_923M_X45_V1_8/Dave/Generated/CAN_NODE\can_node.h ****  *
  22:C:/Workspaces/DAVE-4.4.2-64Bit/_PKDS_TSTS06_923M_X45_V1_8/Dave/Generated/CAN_NODE\can_node.h ****  *   Redistributions in binary form must reproduce the above copyright notice, this list of conditi
  23:C:/Workspaces/DAVE-4.4.2-64Bit/_PKDS_TSTS06_923M_X45_V1_8/Dave/Generated/CAN_NODE\can_node.h ****  *   following disclaimer in the documentation and/or other materials provided with the distributio
  24:C:/Workspaces/DAVE-4.4.2-64Bit/_PKDS_TSTS06_923M_X45_V1_8/Dave/Generated/CAN_NODE\can_node.h ****  *
  25:C:/Workspaces/DAVE-4.4.2-64Bit/_PKDS_TSTS06_923M_X45_V1_8/Dave/Generated/CAN_NODE\can_node.h ****  *   Neither the name of the copyright holders nor the names of its contributors may be used to end
  26:C:/Workspaces/DAVE-4.4.2-64Bit/_PKDS_TSTS06_923M_X45_V1_8/Dave/Generated/CAN_NODE\can_node.h ****  *   products derived from this software without specific prior written permission.
  27:C:/Workspaces/DAVE-4.4.2-64Bit/_PKDS_TSTS06_923M_X45_V1_8/Dave/Generated/CAN_NODE\can_node.h ****  *
  28:C:/Workspaces/DAVE-4.4.2-64Bit/_PKDS_TSTS06_923M_X45_V1_8/Dave/Generated/CAN_NODE\can_node.h ****  * THIS SOFTWARE IS PROVIDED BY THE COPYRIGHT HOLDERS AND CONTRIBUTORS "AS IS" AND ANY EXPRESS OR I
  29:C:/Workspaces/DAVE-4.4.2-64Bit/_PKDS_TSTS06_923M_X45_V1_8/Dave/Generated/CAN_NODE\can_node.h ****  * INCLUDING, BUT NOT LIMITED TO, THE IMPLIED WARRANTIES OF MERCHANTABILITY AND FITNESS FOR A PARTI
  30:C:/Workspaces/DAVE-4.4.2-64Bit/_PKDS_TSTS06_923M_X45_V1_8/Dave/Generated/CAN_NODE\can_node.h ****  * DISCLAIMED. IN NO EVENT SHALL THE COPYRIGHT HOLDER OR CONTRIBUTORS BE LIABLE  FOR ANY DIRECT, IN
  31:C:/Workspaces/DAVE-4.4.2-64Bit/_PKDS_TSTS06_923M_X45_V1_8/Dave/Generated/CAN_NODE\can_node.h ****  * SPECIAL, EXEMPLARY, OR CONSEQUENTIAL DAMAGES (INCLUDING, BUT NOT LIMITED TO, PROCUREMENT OF SUBS
  32:C:/Workspaces/DAVE-4.4.2-64Bit/_PKDS_TSTS06_923M_X45_V1_8/Dave/Generated/CAN_NODE\can_node.h ****  * SERVICES; LOSS OF USE, DATA, OR PROFITS; OR BUSINESS INTERRUPTION) HOWEVER CAUSED AND ON ANY THE
  33:C:/Workspaces/DAVE-4.4.2-64Bit/_PKDS_TSTS06_923M_X45_V1_8/Dave/Generated/CAN_NODE\can_node.h ****  * WHETHER IN CONTRACT, STRICT LIABILITY,OR TORT (INCLUDING NEGLIGENCE OR OTHERWISE) ARISING IN ANY
  34:C:/Workspaces/DAVE-4.4.2-64Bit/_PKDS_TSTS06_923M_X45_V1_8/Dave/Generated/CAN_NODE\can_node.h ****  * USE OF THIS SOFTWARE, EVEN IF ADVISED OF THE POSSIBILITY OF SUCH DAMAGE.
  35:C:/Workspaces/DAVE-4.4.2-64Bit/_PKDS_TSTS06_923M_X45_V1_8/Dave/Generated/CAN_NODE\can_node.h ****  *
  36:C:/Workspaces/DAVE-4.4.2-64Bit/_PKDS_TSTS06_923M_X45_V1_8/Dave/Generated/CAN_NODE\can_node.h ****  * To improve the quality of the software, users are encouraged to share modifications, enhancement
  37:C:/Workspaces/DAVE-4.4.2-64Bit/_PKDS_TSTS06_923M_X45_V1_8/Dave/Generated/CAN_NODE\can_node.h ****  * with Infineon Technologies AG (dave@infineon.com).
  38:C:/Workspaces/DAVE-4.4.2-64Bit/_PKDS_TSTS06_923M_X45_V1_8/Dave/Generated/CAN_NODE\can_node.h ****  **************************************************************************************************
  39:C:/Workspaces/DAVE-4.4.2-64Bit/_PKDS_TSTS06_923M_X45_V1_8/Dave/Generated/CAN_NODE\can_node.h ****  *
  40:C:/Workspaces/DAVE-4.4.2-64Bit/_PKDS_TSTS06_923M_X45_V1_8/Dave/Generated/CAN_NODE\can_node.h ****  * Change History
  41:C:/Workspaces/DAVE-4.4.2-64Bit/_PKDS_TSTS06_923M_X45_V1_8/Dave/Generated/CAN_NODE\can_node.h ****  * --------------
  42:C:/Workspaces/DAVE-4.4.2-64Bit/_PKDS_TSTS06_923M_X45_V1_8/Dave/Generated/CAN_NODE\can_node.h ****  *
  43:C:/Workspaces/DAVE-4.4.2-64Bit/_PKDS_TSTS06_923M_X45_V1_8/Dave/Generated/CAN_NODE\can_node.h ****  * 2015-02-16:
  44:C:/Workspaces/DAVE-4.4.2-64Bit/_PKDS_TSTS06_923M_X45_V1_8/Dave/Generated/CAN_NODE\can_node.h ****  *     - Initial version<br>
  45:C:/Workspaces/DAVE-4.4.2-64Bit/_PKDS_TSTS06_923M_X45_V1_8/Dave/Generated/CAN_NODE\can_node.h ****  *
  46:C:/Workspaces/DAVE-4.4.2-64Bit/_PKDS_TSTS06_923M_X45_V1_8/Dave/Generated/CAN_NODE\can_node.h ****  * 2015-05-12:
  47:C:/Workspaces/DAVE-4.4.2-64Bit/_PKDS_TSTS06_923M_X45_V1_8/Dave/Generated/CAN_NODE\can_node.h ****  *     - CAN_NODE_EnableEvent() and CAN_NODE_ConfigBaudrate() APIs are included with additional arg
  48:C:/Workspaces/DAVE-4.4.2-64Bit/_PKDS_TSTS06_923M_X45_V1_8/Dave/Generated/CAN_NODE\can_node.h ****  *     - New APIs are added: CAN_NODE_MO_ReceiveData(),CAN_NODE_MO_ClearStatus(), CAN_NODE_ClearSta
  49:C:/Workspaces/DAVE-4.4.2-64Bit/_PKDS_TSTS06_923M_X45_V1_8/Dave/Generated/CAN_NODE\can_node.h ****  *
  50:C:/Workspaces/DAVE-4.4.2-64Bit/_PKDS_TSTS06_923M_X45_V1_8/Dave/Generated/CAN_NODE\can_node.h ****  * 2015-06-18:
  51:C:/Workspaces/DAVE-4.4.2-64Bit/_PKDS_TSTS06_923M_X45_V1_8/Dave/Generated/CAN_NODE\can_node.h ****  *     - LLD version check is removed.<br>
  52:C:/Workspaces/DAVE-4.4.2-64Bit/_PKDS_TSTS06_923M_X45_V1_8/Dave/Generated/CAN_NODE\can_node.h ****  *     - Version check added for XMCLib dependency.<br>
  53:C:/Workspaces/DAVE-4.4.2-64Bit/_PKDS_TSTS06_923M_X45_V1_8/Dave/Generated/CAN_NODE\can_node.h ****  *
  54:C:/Workspaces/DAVE-4.4.2-64Bit/_PKDS_TSTS06_923M_X45_V1_8/Dave/Generated/CAN_NODE\can_node.h ****  * 2015-06-30:
  55:C:/Workspaces/DAVE-4.4.2-64Bit/_PKDS_TSTS06_923M_X45_V1_8/Dave/Generated/CAN_NODE\can_node.h ****  *     - New APIs are added: CAN_NODE_Enable() and CAN_NODE_Disable() to enable and disable CAN nod
  56:C:/Workspaces/DAVE-4.4.2-64Bit/_PKDS_TSTS06_923M_X45_V1_8/Dave/Generated/CAN_NODE\can_node.h ****  *         from participating CAN traffic. <br>
  57:C:/Workspaces/DAVE-4.4.2-64Bit/_PKDS_TSTS06_923M_X45_V1_8/Dave/Generated/CAN_NODE\can_node.h ****  *
  58:C:/Workspaces/DAVE-4.4.2-64Bit/_PKDS_TSTS06_923M_X45_V1_8/Dave/Generated/CAN_NODE\can_node.h ****  * 2016-06-20:
  59:C:/Workspaces/DAVE-4.4.2-64Bit/_PKDS_TSTS06_923M_X45_V1_8/Dave/Generated/CAN_NODE\can_node.h ****  *     - New API added: CAN_NODE_MO_UpdateID() to update the message object identifier.
  60:C:/Workspaces/DAVE-4.4.2-64Bit/_PKDS_TSTS06_923M_X45_V1_8/Dave/Generated/CAN_NODE\can_node.h ****  * 
  61:C:/Workspaces/DAVE-4.4.2-64Bit/_PKDS_TSTS06_923M_X45_V1_8/Dave/Generated/CAN_NODE\can_node.h ****  * 2018-08-28:
  62:C:/Workspaces/DAVE-4.4.2-64Bit/_PKDS_TSTS06_923M_X45_V1_8/Dave/Generated/CAN_NODE\can_node.h ****  *     - Fixed code example for CAN_NODE_MO_Transmit()
  63:C:/Workspaces/DAVE-4.4.2-64Bit/_PKDS_TSTS06_923M_X45_V1_8/Dave/Generated/CAN_NODE\can_node.h ****  * 
  64:C:/Workspaces/DAVE-4.4.2-64Bit/_PKDS_TSTS06_923M_X45_V1_8/Dave/Generated/CAN_NODE\can_node.h ****  * 2021-01-08:
  65:C:/Workspaces/DAVE-4.4.2-64Bit/_PKDS_TSTS06_923M_X45_V1_8/Dave/Generated/CAN_NODE\can_node.h ****  *     - Modified check for minimum XMCLib version
  66:C:/Workspaces/DAVE-4.4.2-64Bit/_PKDS_TSTS06_923M_X45_V1_8/Dave/Generated/CAN_NODE\can_node.h ****  *
  67:C:/Workspaces/DAVE-4.4.2-64Bit/_PKDS_TSTS06_923M_X45_V1_8/Dave/Generated/CAN_NODE\can_node.h ****  * @endcond
  68:C:/Workspaces/DAVE-4.4.2-64Bit/_PKDS_TSTS06_923M_X45_V1_8/Dave/Generated/CAN_NODE\can_node.h ****  *
  69:C:/Workspaces/DAVE-4.4.2-64Bit/_PKDS_TSTS06_923M_X45_V1_8/Dave/Generated/CAN_NODE\can_node.h ****  */
  70:C:/Workspaces/DAVE-4.4.2-64Bit/_PKDS_TSTS06_923M_X45_V1_8/Dave/Generated/CAN_NODE\can_node.h **** 
  71:C:/Workspaces/DAVE-4.4.2-64Bit/_PKDS_TSTS06_923M_X45_V1_8/Dave/Generated/CAN_NODE\can_node.h **** /**************************************************************************************************
  72:C:/Workspaces/DAVE-4.4.2-64Bit/_PKDS_TSTS06_923M_X45_V1_8/Dave/Generated/CAN_NODE\can_node.h ****  * HEADER FILES
  73:C:/Workspaces/DAVE-4.4.2-64Bit/_PKDS_TSTS06_923M_X45_V1_8/Dave/Generated/CAN_NODE\can_node.h ****  **************************************************************************************************
  74:C:/Workspaces/DAVE-4.4.2-64Bit/_PKDS_TSTS06_923M_X45_V1_8/Dave/Generated/CAN_NODE\can_node.h **** 
  75:C:/Workspaces/DAVE-4.4.2-64Bit/_PKDS_TSTS06_923M_X45_V1_8/Dave/Generated/CAN_NODE\can_node.h **** #ifndef CAN_NODE_H
  76:C:/Workspaces/DAVE-4.4.2-64Bit/_PKDS_TSTS06_923M_X45_V1_8/Dave/Generated/CAN_NODE\can_node.h **** #define CAN_NODE_H
  77:C:/Workspaces/DAVE-4.4.2-64Bit/_PKDS_TSTS06_923M_X45_V1_8/Dave/Generated/CAN_NODE\can_node.h **** 
  78:C:/Workspaces/DAVE-4.4.2-64Bit/_PKDS_TSTS06_923M_X45_V1_8/Dave/Generated/CAN_NODE\can_node.h **** #include "xmc_can.h"
  79:C:/Workspaces/DAVE-4.4.2-64Bit/_PKDS_TSTS06_923M_X45_V1_8/Dave/Generated/CAN_NODE\can_node.h **** #include "xmc_gpio.h"
  80:C:/Workspaces/DAVE-4.4.2-64Bit/_PKDS_TSTS06_923M_X45_V1_8/Dave/Generated/CAN_NODE\can_node.h **** #include "GLOBAL_CAN/global_can.h"
  81:C:/Workspaces/DAVE-4.4.2-64Bit/_PKDS_TSTS06_923M_X45_V1_8/Dave/Generated/CAN_NODE\can_node.h **** #include "can_node_conf.h"
  82:C:/Workspaces/DAVE-4.4.2-64Bit/_PKDS_TSTS06_923M_X45_V1_8/Dave/Generated/CAN_NODE\can_node.h **** #include "DAVE_Common.h"
  83:C:/Workspaces/DAVE-4.4.2-64Bit/_PKDS_TSTS06_923M_X45_V1_8/Dave/Generated/CAN_NODE\can_node.h **** 
  84:C:/Workspaces/DAVE-4.4.2-64Bit/_PKDS_TSTS06_923M_X45_V1_8/Dave/Generated/CAN_NODE\can_node.h **** /**************************************************************************************************
  85:C:/Workspaces/DAVE-4.4.2-64Bit/_PKDS_TSTS06_923M_X45_V1_8/Dave/Generated/CAN_NODE\can_node.h ****  * MACROS
  86:C:/Workspaces/DAVE-4.4.2-64Bit/_PKDS_TSTS06_923M_X45_V1_8/Dave/Generated/CAN_NODE\can_node.h ****  **************************************************************************************************
  87:C:/Workspaces/DAVE-4.4.2-64Bit/_PKDS_TSTS06_923M_X45_V1_8/Dave/Generated/CAN_NODE\can_node.h **** #define CAN_NODE_XMC_LIB_MAJOR_VERSION 2
  88:C:/Workspaces/DAVE-4.4.2-64Bit/_PKDS_TSTS06_923M_X45_V1_8/Dave/Generated/CAN_NODE\can_node.h **** #define CAN_NODE_XMC_LIB_MINOR_VERSION 0
  89:C:/Workspaces/DAVE-4.4.2-64Bit/_PKDS_TSTS06_923M_X45_V1_8/Dave/Generated/CAN_NODE\can_node.h **** #define CAN_NODE_XMC_LIB_PATCH_VERSION 0
  90:C:/Workspaces/DAVE-4.4.2-64Bit/_PKDS_TSTS06_923M_X45_V1_8/Dave/Generated/CAN_NODE\can_node.h **** 
  91:C:/Workspaces/DAVE-4.4.2-64Bit/_PKDS_TSTS06_923M_X45_V1_8/Dave/Generated/CAN_NODE\can_node.h **** #if !((XMC_LIB_MAJOR_VERSION > CAN_NODE_XMC_LIB_MAJOR_VERSION) ||\
  92:C:/Workspaces/DAVE-4.4.2-64Bit/_PKDS_TSTS06_923M_X45_V1_8/Dave/Generated/CAN_NODE\can_node.h ****       ((XMC_LIB_MAJOR_VERSION == CAN_NODE_XMC_LIB_MAJOR_VERSION) && (XMC_LIB_MINOR_VERSION > CAN_NO
  93:C:/Workspaces/DAVE-4.4.2-64Bit/_PKDS_TSTS06_923M_X45_V1_8/Dave/Generated/CAN_NODE\can_node.h ****       ((XMC_LIB_MAJOR_VERSION == CAN_NODE_XMC_LIB_MAJOR_VERSION) && (XMC_LIB_MINOR_VERSION == CAN_N
  94:C:/Workspaces/DAVE-4.4.2-64Bit/_PKDS_TSTS06_923M_X45_V1_8/Dave/Generated/CAN_NODE\can_node.h **** #error "CAN_NODE requires XMC Peripheral Library v2.0.0 or higher"
  95:C:/Workspaces/DAVE-4.4.2-64Bit/_PKDS_TSTS06_923M_X45_V1_8/Dave/Generated/CAN_NODE\can_node.h **** #endif
  96:C:/Workspaces/DAVE-4.4.2-64Bit/_PKDS_TSTS06_923M_X45_V1_8/Dave/Generated/CAN_NODE\can_node.h **** 
  97:C:/Workspaces/DAVE-4.4.2-64Bit/_PKDS_TSTS06_923M_X45_V1_8/Dave/Generated/CAN_NODE\can_node.h ****  /*************************************************************************************************
  98:C:/Workspaces/DAVE-4.4.2-64Bit/_PKDS_TSTS06_923M_X45_V1_8/Dave/Generated/CAN_NODE\can_node.h ****  * ENUMS
  99:C:/Workspaces/DAVE-4.4.2-64Bit/_PKDS_TSTS06_923M_X45_V1_8/Dave/Generated/CAN_NODE\can_node.h ****  **************************************************************************************************
 100:C:/Workspaces/DAVE-4.4.2-64Bit/_PKDS_TSTS06_923M_X45_V1_8/Dave/Generated/CAN_NODE\can_node.h **** /**
 101:C:/Workspaces/DAVE-4.4.2-64Bit/_PKDS_TSTS06_923M_X45_V1_8/Dave/Generated/CAN_NODE\can_node.h ****  * @ingroup CAN_NODE_enumerations
 102:C:/Workspaces/DAVE-4.4.2-64Bit/_PKDS_TSTS06_923M_X45_V1_8/Dave/Generated/CAN_NODE\can_node.h ****  * @{
 103:C:/Workspaces/DAVE-4.4.2-64Bit/_PKDS_TSTS06_923M_X45_V1_8/Dave/Generated/CAN_NODE\can_node.h ****  */
 104:C:/Workspaces/DAVE-4.4.2-64Bit/_PKDS_TSTS06_923M_X45_V1_8/Dave/Generated/CAN_NODE\can_node.h **** 
 105:C:/Workspaces/DAVE-4.4.2-64Bit/_PKDS_TSTS06_923M_X45_V1_8/Dave/Generated/CAN_NODE\can_node.h **** /**
 106:C:/Workspaces/DAVE-4.4.2-64Bit/_PKDS_TSTS06_923M_X45_V1_8/Dave/Generated/CAN_NODE\can_node.h ****  *  Enum to describe the possible status values, returned
 107:C:/Workspaces/DAVE-4.4.2-64Bit/_PKDS_TSTS06_923M_X45_V1_8/Dave/Generated/CAN_NODE\can_node.h ****  *  by CAN APIs.
 108:C:/Workspaces/DAVE-4.4.2-64Bit/_PKDS_TSTS06_923M_X45_V1_8/Dave/Generated/CAN_NODE\can_node.h ****  */
 109:C:/Workspaces/DAVE-4.4.2-64Bit/_PKDS_TSTS06_923M_X45_V1_8/Dave/Generated/CAN_NODE\can_node.h **** typedef enum CAN_NODE_STATUS
 110:C:/Workspaces/DAVE-4.4.2-64Bit/_PKDS_TSTS06_923M_X45_V1_8/Dave/Generated/CAN_NODE\can_node.h **** {
 111:C:/Workspaces/DAVE-4.4.2-64Bit/_PKDS_TSTS06_923M_X45_V1_8/Dave/Generated/CAN_NODE\can_node.h ****   CAN_NODE_STATUS_SUCCESS = 0, /**< APP success state */
 112:C:/Workspaces/DAVE-4.4.2-64Bit/_PKDS_TSTS06_923M_X45_V1_8/Dave/Generated/CAN_NODE\can_node.h ****   CAN_NODE_STATUS_FAILURE,  /**< Returned when unknown error occurred */
 113:C:/Workspaces/DAVE-4.4.2-64Bit/_PKDS_TSTS06_923M_X45_V1_8/Dave/Generated/CAN_NODE\can_node.h ****   CAN_NODE_STATUS_BUSY,      /**< CAN_NODE is busy and can not handle request*/
 114:C:/Workspaces/DAVE-4.4.2-64Bit/_PKDS_TSTS06_923M_X45_V1_8/Dave/Generated/CAN_NODE\can_node.h ****   CAN_NODE_STATUS_MO_NOT_ACCEPTABLE,/**< Message object type not allowed*/
 115:C:/Workspaces/DAVE-4.4.2-64Bit/_PKDS_TSTS06_923M_X45_V1_8/Dave/Generated/CAN_NODE\can_node.h ****   CAN_NODE_STATUS_MO_DISABLED  /**< Returned if Message object is disabled */
 116:C:/Workspaces/DAVE-4.4.2-64Bit/_PKDS_TSTS06_923M_X45_V1_8/Dave/Generated/CAN_NODE\can_node.h **** } CAN_NODE_STATUS_t;
 117:C:/Workspaces/DAVE-4.4.2-64Bit/_PKDS_TSTS06_923M_X45_V1_8/Dave/Generated/CAN_NODE\can_node.h **** 
 118:C:/Workspaces/DAVE-4.4.2-64Bit/_PKDS_TSTS06_923M_X45_V1_8/Dave/Generated/CAN_NODE\can_node.h **** 
 119:C:/Workspaces/DAVE-4.4.2-64Bit/_PKDS_TSTS06_923M_X45_V1_8/Dave/Generated/CAN_NODE\can_node.h **** /**
 120:C:/Workspaces/DAVE-4.4.2-64Bit/_PKDS_TSTS06_923M_X45_V1_8/Dave/Generated/CAN_NODE\can_node.h ****  * @}
 121:C:/Workspaces/DAVE-4.4.2-64Bit/_PKDS_TSTS06_923M_X45_V1_8/Dave/Generated/CAN_NODE\can_node.h ****  */
 122:C:/Workspaces/DAVE-4.4.2-64Bit/_PKDS_TSTS06_923M_X45_V1_8/Dave/Generated/CAN_NODE\can_node.h **** 
 123:C:/Workspaces/DAVE-4.4.2-64Bit/_PKDS_TSTS06_923M_X45_V1_8/Dave/Generated/CAN_NODE\can_node.h **** /**************************************************************************************************
 124:C:/Workspaces/DAVE-4.4.2-64Bit/_PKDS_TSTS06_923M_X45_V1_8/Dave/Generated/CAN_NODE\can_node.h **** * DATA STRUCTURES
 125:C:/Workspaces/DAVE-4.4.2-64Bit/_PKDS_TSTS06_923M_X45_V1_8/Dave/Generated/CAN_NODE\can_node.h **** ***************************************************************************************************
 126:C:/Workspaces/DAVE-4.4.2-64Bit/_PKDS_TSTS06_923M_X45_V1_8/Dave/Generated/CAN_NODE\can_node.h **** 
 127:C:/Workspaces/DAVE-4.4.2-64Bit/_PKDS_TSTS06_923M_X45_V1_8/Dave/Generated/CAN_NODE\can_node.h **** /**
 128:C:/Workspaces/DAVE-4.4.2-64Bit/_PKDS_TSTS06_923M_X45_V1_8/Dave/Generated/CAN_NODE\can_node.h ****  * @ingroup CAN_NODE_datastructures
 129:C:/Workspaces/DAVE-4.4.2-64Bit/_PKDS_TSTS06_923M_X45_V1_8/Dave/Generated/CAN_NODE\can_node.h ****  * @{
 130:C:/Workspaces/DAVE-4.4.2-64Bit/_PKDS_TSTS06_923M_X45_V1_8/Dave/Generated/CAN_NODE\can_node.h ****  */
 131:C:/Workspaces/DAVE-4.4.2-64Bit/_PKDS_TSTS06_923M_X45_V1_8/Dave/Generated/CAN_NODE\can_node.h **** 
 132:C:/Workspaces/DAVE-4.4.2-64Bit/_PKDS_TSTS06_923M_X45_V1_8/Dave/Generated/CAN_NODE\can_node.h **** /**
 133:C:/Workspaces/DAVE-4.4.2-64Bit/_PKDS_TSTS06_923M_X45_V1_8/Dave/Generated/CAN_NODE\can_node.h ****  * This is the data structure to hold the configured port and pin numbers for CAN_NODE.
 134:C:/Workspaces/DAVE-4.4.2-64Bit/_PKDS_TSTS06_923M_X45_V1_8/Dave/Generated/CAN_NODE\can_node.h ****  *
 135:C:/Workspaces/DAVE-4.4.2-64Bit/_PKDS_TSTS06_923M_X45_V1_8/Dave/Generated/CAN_NODE\can_node.h ****  */
 136:C:/Workspaces/DAVE-4.4.2-64Bit/_PKDS_TSTS06_923M_X45_V1_8/Dave/Generated/CAN_NODE\can_node.h **** 
 137:C:/Workspaces/DAVE-4.4.2-64Bit/_PKDS_TSTS06_923M_X45_V1_8/Dave/Generated/CAN_NODE\can_node.h **** typedef const struct CAN_NODE_GPIO
 138:C:/Workspaces/DAVE-4.4.2-64Bit/_PKDS_TSTS06_923M_X45_V1_8/Dave/Generated/CAN_NODE\can_node.h **** {
 139:C:/Workspaces/DAVE-4.4.2-64Bit/_PKDS_TSTS06_923M_X45_V1_8/Dave/Generated/CAN_NODE\can_node.h ****   XMC_GPIO_PORT_t  *const port; /**< Pointer to port hardware register to select for CAN communicat
 140:C:/Workspaces/DAVE-4.4.2-64Bit/_PKDS_TSTS06_923M_X45_V1_8/Dave/Generated/CAN_NODE\can_node.h ****   uint8_t  pin;    /**< Configured CAN Tx/Rx pin number */
 141:C:/Workspaces/DAVE-4.4.2-64Bit/_PKDS_TSTS06_923M_X45_V1_8/Dave/Generated/CAN_NODE\can_node.h **** } CAN_NODE_GPIO_t;
 142:C:/Workspaces/DAVE-4.4.2-64Bit/_PKDS_TSTS06_923M_X45_V1_8/Dave/Generated/CAN_NODE\can_node.h **** 
 143:C:/Workspaces/DAVE-4.4.2-64Bit/_PKDS_TSTS06_923M_X45_V1_8/Dave/Generated/CAN_NODE\can_node.h **** /**
 144:C:/Workspaces/DAVE-4.4.2-64Bit/_PKDS_TSTS06_923M_X45_V1_8/Dave/Generated/CAN_NODE\can_node.h ****  *    Node events service request structure for CAN_NODE.
 145:C:/Workspaces/DAVE-4.4.2-64Bit/_PKDS_TSTS06_923M_X45_V1_8/Dave/Generated/CAN_NODE\can_node.h ****  *    To enable the events user explicitly connect the signals to INTERUPT APP.
 146:C:/Workspaces/DAVE-4.4.2-64Bit/_PKDS_TSTS06_923M_X45_V1_8/Dave/Generated/CAN_NODE\can_node.h ****  */
 147:C:/Workspaces/DAVE-4.4.2-64Bit/_PKDS_TSTS06_923M_X45_V1_8/Dave/Generated/CAN_NODE\can_node.h **** typedef const struct CAN_NODE_SR
 148:C:/Workspaces/DAVE-4.4.2-64Bit/_PKDS_TSTS06_923M_X45_V1_8/Dave/Generated/CAN_NODE\can_node.h **** {
 149:C:/Workspaces/DAVE-4.4.2-64Bit/_PKDS_TSTS06_923M_X45_V1_8/Dave/Generated/CAN_NODE\can_node.h ****   uint8_t alert_event_sr;      /**< Alert event service request  */
 150:C:/Workspaces/DAVE-4.4.2-64Bit/_PKDS_TSTS06_923M_X45_V1_8/Dave/Generated/CAN_NODE\can_node.h ****   uint8_t lec_event_sr;        /**< LEC event service request  */
 151:C:/Workspaces/DAVE-4.4.2-64Bit/_PKDS_TSTS06_923M_X45_V1_8/Dave/Generated/CAN_NODE\can_node.h ****   uint8_t txok_event_sr;       /**< Transmit OK event service request  */
 152:C:/Workspaces/DAVE-4.4.2-64Bit/_PKDS_TSTS06_923M_X45_V1_8/Dave/Generated/CAN_NODE\can_node.h ****   uint8_t framecount_event_sr; /**< Frame count event service request  */
 153:C:/Workspaces/DAVE-4.4.2-64Bit/_PKDS_TSTS06_923M_X45_V1_8/Dave/Generated/CAN_NODE\can_node.h **** } CAN_NODE_SR_t;
 154:C:/Workspaces/DAVE-4.4.2-64Bit/_PKDS_TSTS06_923M_X45_V1_8/Dave/Generated/CAN_NODE\can_node.h **** 
 155:C:/Workspaces/DAVE-4.4.2-64Bit/_PKDS_TSTS06_923M_X45_V1_8/Dave/Generated/CAN_NODE\can_node.h **** /**
 156:C:/Workspaces/DAVE-4.4.2-64Bit/_PKDS_TSTS06_923M_X45_V1_8/Dave/Generated/CAN_NODE\can_node.h ****  *   Message object structure for CAN_NODE APP
 157:C:/Workspaces/DAVE-4.4.2-64Bit/_PKDS_TSTS06_923M_X45_V1_8/Dave/Generated/CAN_NODE\can_node.h ****  */
 158:C:/Workspaces/DAVE-4.4.2-64Bit/_PKDS_TSTS06_923M_X45_V1_8/Dave/Generated/CAN_NODE\can_node.h **** typedef struct CAN_NODE_LMO
 159:C:/Workspaces/DAVE-4.4.2-64Bit/_PKDS_TSTS06_923M_X45_V1_8/Dave/Generated/CAN_NODE\can_node.h **** {
 160:C:/Workspaces/DAVE-4.4.2-64Bit/_PKDS_TSTS06_923M_X45_V1_8/Dave/Generated/CAN_NODE\can_node.h ****   XMC_CAN_MO_t *mo_ptr;        /**< CAN message object pointer */
 161:C:/Workspaces/DAVE-4.4.2-64Bit/_PKDS_TSTS06_923M_X45_V1_8/Dave/Generated/CAN_NODE\can_node.h ****   uint8_t number;              /**< Consumed CAN message object number */
 162:C:/Workspaces/DAVE-4.4.2-64Bit/_PKDS_TSTS06_923M_X45_V1_8/Dave/Generated/CAN_NODE\can_node.h ****   uint8_t tx_sr;               /**< CAN message object transmit service request */
 163:C:/Workspaces/DAVE-4.4.2-64Bit/_PKDS_TSTS06_923M_X45_V1_8/Dave/Generated/CAN_NODE\can_node.h ****   uint8_t rx_sr;               /**< CAN message object receive service request */
 164:C:/Workspaces/DAVE-4.4.2-64Bit/_PKDS_TSTS06_923M_X45_V1_8/Dave/Generated/CAN_NODE\can_node.h ****   const bool tx_event_enable;  /**< GUI configured value for CAN message object transmit event chec
 165:C:/Workspaces/DAVE-4.4.2-64Bit/_PKDS_TSTS06_923M_X45_V1_8/Dave/Generated/CAN_NODE\can_node.h ****   const bool rx_event_enable;  /**< GUI configured value for CAN message object receive event check
 166:C:/Workspaces/DAVE-4.4.2-64Bit/_PKDS_TSTS06_923M_X45_V1_8/Dave/Generated/CAN_NODE\can_node.h **** } CAN_NODE_LMO_t;
 167:C:/Workspaces/DAVE-4.4.2-64Bit/_PKDS_TSTS06_923M_X45_V1_8/Dave/Generated/CAN_NODE\can_node.h **** 
 168:C:/Workspaces/DAVE-4.4.2-64Bit/_PKDS_TSTS06_923M_X45_V1_8/Dave/Generated/CAN_NODE\can_node.h **** /**
 169:C:/Workspaces/DAVE-4.4.2-64Bit/_PKDS_TSTS06_923M_X45_V1_8/Dave/Generated/CAN_NODE\can_node.h ****  *  Initialization data structure for CAN_NODE APP
 170:C:/Workspaces/DAVE-4.4.2-64Bit/_PKDS_TSTS06_923M_X45_V1_8/Dave/Generated/CAN_NODE\can_node.h ****  */
 171:C:/Workspaces/DAVE-4.4.2-64Bit/_PKDS_TSTS06_923M_X45_V1_8/Dave/Generated/CAN_NODE\can_node.h **** typedef struct CAN_NODE
 172:C:/Workspaces/DAVE-4.4.2-64Bit/_PKDS_TSTS06_923M_X45_V1_8/Dave/Generated/CAN_NODE\can_node.h **** {
 173:C:/Workspaces/DAVE-4.4.2-64Bit/_PKDS_TSTS06_923M_X45_V1_8/Dave/Generated/CAN_NODE\can_node.h ****   GLOBAL_CAN_t *const global_ptr;                    /**< Global CAN pointer */
 174:C:/Workspaces/DAVE-4.4.2-64Bit/_PKDS_TSTS06_923M_X45_V1_8/Dave/Generated/CAN_NODE\can_node.h ****   XMC_CAN_NODE_t *const node_ptr;                    /**< Consumed CAN node pointer */
 175:C:/Workspaces/DAVE-4.4.2-64Bit/_PKDS_TSTS06_923M_X45_V1_8/Dave/Generated/CAN_NODE\can_node.h ****   XMC_CAN_NODE_NOMINAL_BIT_TIME_CONFIG_t *baudrate_config; /**< Pointer to bit time configuration s
 176:C:/Workspaces/DAVE-4.4.2-64Bit/_PKDS_TSTS06_923M_X45_V1_8/Dave/Generated/CAN_NODE\can_node.h ****   CAN_NODE_LMO_t *lmobj_ptr[32];                     /**< Array of pointer to logical message objec
 177:C:/Workspaces/DAVE-4.4.2-64Bit/_PKDS_TSTS06_923M_X45_V1_8/Dave/Generated/CAN_NODE\can_node.h ****   CAN_NODE_SR_t *node_sr_ptr;                        /**< Node service request  */
 178:C:/Workspaces/DAVE-4.4.2-64Bit/_PKDS_TSTS06_923M_X45_V1_8/Dave/Generated/CAN_NODE\can_node.h ****   const CAN_NODE_GPIO_t    *const gpio_out;          /**< GPIO structure for CAN transmit pin  */
 179:C:/Workspaces/DAVE-4.4.2-64Bit/_PKDS_TSTS06_923M_X45_V1_8/Dave/Generated/CAN_NODE\can_node.h ****   const XMC_GPIO_CONFIG_t  *const gpio_out_config;   /**< GPIO configuration structure for CAN tran
 180:C:/Workspaces/DAVE-4.4.2-64Bit/_PKDS_TSTS06_923M_X45_V1_8/Dave/Generated/CAN_NODE\can_node.h ****   const CAN_NODE_GPIO_t    *const gpio_in;           /**< GPIO structure for CAN receive pin  */
 181:C:/Workspaces/DAVE-4.4.2-64Bit/_PKDS_TSTS06_923M_X45_V1_8/Dave/Generated/CAN_NODE\can_node.h ****   const XMC_GPIO_CONFIG_t  *const gpio_in_config;    /**< GPIO configuration structure for CAN rece
 182:C:/Workspaces/DAVE-4.4.2-64Bit/_PKDS_TSTS06_923M_X45_V1_8/Dave/Generated/CAN_NODE\can_node.h ****   const XMC_CAN_NODE_RECEIVE_INPUT_t rx_signal;      /**< Possible input type for CAN receive pin *
 183:C:/Workspaces/DAVE-4.4.2-64Bit/_PKDS_TSTS06_923M_X45_V1_8/Dave/Generated/CAN_NODE\can_node.h ****   uint8_t node_num;                                  /**< Consumed CAN node number */
 184:C:/Workspaces/DAVE-4.4.2-64Bit/_PKDS_TSTS06_923M_X45_V1_8/Dave/Generated/CAN_NODE\can_node.h ****   uint8_t mo_count;                                  /**< GUI configured value Consumed CAN MO coun
 185:C:/Workspaces/DAVE-4.4.2-64Bit/_PKDS_TSTS06_923M_X45_V1_8/Dave/Generated/CAN_NODE\can_node.h ****   bool lec_event_enable;                       /**< GUI configured value for LEC event check box  *
 186:C:/Workspaces/DAVE-4.4.2-64Bit/_PKDS_TSTS06_923M_X45_V1_8/Dave/Generated/CAN_NODE\can_node.h ****   bool txok_event_enable;                      /**< GUI configured value for transmit OK event chec
 187:C:/Workspaces/DAVE-4.4.2-64Bit/_PKDS_TSTS06_923M_X45_V1_8/Dave/Generated/CAN_NODE\can_node.h ****   bool alert_event_enable;                     /**< GUI configured value for alert event check box 
 188:C:/Workspaces/DAVE-4.4.2-64Bit/_PKDS_TSTS06_923M_X45_V1_8/Dave/Generated/CAN_NODE\can_node.h ****   bool framecount_event_enable;                /**< GUI configured value for frame count event chec
 189:C:/Workspaces/DAVE-4.4.2-64Bit/_PKDS_TSTS06_923M_X45_V1_8/Dave/Generated/CAN_NODE\can_node.h ****   bool loopback_enable;                        /**< GUI configured value for loop back enable check
 190:C:/Workspaces/DAVE-4.4.2-64Bit/_PKDS_TSTS06_923M_X45_V1_8/Dave/Generated/CAN_NODE\can_node.h **** 
 191:C:/Workspaces/DAVE-4.4.2-64Bit/_PKDS_TSTS06_923M_X45_V1_8/Dave/Generated/CAN_NODE\can_node.h **** } CAN_NODE_t;
 192:C:/Workspaces/DAVE-4.4.2-64Bit/_PKDS_TSTS06_923M_X45_V1_8/Dave/Generated/CAN_NODE\can_node.h **** 
 193:C:/Workspaces/DAVE-4.4.2-64Bit/_PKDS_TSTS06_923M_X45_V1_8/Dave/Generated/CAN_NODE\can_node.h **** /**
 194:C:/Workspaces/DAVE-4.4.2-64Bit/_PKDS_TSTS06_923M_X45_V1_8/Dave/Generated/CAN_NODE\can_node.h ****  * @}
 195:C:/Workspaces/DAVE-4.4.2-64Bit/_PKDS_TSTS06_923M_X45_V1_8/Dave/Generated/CAN_NODE\can_node.h ****  */
 196:C:/Workspaces/DAVE-4.4.2-64Bit/_PKDS_TSTS06_923M_X45_V1_8/Dave/Generated/CAN_NODE\can_node.h **** 
 197:C:/Workspaces/DAVE-4.4.2-64Bit/_PKDS_TSTS06_923M_X45_V1_8/Dave/Generated/CAN_NODE\can_node.h **** /**************************************************************************************************
 198:C:/Workspaces/DAVE-4.4.2-64Bit/_PKDS_TSTS06_923M_X45_V1_8/Dave/Generated/CAN_NODE\can_node.h **** * API Prototypes
 199:C:/Workspaces/DAVE-4.4.2-64Bit/_PKDS_TSTS06_923M_X45_V1_8/Dave/Generated/CAN_NODE\can_node.h **** ***************************************************************************************************
 200:C:/Workspaces/DAVE-4.4.2-64Bit/_PKDS_TSTS06_923M_X45_V1_8/Dave/Generated/CAN_NODE\can_node.h **** /* Support for C++ codebase */
 201:C:/Workspaces/DAVE-4.4.2-64Bit/_PKDS_TSTS06_923M_X45_V1_8/Dave/Generated/CAN_NODE\can_node.h **** #ifdef __cplusplus
 202:C:/Workspaces/DAVE-4.4.2-64Bit/_PKDS_TSTS06_923M_X45_V1_8/Dave/Generated/CAN_NODE\can_node.h **** extern "C" {
 203:C:/Workspaces/DAVE-4.4.2-64Bit/_PKDS_TSTS06_923M_X45_V1_8/Dave/Generated/CAN_NODE\can_node.h **** #endif
 204:C:/Workspaces/DAVE-4.4.2-64Bit/_PKDS_TSTS06_923M_X45_V1_8/Dave/Generated/CAN_NODE\can_node.h **** 
 205:C:/Workspaces/DAVE-4.4.2-64Bit/_PKDS_TSTS06_923M_X45_V1_8/Dave/Generated/CAN_NODE\can_node.h **** /**
 206:C:/Workspaces/DAVE-4.4.2-64Bit/_PKDS_TSTS06_923M_X45_V1_8/Dave/Generated/CAN_NODE\can_node.h ****  * @ingroup CAN_NODE_apidoc
 207:C:/Workspaces/DAVE-4.4.2-64Bit/_PKDS_TSTS06_923M_X45_V1_8/Dave/Generated/CAN_NODE\can_node.h ****  * @{
 208:C:/Workspaces/DAVE-4.4.2-64Bit/_PKDS_TSTS06_923M_X45_V1_8/Dave/Generated/CAN_NODE\can_node.h ****  */
 209:C:/Workspaces/DAVE-4.4.2-64Bit/_PKDS_TSTS06_923M_X45_V1_8/Dave/Generated/CAN_NODE\can_node.h **** 
 210:C:/Workspaces/DAVE-4.4.2-64Bit/_PKDS_TSTS06_923M_X45_V1_8/Dave/Generated/CAN_NODE\can_node.h **** /**
 211:C:/Workspaces/DAVE-4.4.2-64Bit/_PKDS_TSTS06_923M_X45_V1_8/Dave/Generated/CAN_NODE\can_node.h ****  * @brief Function to read the CAN_NODE APP version.
 212:C:/Workspaces/DAVE-4.4.2-64Bit/_PKDS_TSTS06_923M_X45_V1_8/Dave/Generated/CAN_NODE\can_node.h ****  *
 213:C:/Workspaces/DAVE-4.4.2-64Bit/_PKDS_TSTS06_923M_X45_V1_8/Dave/Generated/CAN_NODE\can_node.h ****  * @return DAVE_APP_VERSION_t Structure that contains the members
 214:C:/Workspaces/DAVE-4.4.2-64Bit/_PKDS_TSTS06_923M_X45_V1_8/Dave/Generated/CAN_NODE\can_node.h ****  *         major, minor and patch values.
 215:C:/Workspaces/DAVE-4.4.2-64Bit/_PKDS_TSTS06_923M_X45_V1_8/Dave/Generated/CAN_NODE\can_node.h ****  *
 216:C:/Workspaces/DAVE-4.4.2-64Bit/_PKDS_TSTS06_923M_X45_V1_8/Dave/Generated/CAN_NODE\can_node.h ****  * \par<b>Description:</b><br>
 217:C:/Workspaces/DAVE-4.4.2-64Bit/_PKDS_TSTS06_923M_X45_V1_8/Dave/Generated/CAN_NODE\can_node.h ****  * The function can be used to check application software compatibility with a
 218:C:/Workspaces/DAVE-4.4.2-64Bit/_PKDS_TSTS06_923M_X45_V1_8/Dave/Generated/CAN_NODE\can_node.h ****  * specific version of the APP.
 219:C:/Workspaces/DAVE-4.4.2-64Bit/_PKDS_TSTS06_923M_X45_V1_8/Dave/Generated/CAN_NODE\can_node.h ****  *
 220:C:/Workspaces/DAVE-4.4.2-64Bit/_PKDS_TSTS06_923M_X45_V1_8/Dave/Generated/CAN_NODE\can_node.h ****  *
 221:C:/Workspaces/DAVE-4.4.2-64Bit/_PKDS_TSTS06_923M_X45_V1_8/Dave/Generated/CAN_NODE\can_node.h ****  * Example Usage:
 222:C:/Workspaces/DAVE-4.4.2-64Bit/_PKDS_TSTS06_923M_X45_V1_8/Dave/Generated/CAN_NODE\can_node.h ****  * 
 223:C:/Workspaces/DAVE-4.4.2-64Bit/_PKDS_TSTS06_923M_X45_V1_8/Dave/Generated/CAN_NODE\can_node.h ****  * @code
 224:C:/Workspaces/DAVE-4.4.2-64Bit/_PKDS_TSTS06_923M_X45_V1_8/Dave/Generated/CAN_NODE\can_node.h ****  * #include "DAVE.h"         //Declarations from DAVE Code Generation (includes SFR declaration)
 225:C:/Workspaces/DAVE-4.4.2-64Bit/_PKDS_TSTS06_923M_X45_V1_8/Dave/Generated/CAN_NODE\can_node.h ****  *
 226:C:/Workspaces/DAVE-4.4.2-64Bit/_PKDS_TSTS06_923M_X45_V1_8/Dave/Generated/CAN_NODE\can_node.h ****  * int main(void)
 227:C:/Workspaces/DAVE-4.4.2-64Bit/_PKDS_TSTS06_923M_X45_V1_8/Dave/Generated/CAN_NODE\can_node.h ****  * {
 228:C:/Workspaces/DAVE-4.4.2-64Bit/_PKDS_TSTS06_923M_X45_V1_8/Dave/Generated/CAN_NODE\can_node.h ****  *   DAVE_STATUS_t init_status;
 229:C:/Workspaces/DAVE-4.4.2-64Bit/_PKDS_TSTS06_923M_X45_V1_8/Dave/Generated/CAN_NODE\can_node.h ****  *   DAVE_APP_VERSION_t can_version;
 230:C:/Workspaces/DAVE-4.4.2-64Bit/_PKDS_TSTS06_923M_X45_V1_8/Dave/Generated/CAN_NODE\can_node.h ****  *   init_status = DAVE_Init();
 231:C:/Workspaces/DAVE-4.4.2-64Bit/_PKDS_TSTS06_923M_X45_V1_8/Dave/Generated/CAN_NODE\can_node.h ****  *   if (init_status == DAVE_STATUS_SUCCESS)
 232:C:/Workspaces/DAVE-4.4.2-64Bit/_PKDS_TSTS06_923M_X45_V1_8/Dave/Generated/CAN_NODE\can_node.h ****  *   {
 233:C:/Workspaces/DAVE-4.4.2-64Bit/_PKDS_TSTS06_923M_X45_V1_8/Dave/Generated/CAN_NODE\can_node.h ****  *     can_version = CAN_NODE_GetAppVersion();
 234:C:/Workspaces/DAVE-4.4.2-64Bit/_PKDS_TSTS06_923M_X45_V1_8/Dave/Generated/CAN_NODE\can_node.h ****  *     if ((can_version.major == 4U) &&
 235:C:/Workspaces/DAVE-4.4.2-64Bit/_PKDS_TSTS06_923M_X45_V1_8/Dave/Generated/CAN_NODE\can_node.h ****  *         (can_version.minor == 1U))
 236:C:/Workspaces/DAVE-4.4.2-64Bit/_PKDS_TSTS06_923M_X45_V1_8/Dave/Generated/CAN_NODE\can_node.h ****  *     {
 237:C:/Workspaces/DAVE-4.4.2-64Bit/_PKDS_TSTS06_923M_X45_V1_8/Dave/Generated/CAN_NODE\can_node.h ****  *       // Application code
 238:C:/Workspaces/DAVE-4.4.2-64Bit/_PKDS_TSTS06_923M_X45_V1_8/Dave/Generated/CAN_NODE\can_node.h ****  *     }
 239:C:/Workspaces/DAVE-4.4.2-64Bit/_PKDS_TSTS06_923M_X45_V1_8/Dave/Generated/CAN_NODE\can_node.h ****  *     else
 240:C:/Workspaces/DAVE-4.4.2-64Bit/_PKDS_TSTS06_923M_X45_V1_8/Dave/Generated/CAN_NODE\can_node.h ****  *     {
 241:C:/Workspaces/DAVE-4.4.2-64Bit/_PKDS_TSTS06_923M_X45_V1_8/Dave/Generated/CAN_NODE\can_node.h ****  *       // Probably, not the right version.
 242:C:/Workspaces/DAVE-4.4.2-64Bit/_PKDS_TSTS06_923M_X45_V1_8/Dave/Generated/CAN_NODE\can_node.h ****  *     }
 243:C:/Workspaces/DAVE-4.4.2-64Bit/_PKDS_TSTS06_923M_X45_V1_8/Dave/Generated/CAN_NODE\can_node.h ****  *   }
 244:C:/Workspaces/DAVE-4.4.2-64Bit/_PKDS_TSTS06_923M_X45_V1_8/Dave/Generated/CAN_NODE\can_node.h ****  * 
 245:C:/Workspaces/DAVE-4.4.2-64Bit/_PKDS_TSTS06_923M_X45_V1_8/Dave/Generated/CAN_NODE\can_node.h ****  *   // More code here
 246:C:/Workspaces/DAVE-4.4.2-64Bit/_PKDS_TSTS06_923M_X45_V1_8/Dave/Generated/CAN_NODE\can_node.h ****  *   while(1)
 247:C:/Workspaces/DAVE-4.4.2-64Bit/_PKDS_TSTS06_923M_X45_V1_8/Dave/Generated/CAN_NODE\can_node.h ****  *   {
 248:C:/Workspaces/DAVE-4.4.2-64Bit/_PKDS_TSTS06_923M_X45_V1_8/Dave/Generated/CAN_NODE\can_node.h ****  *   }
 249:C:/Workspaces/DAVE-4.4.2-64Bit/_PKDS_TSTS06_923M_X45_V1_8/Dave/Generated/CAN_NODE\can_node.h ****  *
 250:C:/Workspaces/DAVE-4.4.2-64Bit/_PKDS_TSTS06_923M_X45_V1_8/Dave/Generated/CAN_NODE\can_node.h ****  *   return (1);
 251:C:/Workspaces/DAVE-4.4.2-64Bit/_PKDS_TSTS06_923M_X45_V1_8/Dave/Generated/CAN_NODE\can_node.h ****  *  }
 252:C:/Workspaces/DAVE-4.4.2-64Bit/_PKDS_TSTS06_923M_X45_V1_8/Dave/Generated/CAN_NODE\can_node.h ****  *  @endcode
 253:C:/Workspaces/DAVE-4.4.2-64Bit/_PKDS_TSTS06_923M_X45_V1_8/Dave/Generated/CAN_NODE\can_node.h ****  */
 254:C:/Workspaces/DAVE-4.4.2-64Bit/_PKDS_TSTS06_923M_X45_V1_8/Dave/Generated/CAN_NODE\can_node.h **** DAVE_APP_VERSION_t CAN_NODE_GetAppVersion(void);
 255:C:/Workspaces/DAVE-4.4.2-64Bit/_PKDS_TSTS06_923M_X45_V1_8/Dave/Generated/CAN_NODE\can_node.h **** 
 256:C:/Workspaces/DAVE-4.4.2-64Bit/_PKDS_TSTS06_923M_X45_V1_8/Dave/Generated/CAN_NODE\can_node.h **** /**
 257:C:/Workspaces/DAVE-4.4.2-64Bit/_PKDS_TSTS06_923M_X45_V1_8/Dave/Generated/CAN_NODE\can_node.h ****  * @brief Function to initialize the CAN node by configuring the baud rate,
 258:C:/Workspaces/DAVE-4.4.2-64Bit/_PKDS_TSTS06_923M_X45_V1_8/Dave/Generated/CAN_NODE\can_node.h ****  *        can bus type(External or internal) and message objects.
 259:C:/Workspaces/DAVE-4.4.2-64Bit/_PKDS_TSTS06_923M_X45_V1_8/Dave/Generated/CAN_NODE\can_node.h ****  *
 260:C:/Workspaces/DAVE-4.4.2-64Bit/_PKDS_TSTS06_923M_X45_V1_8/Dave/Generated/CAN_NODE\can_node.h ****  * @param handle  is a pointer pointing to APP data structure.@ref CAN_NODE_t
 261:C:/Workspaces/DAVE-4.4.2-64Bit/_PKDS_TSTS06_923M_X45_V1_8/Dave/Generated/CAN_NODE\can_node.h ****  * @return CAN_NODE_STATUS_t CAN_NODE_STATUS_SUCCESS: if the initialization succeeds.<BR>
 262:C:/Workspaces/DAVE-4.4.2-64Bit/_PKDS_TSTS06_923M_X45_V1_8/Dave/Generated/CAN_NODE\can_node.h ****  *                           CAN_NODE_STATUS_FAILURE  : for failure case.<BR>
 263:C:/Workspaces/DAVE-4.4.2-64Bit/_PKDS_TSTS06_923M_X45_V1_8/Dave/Generated/CAN_NODE\can_node.h ****  *
 264:C:/Workspaces/DAVE-4.4.2-64Bit/_PKDS_TSTS06_923M_X45_V1_8/Dave/Generated/CAN_NODE\can_node.h ****  * \par<b>Description:</b><br>
 265:C:/Workspaces/DAVE-4.4.2-64Bit/_PKDS_TSTS06_923M_X45_V1_8/Dave/Generated/CAN_NODE\can_node.h ****  * This function internally calls GLOBAL_CAN_Init() API to configure peripheral frequency
 266:C:/Workspaces/DAVE-4.4.2-64Bit/_PKDS_TSTS06_923M_X45_V1_8/Dave/Generated/CAN_NODE\can_node.h ****  * to enable CAN communication. API configures loop back mode or external CAN bus, message objects
 267:C:/Workspaces/DAVE-4.4.2-64Bit/_PKDS_TSTS06_923M_X45_V1_8/Dave/Generated/CAN_NODE\can_node.h ****  *  based on the settings and enables configured event flags and service request values.
 268:C:/Workspaces/DAVE-4.4.2-64Bit/_PKDS_TSTS06_923M_X45_V1_8/Dave/Generated/CAN_NODE\can_node.h ****  *
 269:C:/Workspaces/DAVE-4.4.2-64Bit/_PKDS_TSTS06_923M_X45_V1_8/Dave/Generated/CAN_NODE\can_node.h ****  * <BR>
 270:C:/Workspaces/DAVE-4.4.2-64Bit/_PKDS_TSTS06_923M_X45_V1_8/Dave/Generated/CAN_NODE\can_node.h ****  *
 271:C:/Workspaces/DAVE-4.4.2-64Bit/_PKDS_TSTS06_923M_X45_V1_8/Dave/Generated/CAN_NODE\can_node.h ****  * Example Usage:
 272:C:/Workspaces/DAVE-4.4.2-64Bit/_PKDS_TSTS06_923M_X45_V1_8/Dave/Generated/CAN_NODE\can_node.h ****  * @code
 273:C:/Workspaces/DAVE-4.4.2-64Bit/_PKDS_TSTS06_923M_X45_V1_8/Dave/Generated/CAN_NODE\can_node.h ****  * #include "DAVE.h"         //Declarations from DAVE Code Generation (includes SFR declaration)
 274:C:/Workspaces/DAVE-4.4.2-64Bit/_PKDS_TSTS06_923M_X45_V1_8/Dave/Generated/CAN_NODE\can_node.h ****  *
 275:C:/Workspaces/DAVE-4.4.2-64Bit/_PKDS_TSTS06_923M_X45_V1_8/Dave/Generated/CAN_NODE\can_node.h ****  * int main(void)
 276:C:/Workspaces/DAVE-4.4.2-64Bit/_PKDS_TSTS06_923M_X45_V1_8/Dave/Generated/CAN_NODE\can_node.h ****  * {
 277:C:/Workspaces/DAVE-4.4.2-64Bit/_PKDS_TSTS06_923M_X45_V1_8/Dave/Generated/CAN_NODE\can_node.h ****  *   CAN_NODE_STATUS_t init_status;
 278:C:/Workspaces/DAVE-4.4.2-64Bit/_PKDS_TSTS06_923M_X45_V1_8/Dave/Generated/CAN_NODE\can_node.h ****  *   // DAVE_Init() internally calls CAN_NODE_Init()
 279:C:/Workspaces/DAVE-4.4.2-64Bit/_PKDS_TSTS06_923M_X45_V1_8/Dave/Generated/CAN_NODE\can_node.h ****  *   init_status = CAN_NODE_Init(&CAN_NODE_0);
 280:C:/Workspaces/DAVE-4.4.2-64Bit/_PKDS_TSTS06_923M_X45_V1_8/Dave/Generated/CAN_NODE\can_node.h ****  *   if (init_status == CAN_NODE_STATUS_SUCCESS)
 281:C:/Workspaces/DAVE-4.4.2-64Bit/_PKDS_TSTS06_923M_X45_V1_8/Dave/Generated/CAN_NODE\can_node.h ****  *   {
 282:C:/Workspaces/DAVE-4.4.2-64Bit/_PKDS_TSTS06_923M_X45_V1_8/Dave/Generated/CAN_NODE\can_node.h ****  *     // Application code
 283:C:/Workspaces/DAVE-4.4.2-64Bit/_PKDS_TSTS06_923M_X45_V1_8/Dave/Generated/CAN_NODE\can_node.h ****  *   }
 284:C:/Workspaces/DAVE-4.4.2-64Bit/_PKDS_TSTS06_923M_X45_V1_8/Dave/Generated/CAN_NODE\can_node.h ****  *   else
 285:C:/Workspaces/DAVE-4.4.2-64Bit/_PKDS_TSTS06_923M_X45_V1_8/Dave/Generated/CAN_NODE\can_node.h ****  *   {
 286:C:/Workspaces/DAVE-4.4.2-64Bit/_PKDS_TSTS06_923M_X45_V1_8/Dave/Generated/CAN_NODE\can_node.h ****  *     // Failed to initialize the CAN peripheral
 287:C:/Workspaces/DAVE-4.4.2-64Bit/_PKDS_TSTS06_923M_X45_V1_8/Dave/Generated/CAN_NODE\can_node.h ****  *   }
 288:C:/Workspaces/DAVE-4.4.2-64Bit/_PKDS_TSTS06_923M_X45_V1_8/Dave/Generated/CAN_NODE\can_node.h ****  *   // More code here
 289:C:/Workspaces/DAVE-4.4.2-64Bit/_PKDS_TSTS06_923M_X45_V1_8/Dave/Generated/CAN_NODE\can_node.h ****  *   while(1)
 290:C:/Workspaces/DAVE-4.4.2-64Bit/_PKDS_TSTS06_923M_X45_V1_8/Dave/Generated/CAN_NODE\can_node.h ****  *   {
 291:C:/Workspaces/DAVE-4.4.2-64Bit/_PKDS_TSTS06_923M_X45_V1_8/Dave/Generated/CAN_NODE\can_node.h ****  *   }
 292:C:/Workspaces/DAVE-4.4.2-64Bit/_PKDS_TSTS06_923M_X45_V1_8/Dave/Generated/CAN_NODE\can_node.h ****  *
 293:C:/Workspaces/DAVE-4.4.2-64Bit/_PKDS_TSTS06_923M_X45_V1_8/Dave/Generated/CAN_NODE\can_node.h ****  *   return (1);
 294:C:/Workspaces/DAVE-4.4.2-64Bit/_PKDS_TSTS06_923M_X45_V1_8/Dave/Generated/CAN_NODE\can_node.h ****  *  }
 295:C:/Workspaces/DAVE-4.4.2-64Bit/_PKDS_TSTS06_923M_X45_V1_8/Dave/Generated/CAN_NODE\can_node.h ****  *  @endcode
 296:C:/Workspaces/DAVE-4.4.2-64Bit/_PKDS_TSTS06_923M_X45_V1_8/Dave/Generated/CAN_NODE\can_node.h ****  */
 297:C:/Workspaces/DAVE-4.4.2-64Bit/_PKDS_TSTS06_923M_X45_V1_8/Dave/Generated/CAN_NODE\can_node.h **** CAN_NODE_STATUS_t CAN_NODE_Init(const CAN_NODE_t *handle);
 298:C:/Workspaces/DAVE-4.4.2-64Bit/_PKDS_TSTS06_923M_X45_V1_8/Dave/Generated/CAN_NODE\can_node.h **** 
 299:C:/Workspaces/DAVE-4.4.2-64Bit/_PKDS_TSTS06_923M_X45_V1_8/Dave/Generated/CAN_NODE\can_node.h **** /**
 300:C:/Workspaces/DAVE-4.4.2-64Bit/_PKDS_TSTS06_923M_X45_V1_8/Dave/Generated/CAN_NODE\can_node.h ****  * @brief Function to initialize the CAN message object. It configures message type,
 301:C:/Workspaces/DAVE-4.4.2-64Bit/_PKDS_TSTS06_923M_X45_V1_8/Dave/Generated/CAN_NODE\can_node.h ****  *         message ID type, Identifier value, mask bits, required data length.<br>
 302:C:/Workspaces/DAVE-4.4.2-64Bit/_PKDS_TSTS06_923M_X45_V1_8/Dave/Generated/CAN_NODE\can_node.h ****  *         It also configures the transmit and receive events for the message object.<br>
 303:C:/Workspaces/DAVE-4.4.2-64Bit/_PKDS_TSTS06_923M_X45_V1_8/Dave/Generated/CAN_NODE\can_node.h ****  *
 304:C:/Workspaces/DAVE-4.4.2-64Bit/_PKDS_TSTS06_923M_X45_V1_8/Dave/Generated/CAN_NODE\can_node.h ****  * @param lmo_ptr is a handle with pointers to static and dynamic content of message object.@ref CA
 305:C:/Workspaces/DAVE-4.4.2-64Bit/_PKDS_TSTS06_923M_X45_V1_8/Dave/Generated/CAN_NODE\can_node.h ****  * @return None.
 306:C:/Workspaces/DAVE-4.4.2-64Bit/_PKDS_TSTS06_923M_X45_V1_8/Dave/Generated/CAN_NODE\can_node.h ****  *
 307:C:/Workspaces/DAVE-4.4.2-64Bit/_PKDS_TSTS06_923M_X45_V1_8/Dave/Generated/CAN_NODE\can_node.h ****  * \par<b>Description:</b><br>
 308:C:/Workspaces/DAVE-4.4.2-64Bit/_PKDS_TSTS06_923M_X45_V1_8/Dave/Generated/CAN_NODE\can_node.h ****  *
 309:C:/Workspaces/DAVE-4.4.2-64Bit/_PKDS_TSTS06_923M_X45_V1_8/Dave/Generated/CAN_NODE\can_node.h ****  *  It configures message type to transmit / receive message object, message ID type to standard / 
 310:C:/Workspaces/DAVE-4.4.2-64Bit/_PKDS_TSTS06_923M_X45_V1_8/Dave/Generated/CAN_NODE\can_node.h ****  *         Identifier value, mask bits,required data length for the transmit message object.
 311:C:/Workspaces/DAVE-4.4.2-64Bit/_PKDS_TSTS06_923M_X45_V1_8/Dave/Generated/CAN_NODE\can_node.h ****  *  It also enables configured event flags for message objects.
 312:C:/Workspaces/DAVE-4.4.2-64Bit/_PKDS_TSTS06_923M_X45_V1_8/Dave/Generated/CAN_NODE\can_node.h ****  *  To achieve this functionality API calls XMC_CAN_MO_Config().
 313:C:/Workspaces/DAVE-4.4.2-64Bit/_PKDS_TSTS06_923M_X45_V1_8/Dave/Generated/CAN_NODE\can_node.h ****  * <BR>
 314:C:/Workspaces/DAVE-4.4.2-64Bit/_PKDS_TSTS06_923M_X45_V1_8/Dave/Generated/CAN_NODE\can_node.h ****  *
 315:C:/Workspaces/DAVE-4.4.2-64Bit/_PKDS_TSTS06_923M_X45_V1_8/Dave/Generated/CAN_NODE\can_node.h ****  * Example Usage:
 316:C:/Workspaces/DAVE-4.4.2-64Bit/_PKDS_TSTS06_923M_X45_V1_8/Dave/Generated/CAN_NODE\can_node.h ****  * 
 317:C:/Workspaces/DAVE-4.4.2-64Bit/_PKDS_TSTS06_923M_X45_V1_8/Dave/Generated/CAN_NODE\can_node.h ****  * @code
 318:C:/Workspaces/DAVE-4.4.2-64Bit/_PKDS_TSTS06_923M_X45_V1_8/Dave/Generated/CAN_NODE\can_node.h ****  *   #include "DAVE.h"         //Declarations from DAVE Code Generation (includes SFR declaration)
 319:C:/Workspaces/DAVE-4.4.2-64Bit/_PKDS_TSTS06_923M_X45_V1_8/Dave/Generated/CAN_NODE\can_node.h ****  *
 320:C:/Workspaces/DAVE-4.4.2-64Bit/_PKDS_TSTS06_923M_X45_V1_8/Dave/Generated/CAN_NODE\can_node.h ****  *   int main(void)
 321:C:/Workspaces/DAVE-4.4.2-64Bit/_PKDS_TSTS06_923M_X45_V1_8/Dave/Generated/CAN_NODE\can_node.h ****  *   {
 322:C:/Workspaces/DAVE-4.4.2-64Bit/_PKDS_TSTS06_923M_X45_V1_8/Dave/Generated/CAN_NODE\can_node.h ****  *     DAVE_STATUS_t init_status;
 323:C:/Workspaces/DAVE-4.4.2-64Bit/_PKDS_TSTS06_923M_X45_V1_8/Dave/Generated/CAN_NODE\can_node.h ****  *     const CAN_NODE_t *HandlePtr1 = &CAN_NODE_0;
 324:C:/Workspaces/DAVE-4.4.2-64Bit/_PKDS_TSTS06_923M_X45_V1_8/Dave/Generated/CAN_NODE\can_node.h ****  *     XMC_CAN_MO_t *MO_Ptr;
 325:C:/Workspaces/DAVE-4.4.2-64Bit/_PKDS_TSTS06_923M_X45_V1_8/Dave/Generated/CAN_NODE\can_node.h ****  *
 326:C:/Workspaces/DAVE-4.4.2-64Bit/_PKDS_TSTS06_923M_X45_V1_8/Dave/Generated/CAN_NODE\can_node.h ****  *     MO_Ptr = HandlePtr1->lmobj_ptr[0]->mo_ptr;   //'0' refers to first message object configured
 327:C:/Workspaces/DAVE-4.4.2-64Bit/_PKDS_TSTS06_923M_X45_V1_8/Dave/Generated/CAN_NODE\can_node.h ****  *                                                   // for the selected can node
 328:C:/Workspaces/DAVE-4.4.2-64Bit/_PKDS_TSTS06_923M_X45_V1_8/Dave/Generated/CAN_NODE\can_node.h ****  *
 329:C:/Workspaces/DAVE-4.4.2-64Bit/_PKDS_TSTS06_923M_X45_V1_8/Dave/Generated/CAN_NODE\can_node.h ****  *     init_status = DAVE_Init(); //CAN_NODE_Init();
 330:C:/Workspaces/DAVE-4.4.2-64Bit/_PKDS_TSTS06_923M_X45_V1_8/Dave/Generated/CAN_NODE\can_node.h ****  *
 331:C:/Workspaces/DAVE-4.4.2-64Bit/_PKDS_TSTS06_923M_X45_V1_8/Dave/Generated/CAN_NODE\can_node.h ****  *     if (init_status == DAVE_STATUS_SUCCESS)
 332:C:/Workspaces/DAVE-4.4.2-64Bit/_PKDS_TSTS06_923M_X45_V1_8/Dave/Generated/CAN_NODE\can_node.h ****  *     {
 333:C:/Workspaces/DAVE-4.4.2-64Bit/_PKDS_TSTS06_923M_X45_V1_8/Dave/Generated/CAN_NODE\can_node.h ****  *
 334:C:/Workspaces/DAVE-4.4.2-64Bit/_PKDS_TSTS06_923M_X45_V1_8/Dave/Generated/CAN_NODE\can_node.h ****  *       //Application code.
 335:C:/Workspaces/DAVE-4.4.2-64Bit/_PKDS_TSTS06_923M_X45_V1_8/Dave/Generated/CAN_NODE\can_node.h ****  *
 336:C:/Workspaces/DAVE-4.4.2-64Bit/_PKDS_TSTS06_923M_X45_V1_8/Dave/Generated/CAN_NODE\can_node.h ****  *       MO_Ptr->can_mo_type = XMC_CAN_MO_TYPE_TRANSMSGOBJ;  //Configure message object type as tra
 337:C:/Workspaces/DAVE-4.4.2-64Bit/_PKDS_TSTS06_923M_X45_V1_8/Dave/Generated/CAN_NODE\can_node.h ****  *       MO_Ptr->can_id_mode = XMC_CAN_FRAME_TYPE_STANDARD_11BITS; //configure MO identifier type
 338:C:/Workspaces/DAVE-4.4.2-64Bit/_PKDS_TSTS06_923M_X45_V1_8/Dave/Generated/CAN_NODE\can_node.h ****  *       MO_Ptr->can_data_length = 8; // Configure CAN transmit MO data length field
 339:C:/Workspaces/DAVE-4.4.2-64Bit/_PKDS_TSTS06_923M_X45_V1_8/Dave/Generated/CAN_NODE\can_node.h ****  *       MO_Ptr->can_data[1] = 0xAAAA5555;  // Configure Higher 4 bytes of Data
 340:C:/Workspaces/DAVE-4.4.2-64Bit/_PKDS_TSTS06_923M_X45_V1_8/Dave/Generated/CAN_NODE\can_node.h ****  *       MO_Ptr->can_data[0] = 0xAAAA5555;  // Configure Lower 4 bytes of Data
 341:C:/Workspaces/DAVE-4.4.2-64Bit/_PKDS_TSTS06_923M_X45_V1_8/Dave/Generated/CAN_NODE\can_node.h ****  *       // Runtime change the MO configuration
 342:C:/Workspaces/DAVE-4.4.2-64Bit/_PKDS_TSTS06_923M_X45_V1_8/Dave/Generated/CAN_NODE\can_node.h ****  *       CAN_NODE_MO_Init(HandlePtr1->lmobj_ptr[0]);
 343:C:/Workspaces/DAVE-4.4.2-64Bit/_PKDS_TSTS06_923M_X45_V1_8/Dave/Generated/CAN_NODE\can_node.h ****  *
 344:C:/Workspaces/DAVE-4.4.2-64Bit/_PKDS_TSTS06_923M_X45_V1_8/Dave/Generated/CAN_NODE\can_node.h ****  *     }
 345:C:/Workspaces/DAVE-4.4.2-64Bit/_PKDS_TSTS06_923M_X45_V1_8/Dave/Generated/CAN_NODE\can_node.h ****  *     else
 346:C:/Workspaces/DAVE-4.4.2-64Bit/_PKDS_TSTS06_923M_X45_V1_8/Dave/Generated/CAN_NODE\can_node.h ****  *     {
 347:C:/Workspaces/DAVE-4.4.2-64Bit/_PKDS_TSTS06_923M_X45_V1_8/Dave/Generated/CAN_NODE\can_node.h ****  *       // CAN initialization failed
 348:C:/Workspaces/DAVE-4.4.2-64Bit/_PKDS_TSTS06_923M_X45_V1_8/Dave/Generated/CAN_NODE\can_node.h ****  *     }
 349:C:/Workspaces/DAVE-4.4.2-64Bit/_PKDS_TSTS06_923M_X45_V1_8/Dave/Generated/CAN_NODE\can_node.h ****  *     // More code here
 350:C:/Workspaces/DAVE-4.4.2-64Bit/_PKDS_TSTS06_923M_X45_V1_8/Dave/Generated/CAN_NODE\can_node.h ****  *     while(1)
 351:C:/Workspaces/DAVE-4.4.2-64Bit/_PKDS_TSTS06_923M_X45_V1_8/Dave/Generated/CAN_NODE\can_node.h ****  *     {
 352:C:/Workspaces/DAVE-4.4.2-64Bit/_PKDS_TSTS06_923M_X45_V1_8/Dave/Generated/CAN_NODE\can_node.h ****  *
 353:C:/Workspaces/DAVE-4.4.2-64Bit/_PKDS_TSTS06_923M_X45_V1_8/Dave/Generated/CAN_NODE\can_node.h ****  *     }
 354:C:/Workspaces/DAVE-4.4.2-64Bit/_PKDS_TSTS06_923M_X45_V1_8/Dave/Generated/CAN_NODE\can_node.h ****  *
 355:C:/Workspaces/DAVE-4.4.2-64Bit/_PKDS_TSTS06_923M_X45_V1_8/Dave/Generated/CAN_NODE\can_node.h ****  *     return (1);
 356:C:/Workspaces/DAVE-4.4.2-64Bit/_PKDS_TSTS06_923M_X45_V1_8/Dave/Generated/CAN_NODE\can_node.h ****  *  }
 357:C:/Workspaces/DAVE-4.4.2-64Bit/_PKDS_TSTS06_923M_X45_V1_8/Dave/Generated/CAN_NODE\can_node.h ****  *  @endcode
 358:C:/Workspaces/DAVE-4.4.2-64Bit/_PKDS_TSTS06_923M_X45_V1_8/Dave/Generated/CAN_NODE\can_node.h ****  */
 359:C:/Workspaces/DAVE-4.4.2-64Bit/_PKDS_TSTS06_923M_X45_V1_8/Dave/Generated/CAN_NODE\can_node.h **** void CAN_NODE_MO_Init(const CAN_NODE_LMO_t *lmo_ptr);
 360:C:/Workspaces/DAVE-4.4.2-64Bit/_PKDS_TSTS06_923M_X45_V1_8/Dave/Generated/CAN_NODE\can_node.h **** 
 361:C:/Workspaces/DAVE-4.4.2-64Bit/_PKDS_TSTS06_923M_X45_V1_8/Dave/Generated/CAN_NODE\can_node.h **** /**
 362:C:/Workspaces/DAVE-4.4.2-64Bit/_PKDS_TSTS06_923M_X45_V1_8/Dave/Generated/CAN_NODE\can_node.h ****  * @brief Function to configures the CAN bit time by using SJW, sample point and can frequency.<br>
 363:C:/Workspaces/DAVE-4.4.2-64Bit/_PKDS_TSTS06_923M_X45_V1_8/Dave/Generated/CAN_NODE\can_node.h ****  *
 364:C:/Workspaces/DAVE-4.4.2-64Bit/_PKDS_TSTS06_923M_X45_V1_8/Dave/Generated/CAN_NODE\can_node.h ****  * @param handle is a pointer pointing to APP data structure.@ref CAN_NODE_t
 365:C:/Workspaces/DAVE-4.4.2-64Bit/_PKDS_TSTS06_923M_X45_V1_8/Dave/Generated/CAN_NODE\can_node.h ****  * @param baudrate  is the required baud rate for the CAN node.
 366:C:/Workspaces/DAVE-4.4.2-64Bit/_PKDS_TSTS06_923M_X45_V1_8/Dave/Generated/CAN_NODE\can_node.h ****  * @param sample_point is the sample point for the bit time.<br>
 367:C:/Workspaces/DAVE-4.4.2-64Bit/_PKDS_TSTS06_923M_X45_V1_8/Dave/Generated/CAN_NODE\can_node.h ****  *        \b Range: 0% to 100% of the total bit time.<br>
 368:C:/Workspaces/DAVE-4.4.2-64Bit/_PKDS_TSTS06_923M_X45_V1_8/Dave/Generated/CAN_NODE\can_node.h ****  * @param sjw is the (synchronization jump width) time quanta for resynchronizations.<br>
 369:C:/Workspaces/DAVE-4.4.2-64Bit/_PKDS_TSTS06_923M_X45_V1_8/Dave/Generated/CAN_NODE\can_node.h ****  *
 370:C:/Workspaces/DAVE-4.4.2-64Bit/_PKDS_TSTS06_923M_X45_V1_8/Dave/Generated/CAN_NODE\can_node.h ****  * @return None.<BR>
 371:C:/Workspaces/DAVE-4.4.2-64Bit/_PKDS_TSTS06_923M_X45_V1_8/Dave/Generated/CAN_NODE\can_node.h ****  *
 372:C:/Workspaces/DAVE-4.4.2-64Bit/_PKDS_TSTS06_923M_X45_V1_8/Dave/Generated/CAN_NODE\can_node.h ****  * \par<b>Description:</b><br>
 373:C:/Workspaces/DAVE-4.4.2-64Bit/_PKDS_TSTS06_923M_X45_V1_8/Dave/Generated/CAN_NODE\can_node.h ****  *
 374:C:/Workspaces/DAVE-4.4.2-64Bit/_PKDS_TSTS06_923M_X45_V1_8/Dave/Generated/CAN_NODE\can_node.h ****  * This function configures the CAN node bit time by updating synchronous jump width,
 375:C:/Workspaces/DAVE-4.4.2-64Bit/_PKDS_TSTS06_923M_X45_V1_8/Dave/Generated/CAN_NODE\can_node.h ****  *      baud rate prescaler(BRP),sample point, divider mode, and time segment values to
 376:C:/Workspaces/DAVE-4.4.2-64Bit/_PKDS_TSTS06_923M_X45_V1_8/Dave/Generated/CAN_NODE\can_node.h ****  *      the node bit timing register(NBTR). To achieve this functionality
 377:C:/Workspaces/DAVE-4.4.2-64Bit/_PKDS_TSTS06_923M_X45_V1_8/Dave/Generated/CAN_NODE\can_node.h ****  *      API calls XMC_CAN_NODE_NominalBitTimeConfigure().
 378:C:/Workspaces/DAVE-4.4.2-64Bit/_PKDS_TSTS06_923M_X45_V1_8/Dave/Generated/CAN_NODE\can_node.h ****  * <BR>
 379:C:/Workspaces/DAVE-4.4.2-64Bit/_PKDS_TSTS06_923M_X45_V1_8/Dave/Generated/CAN_NODE\can_node.h ****  *
 380:C:/Workspaces/DAVE-4.4.2-64Bit/_PKDS_TSTS06_923M_X45_V1_8/Dave/Generated/CAN_NODE\can_node.h ****  * Example Usage:
 381:C:/Workspaces/DAVE-4.4.2-64Bit/_PKDS_TSTS06_923M_X45_V1_8/Dave/Generated/CAN_NODE\can_node.h ****  * 
 382:C:/Workspaces/DAVE-4.4.2-64Bit/_PKDS_TSTS06_923M_X45_V1_8/Dave/Generated/CAN_NODE\can_node.h ****  * @code
 383:C:/Workspaces/DAVE-4.4.2-64Bit/_PKDS_TSTS06_923M_X45_V1_8/Dave/Generated/CAN_NODE\can_node.h ****  * #include "DAVE.h"         //Declarations from DAVE Code Generation (includes SFR declaration)
 384:C:/Workspaces/DAVE-4.4.2-64Bit/_PKDS_TSTS06_923M_X45_V1_8/Dave/Generated/CAN_NODE\can_node.h ****  *
 385:C:/Workspaces/DAVE-4.4.2-64Bit/_PKDS_TSTS06_923M_X45_V1_8/Dave/Generated/CAN_NODE\can_node.h ****  * int main(void)
 386:C:/Workspaces/DAVE-4.4.2-64Bit/_PKDS_TSTS06_923M_X45_V1_8/Dave/Generated/CAN_NODE\can_node.h ****  * {
 387:C:/Workspaces/DAVE-4.4.2-64Bit/_PKDS_TSTS06_923M_X45_V1_8/Dave/Generated/CAN_NODE\can_node.h ****  *   const CAN_NODE_t *HandlePtr1= &CAN_NODE_0;
 388:C:/Workspaces/DAVE-4.4.2-64Bit/_PKDS_TSTS06_923M_X45_V1_8/Dave/Generated/CAN_NODE\can_node.h ****  *   DAVE_STATUS_t init_status;
 389:C:/Workspaces/DAVE-4.4.2-64Bit/_PKDS_TSTS06_923M_X45_V1_8/Dave/Generated/CAN_NODE\can_node.h ****  *   uint32_t new_baudrate = 1000000;  // in Hz
 390:C:/Workspaces/DAVE-4.4.2-64Bit/_PKDS_TSTS06_923M_X45_V1_8/Dave/Generated/CAN_NODE\can_node.h ****  *   uint16_t new_sampe_point = 80;
 391:C:/Workspaces/DAVE-4.4.2-64Bit/_PKDS_TSTS06_923M_X45_V1_8/Dave/Generated/CAN_NODE\can_node.h ****  *   uint8_t new_sjw = 2;
 392:C:/Workspaces/DAVE-4.4.2-64Bit/_PKDS_TSTS06_923M_X45_V1_8/Dave/Generated/CAN_NODE\can_node.h ****  *
 393:C:/Workspaces/DAVE-4.4.2-64Bit/_PKDS_TSTS06_923M_X45_V1_8/Dave/Generated/CAN_NODE\can_node.h ****  *   init_status = DAVE_Init();
 394:C:/Workspaces/DAVE-4.4.2-64Bit/_PKDS_TSTS06_923M_X45_V1_8/Dave/Generated/CAN_NODE\can_node.h ****  *   // DAVE_Init() internally calls CAN_NODE_Init()
 395:C:/Workspaces/DAVE-4.4.2-64Bit/_PKDS_TSTS06_923M_X45_V1_8/Dave/Generated/CAN_NODE\can_node.h ****  *   //CAN_NODE_Init() internally calls CAN_NODE_ConfigBaudrate()
 396:C:/Workspaces/DAVE-4.4.2-64Bit/_PKDS_TSTS06_923M_X45_V1_8/Dave/Generated/CAN_NODE\can_node.h ****  *   if (init_status == DAVE_STATUS_SUCCESS)
 397:C:/Workspaces/DAVE-4.4.2-64Bit/_PKDS_TSTS06_923M_X45_V1_8/Dave/Generated/CAN_NODE\can_node.h ****  *   {
 398:C:/Workspaces/DAVE-4.4.2-64Bit/_PKDS_TSTS06_923M_X45_V1_8/Dave/Generated/CAN_NODE\can_node.h ****  *     //  Application code ........
 399:C:/Workspaces/DAVE-4.4.2-64Bit/_PKDS_TSTS06_923M_X45_V1_8/Dave/Generated/CAN_NODE\can_node.h ****  *
 400:C:/Workspaces/DAVE-4.4.2-64Bit/_PKDS_TSTS06_923M_X45_V1_8/Dave/Generated/CAN_NODE\can_node.h ****  *     // For run time baud rate configuration change
 401:C:/Workspaces/DAVE-4.4.2-64Bit/_PKDS_TSTS06_923M_X45_V1_8/Dave/Generated/CAN_NODE\can_node.h ****  *     // Configure new baud rate to 1MHz
 402:C:/Workspaces/DAVE-4.4.2-64Bit/_PKDS_TSTS06_923M_X45_V1_8/Dave/Generated/CAN_NODE\can_node.h ****  *
 403:C:/Workspaces/DAVE-4.4.2-64Bit/_PKDS_TSTS06_923M_X45_V1_8/Dave/Generated/CAN_NODE\can_node.h ****  *     XMC_CAN_NODE_SetInitBit(HandlePtr1->node_ptr);
 404:C:/Workspaces/DAVE-4.4.2-64Bit/_PKDS_TSTS06_923M_X45_V1_8/Dave/Generated/CAN_NODE\can_node.h ****  *
 405:C:/Workspaces/DAVE-4.4.2-64Bit/_PKDS_TSTS06_923M_X45_V1_8/Dave/Generated/CAN_NODE\can_node.h ****  *     CAN_NODE_ConfigBaudrate(HandlePtr1, new_baudrate, new_sampe_point,new_sjw);
 406:C:/Workspaces/DAVE-4.4.2-64Bit/_PKDS_TSTS06_923M_X45_V1_8/Dave/Generated/CAN_NODE\can_node.h ****  *
 407:C:/Workspaces/DAVE-4.4.2-64Bit/_PKDS_TSTS06_923M_X45_V1_8/Dave/Generated/CAN_NODE\can_node.h ****  *     XMC_CAN_NODE_ResetInitBit(HandlePtr1->node_ptr);
 408:C:/Workspaces/DAVE-4.4.2-64Bit/_PKDS_TSTS06_923M_X45_V1_8/Dave/Generated/CAN_NODE\can_node.h ****  *
 409:C:/Workspaces/DAVE-4.4.2-64Bit/_PKDS_TSTS06_923M_X45_V1_8/Dave/Generated/CAN_NODE\can_node.h ****  *   }
 410:C:/Workspaces/DAVE-4.4.2-64Bit/_PKDS_TSTS06_923M_X45_V1_8/Dave/Generated/CAN_NODE\can_node.h ****  * 
 411:C:/Workspaces/DAVE-4.4.2-64Bit/_PKDS_TSTS06_923M_X45_V1_8/Dave/Generated/CAN_NODE\can_node.h ****  *   // More code here
 412:C:/Workspaces/DAVE-4.4.2-64Bit/_PKDS_TSTS06_923M_X45_V1_8/Dave/Generated/CAN_NODE\can_node.h ****  *   while(1)
 413:C:/Workspaces/DAVE-4.4.2-64Bit/_PKDS_TSTS06_923M_X45_V1_8/Dave/Generated/CAN_NODE\can_node.h ****  *   {
 414:C:/Workspaces/DAVE-4.4.2-64Bit/_PKDS_TSTS06_923M_X45_V1_8/Dave/Generated/CAN_NODE\can_node.h ****  *   }
 415:C:/Workspaces/DAVE-4.4.2-64Bit/_PKDS_TSTS06_923M_X45_V1_8/Dave/Generated/CAN_NODE\can_node.h ****  *
 416:C:/Workspaces/DAVE-4.4.2-64Bit/_PKDS_TSTS06_923M_X45_V1_8/Dave/Generated/CAN_NODE\can_node.h ****  *   return (1);
 417:C:/Workspaces/DAVE-4.4.2-64Bit/_PKDS_TSTS06_923M_X45_V1_8/Dave/Generated/CAN_NODE\can_node.h ****  * }
 418:C:/Workspaces/DAVE-4.4.2-64Bit/_PKDS_TSTS06_923M_X45_V1_8/Dave/Generated/CAN_NODE\can_node.h ****  * @endcode
 419:C:/Workspaces/DAVE-4.4.2-64Bit/_PKDS_TSTS06_923M_X45_V1_8/Dave/Generated/CAN_NODE\can_node.h ****  */
 420:C:/Workspaces/DAVE-4.4.2-64Bit/_PKDS_TSTS06_923M_X45_V1_8/Dave/Generated/CAN_NODE\can_node.h **** void CAN_NODE_ConfigBaudrate(const CAN_NODE_t *handle, uint32_t baudrate, uint16_t sample_point, ui
 421:C:/Workspaces/DAVE-4.4.2-64Bit/_PKDS_TSTS06_923M_X45_V1_8/Dave/Generated/CAN_NODE\can_node.h **** 
 422:C:/Workspaces/DAVE-4.4.2-64Bit/_PKDS_TSTS06_923M_X45_V1_8/Dave/Generated/CAN_NODE\can_node.h **** 
 423:C:/Workspaces/DAVE-4.4.2-64Bit/_PKDS_TSTS06_923M_X45_V1_8/Dave/Generated/CAN_NODE\can_node.h **** /**
 424:C:/Workspaces/DAVE-4.4.2-64Bit/_PKDS_TSTS06_923M_X45_V1_8/Dave/Generated/CAN_NODE\can_node.h ****  * @brief Function to enable the node events like node alert, LEC, Transfer OK, frame counter overf
 425:C:/Workspaces/DAVE-4.4.2-64Bit/_PKDS_TSTS06_923M_X45_V1_8/Dave/Generated/CAN_NODE\can_node.h ****  * @param handle is a pointer pointing to APP data structure.@ref CAN_NODE_t<br>
 426:C:/Workspaces/DAVE-4.4.2-64Bit/_PKDS_TSTS06_923M_X45_V1_8/Dave/Generated/CAN_NODE\can_node.h ****  * @param  node_event is the required node event to enable. @ref XMC_CAN_NODE_EVENT_t <br>
 427:C:/Workspaces/DAVE-4.4.2-64Bit/_PKDS_TSTS06_923M_X45_V1_8/Dave/Generated/CAN_NODE\can_node.h ****  *         \b Note:  Multiple events can not be combined using \a OR operation.
 428:C:/Workspaces/DAVE-4.4.2-64Bit/_PKDS_TSTS06_923M_X45_V1_8/Dave/Generated/CAN_NODE\can_node.h ****  * @return None <BR>
 429:C:/Workspaces/DAVE-4.4.2-64Bit/_PKDS_TSTS06_923M_X45_V1_8/Dave/Generated/CAN_NODE\can_node.h ****  *
 430:C:/Workspaces/DAVE-4.4.2-64Bit/_PKDS_TSTS06_923M_X45_V1_8/Dave/Generated/CAN_NODE\can_node.h ****  * \par<b>Description:</b><br>
 431:C:/Workspaces/DAVE-4.4.2-64Bit/_PKDS_TSTS06_923M_X45_V1_8/Dave/Generated/CAN_NODE\can_node.h ****  * This function check the node event flags which are enabled through GUI. If the flags are configu
 432:C:/Workspaces/DAVE-4.4.2-64Bit/_PKDS_TSTS06_923M_X45_V1_8/Dave/Generated/CAN_NODE\can_node.h ****  * then API enables the related CAN node events.
 433:C:/Workspaces/DAVE-4.4.2-64Bit/_PKDS_TSTS06_923M_X45_V1_8/Dave/Generated/CAN_NODE\can_node.h ****  * 1. XMC_CAN_NODE_EVENT_TX_INT
 434:C:/Workspaces/DAVE-4.4.2-64Bit/_PKDS_TSTS06_923M_X45_V1_8/Dave/Generated/CAN_NODE\can_node.h ****  * 2. XMC_CAN_NODE_EVENT_LEC
 435:C:/Workspaces/DAVE-4.4.2-64Bit/_PKDS_TSTS06_923M_X45_V1_8/Dave/Generated/CAN_NODE\can_node.h ****  * 3. XMC_CAN_NODE_EVENT_ALERT
 436:C:/Workspaces/DAVE-4.4.2-64Bit/_PKDS_TSTS06_923M_X45_V1_8/Dave/Generated/CAN_NODE\can_node.h ****  * 4. XMC_CAN_NODE_EVENT_CFCIE
 437:C:/Workspaces/DAVE-4.4.2-64Bit/_PKDS_TSTS06_923M_X45_V1_8/Dave/Generated/CAN_NODE\can_node.h ****  * This API enables the above events by configuring NCR register.
 438:C:/Workspaces/DAVE-4.4.2-64Bit/_PKDS_TSTS06_923M_X45_V1_8/Dave/Generated/CAN_NODE\can_node.h ****  * To achieve this functionality API calls XMC_CAN_NODE_EnableEvent().
 439:C:/Workspaces/DAVE-4.4.2-64Bit/_PKDS_TSTS06_923M_X45_V1_8/Dave/Generated/CAN_NODE\can_node.h ****  * <BR>
 440:C:/Workspaces/DAVE-4.4.2-64Bit/_PKDS_TSTS06_923M_X45_V1_8/Dave/Generated/CAN_NODE\can_node.h ****  *
 441:C:/Workspaces/DAVE-4.4.2-64Bit/_PKDS_TSTS06_923M_X45_V1_8/Dave/Generated/CAN_NODE\can_node.h ****  * Example Usage:
 442:C:/Workspaces/DAVE-4.4.2-64Bit/_PKDS_TSTS06_923M_X45_V1_8/Dave/Generated/CAN_NODE\can_node.h ****  * 
 443:C:/Workspaces/DAVE-4.4.2-64Bit/_PKDS_TSTS06_923M_X45_V1_8/Dave/Generated/CAN_NODE\can_node.h ****  * @code
 444:C:/Workspaces/DAVE-4.4.2-64Bit/_PKDS_TSTS06_923M_X45_V1_8/Dave/Generated/CAN_NODE\can_node.h ****  * #include "DAVE.h"         //Declarations from DAVE Code Generation (includes SFR declaration)
 445:C:/Workspaces/DAVE-4.4.2-64Bit/_PKDS_TSTS06_923M_X45_V1_8/Dave/Generated/CAN_NODE\can_node.h ****  *
 446:C:/Workspaces/DAVE-4.4.2-64Bit/_PKDS_TSTS06_923M_X45_V1_8/Dave/Generated/CAN_NODE\can_node.h ****  * int main(void)
 447:C:/Workspaces/DAVE-4.4.2-64Bit/_PKDS_TSTS06_923M_X45_V1_8/Dave/Generated/CAN_NODE\can_node.h ****  * {
 448:C:/Workspaces/DAVE-4.4.2-64Bit/_PKDS_TSTS06_923M_X45_V1_8/Dave/Generated/CAN_NODE\can_node.h ****  *   DAVE_STATUS_t init_status;
 449:C:/Workspaces/DAVE-4.4.2-64Bit/_PKDS_TSTS06_923M_X45_V1_8/Dave/Generated/CAN_NODE\can_node.h ****  *   const CAN_NODE_t *HandlePtr1 = &CAN_NODE_0;
 450:C:/Workspaces/DAVE-4.4.2-64Bit/_PKDS_TSTS06_923M_X45_V1_8/Dave/Generated/CAN_NODE\can_node.h ****  *
 451:C:/Workspaces/DAVE-4.4.2-64Bit/_PKDS_TSTS06_923M_X45_V1_8/Dave/Generated/CAN_NODE\can_node.h ****  *   init_status = DAVE_Init();
 452:C:/Workspaces/DAVE-4.4.2-64Bit/_PKDS_TSTS06_923M_X45_V1_8/Dave/Generated/CAN_NODE\can_node.h ****  *   //DAVE_Init();   internally calls CAN_NODE_Init()
 453:C:/Workspaces/DAVE-4.4.2-64Bit/_PKDS_TSTS06_923M_X45_V1_8/Dave/Generated/CAN_NODE\can_node.h ****  *   //CAN_NODE_Init() internally calls CAN_NODE_EnableEvent()
 454:C:/Workspaces/DAVE-4.4.2-64Bit/_PKDS_TSTS06_923M_X45_V1_8/Dave/Generated/CAN_NODE\can_node.h ****  *   if (init_status == DAVE_STATUS_SUCCESS)
 455:C:/Workspaces/DAVE-4.4.2-64Bit/_PKDS_TSTS06_923M_X45_V1_8/Dave/Generated/CAN_NODE\can_node.h ****  *   {
 456:C:/Workspaces/DAVE-4.4.2-64Bit/_PKDS_TSTS06_923M_X45_V1_8/Dave/Generated/CAN_NODE\can_node.h ****  *     // Application code ..
 457:C:/Workspaces/DAVE-4.4.2-64Bit/_PKDS_TSTS06_923M_X45_V1_8/Dave/Generated/CAN_NODE\can_node.h ****  *
 458:C:/Workspaces/DAVE-4.4.2-64Bit/_PKDS_TSTS06_923M_X45_V1_8/Dave/Generated/CAN_NODE\can_node.h ****  *     // enable the events during run time....
 459:C:/Workspaces/DAVE-4.4.2-64Bit/_PKDS_TSTS06_923M_X45_V1_8/Dave/Generated/CAN_NODE\can_node.h ****  *     //  enable LEC event
 460:C:/Workspaces/DAVE-4.4.2-64Bit/_PKDS_TSTS06_923M_X45_V1_8/Dave/Generated/CAN_NODE\can_node.h ****  *     CAN_NODE_EnableEvent(HandlePtr1,XMC_CAN_NODE_EVENT_ALERT);
 461:C:/Workspaces/DAVE-4.4.2-64Bit/_PKDS_TSTS06_923M_X45_V1_8/Dave/Generated/CAN_NODE\can_node.h ****  *     // enable Alert event
 462:C:/Workspaces/DAVE-4.4.2-64Bit/_PKDS_TSTS06_923M_X45_V1_8/Dave/Generated/CAN_NODE\can_node.h ****  *     CAN_NODE_EnableEvent(HandlePtr1,XMC_CAN_NODE_EVENT_LEC);
 463:C:/Workspaces/DAVE-4.4.2-64Bit/_PKDS_TSTS06_923M_X45_V1_8/Dave/Generated/CAN_NODE\can_node.h ****  *     // enable Transmit OK event
 464:C:/Workspaces/DAVE-4.4.2-64Bit/_PKDS_TSTS06_923M_X45_V1_8/Dave/Generated/CAN_NODE\can_node.h ****  *     CAN_NODE_EnableEvent(HandlePtr1,XMC_CAN_NODE_EVENT_TX_INT);
 465:C:/Workspaces/DAVE-4.4.2-64Bit/_PKDS_TSTS06_923M_X45_V1_8/Dave/Generated/CAN_NODE\can_node.h ****  *     // enable CFCIE event
 466:C:/Workspaces/DAVE-4.4.2-64Bit/_PKDS_TSTS06_923M_X45_V1_8/Dave/Generated/CAN_NODE\can_node.h ****  *     CAN_NODE_EnableEvent(HandlePtr1,XMC_CAN_NODE_EVENT_CFCIE);
 467:C:/Workspaces/DAVE-4.4.2-64Bit/_PKDS_TSTS06_923M_X45_V1_8/Dave/Generated/CAN_NODE\can_node.h ****  *
 468:C:/Workspaces/DAVE-4.4.2-64Bit/_PKDS_TSTS06_923M_X45_V1_8/Dave/Generated/CAN_NODE\can_node.h ****  *     // Application code...
 469:C:/Workspaces/DAVE-4.4.2-64Bit/_PKDS_TSTS06_923M_X45_V1_8/Dave/Generated/CAN_NODE\can_node.h ****  *
 470:C:/Workspaces/DAVE-4.4.2-64Bit/_PKDS_TSTS06_923M_X45_V1_8/Dave/Generated/CAN_NODE\can_node.h ****  *     // disable the events by calling CAN_NODE_DisableEvent() API
 471:C:/Workspaces/DAVE-4.4.2-64Bit/_PKDS_TSTS06_923M_X45_V1_8/Dave/Generated/CAN_NODE\can_node.h ****  *
 472:C:/Workspaces/DAVE-4.4.2-64Bit/_PKDS_TSTS06_923M_X45_V1_8/Dave/Generated/CAN_NODE\can_node.h ****  *   }
 473:C:/Workspaces/DAVE-4.4.2-64Bit/_PKDS_TSTS06_923M_X45_V1_8/Dave/Generated/CAN_NODE\can_node.h ****  *   // More code here
 474:C:/Workspaces/DAVE-4.4.2-64Bit/_PKDS_TSTS06_923M_X45_V1_8/Dave/Generated/CAN_NODE\can_node.h ****  *   while (1)
 475:C:/Workspaces/DAVE-4.4.2-64Bit/_PKDS_TSTS06_923M_X45_V1_8/Dave/Generated/CAN_NODE\can_node.h ****  *   {
 476:C:/Workspaces/DAVE-4.4.2-64Bit/_PKDS_TSTS06_923M_X45_V1_8/Dave/Generated/CAN_NODE\can_node.h ****  *   }
 477:C:/Workspaces/DAVE-4.4.2-64Bit/_PKDS_TSTS06_923M_X45_V1_8/Dave/Generated/CAN_NODE\can_node.h ****  *
 478:C:/Workspaces/DAVE-4.4.2-64Bit/_PKDS_TSTS06_923M_X45_V1_8/Dave/Generated/CAN_NODE\can_node.h ****  *   return (1);
 479:C:/Workspaces/DAVE-4.4.2-64Bit/_PKDS_TSTS06_923M_X45_V1_8/Dave/Generated/CAN_NODE\can_node.h ****  * }
 480:C:/Workspaces/DAVE-4.4.2-64Bit/_PKDS_TSTS06_923M_X45_V1_8/Dave/Generated/CAN_NODE\can_node.h ****  * @endcode
 481:C:/Workspaces/DAVE-4.4.2-64Bit/_PKDS_TSTS06_923M_X45_V1_8/Dave/Generated/CAN_NODE\can_node.h ****  */
 482:C:/Workspaces/DAVE-4.4.2-64Bit/_PKDS_TSTS06_923M_X45_V1_8/Dave/Generated/CAN_NODE\can_node.h **** void CAN_NODE_EnableEvent(const CAN_NODE_t *handle, const XMC_CAN_NODE_EVENT_t node_event);
 483:C:/Workspaces/DAVE-4.4.2-64Bit/_PKDS_TSTS06_923M_X45_V1_8/Dave/Generated/CAN_NODE\can_node.h **** 
 484:C:/Workspaces/DAVE-4.4.2-64Bit/_PKDS_TSTS06_923M_X45_V1_8/Dave/Generated/CAN_NODE\can_node.h **** /**
 485:C:/Workspaces/DAVE-4.4.2-64Bit/_PKDS_TSTS06_923M_X45_V1_8/Dave/Generated/CAN_NODE\can_node.h ****  * @brief Function to disable the selected node events like node alert, LEC, Transfer OK, frame cou
 486:C:/Workspaces/DAVE-4.4.2-64Bit/_PKDS_TSTS06_923M_X45_V1_8/Dave/Generated/CAN_NODE\can_node.h ****  * @param handle is a pointer pointing to APP data structure.@ref CAN_NODE_t.<br>
 487:C:/Workspaces/DAVE-4.4.2-64Bit/_PKDS_TSTS06_923M_X45_V1_8/Dave/Generated/CAN_NODE\can_node.h ****  * @param  node_event is the required node event to disable. @ref XMC_CAN_NODE_EVENT_t <br>
 488:C:/Workspaces/DAVE-4.4.2-64Bit/_PKDS_TSTS06_923M_X45_V1_8/Dave/Generated/CAN_NODE\can_node.h ****  *         \b Note:  Multiple events can not be combined using \a OR operation.
 489:C:/Workspaces/DAVE-4.4.2-64Bit/_PKDS_TSTS06_923M_X45_V1_8/Dave/Generated/CAN_NODE\can_node.h ****  * @return None.<BR>
 490:C:/Workspaces/DAVE-4.4.2-64Bit/_PKDS_TSTS06_923M_X45_V1_8/Dave/Generated/CAN_NODE\can_node.h ****  *
 491:C:/Workspaces/DAVE-4.4.2-64Bit/_PKDS_TSTS06_923M_X45_V1_8/Dave/Generated/CAN_NODE\can_node.h ****  * \par<b>Description:</b><br>
 492:C:/Workspaces/DAVE-4.4.2-64Bit/_PKDS_TSTS06_923M_X45_V1_8/Dave/Generated/CAN_NODE\can_node.h ****  *
 493:C:/Workspaces/DAVE-4.4.2-64Bit/_PKDS_TSTS06_923M_X45_V1_8/Dave/Generated/CAN_NODE\can_node.h ****  * This function disables the CAN node events. Using the API following node events can be disabled,
 494:C:/Workspaces/DAVE-4.4.2-64Bit/_PKDS_TSTS06_923M_X45_V1_8/Dave/Generated/CAN_NODE\can_node.h ****  * 1. XMC_CAN_NODE_EVENT_TX_INT
 495:C:/Workspaces/DAVE-4.4.2-64Bit/_PKDS_TSTS06_923M_X45_V1_8/Dave/Generated/CAN_NODE\can_node.h ****  * 2. XMC_CAN_NODE_EVENT_LEC
 496:C:/Workspaces/DAVE-4.4.2-64Bit/_PKDS_TSTS06_923M_X45_V1_8/Dave/Generated/CAN_NODE\can_node.h ****  * 3. XMC_CAN_NODE_EVENT_ALERT
 497:C:/Workspaces/DAVE-4.4.2-64Bit/_PKDS_TSTS06_923M_X45_V1_8/Dave/Generated/CAN_NODE\can_node.h ****  * 4. XMC_CAN_NODE_EVENT_CFCIE
 498:C:/Workspaces/DAVE-4.4.2-64Bit/_PKDS_TSTS06_923M_X45_V1_8/Dave/Generated/CAN_NODE\can_node.h ****  * To achieve this functionality API calls XMC_CAN_NODE_DisableEvent().
 499:C:/Workspaces/DAVE-4.4.2-64Bit/_PKDS_TSTS06_923M_X45_V1_8/Dave/Generated/CAN_NODE\can_node.h ****  * <BR>
 500:C:/Workspaces/DAVE-4.4.2-64Bit/_PKDS_TSTS06_923M_X45_V1_8/Dave/Generated/CAN_NODE\can_node.h ****  *
 501:C:/Workspaces/DAVE-4.4.2-64Bit/_PKDS_TSTS06_923M_X45_V1_8/Dave/Generated/CAN_NODE\can_node.h ****  * Example Usage:
 502:C:/Workspaces/DAVE-4.4.2-64Bit/_PKDS_TSTS06_923M_X45_V1_8/Dave/Generated/CAN_NODE\can_node.h ****  * 
 503:C:/Workspaces/DAVE-4.4.2-64Bit/_PKDS_TSTS06_923M_X45_V1_8/Dave/Generated/CAN_NODE\can_node.h ****  * @code
 504:C:/Workspaces/DAVE-4.4.2-64Bit/_PKDS_TSTS06_923M_X45_V1_8/Dave/Generated/CAN_NODE\can_node.h ****  * #include "DAVE.h"         //Declarations from DAVE Code Generation (includes SFR declaration)
 505:C:/Workspaces/DAVE-4.4.2-64Bit/_PKDS_TSTS06_923M_X45_V1_8/Dave/Generated/CAN_NODE\can_node.h ****  *
 506:C:/Workspaces/DAVE-4.4.2-64Bit/_PKDS_TSTS06_923M_X45_V1_8/Dave/Generated/CAN_NODE\can_node.h ****  * int main(void)
 507:C:/Workspaces/DAVE-4.4.2-64Bit/_PKDS_TSTS06_923M_X45_V1_8/Dave/Generated/CAN_NODE\can_node.h ****  * {
 508:C:/Workspaces/DAVE-4.4.2-64Bit/_PKDS_TSTS06_923M_X45_V1_8/Dave/Generated/CAN_NODE\can_node.h ****  *   DAVE_STATUS_t init_status;
 509:C:/Workspaces/DAVE-4.4.2-64Bit/_PKDS_TSTS06_923M_X45_V1_8/Dave/Generated/CAN_NODE\can_node.h ****  *   const CAN_NODE_t *HandlePtr1= &CAN_NODE_0;
 510:C:/Workspaces/DAVE-4.4.2-64Bit/_PKDS_TSTS06_923M_X45_V1_8/Dave/Generated/CAN_NODE\can_node.h ****  *
 511:C:/Workspaces/DAVE-4.4.2-64Bit/_PKDS_TSTS06_923M_X45_V1_8/Dave/Generated/CAN_NODE\can_node.h ****  *   init_status = DAVE_Init();
 512:C:/Workspaces/DAVE-4.4.2-64Bit/_PKDS_TSTS06_923M_X45_V1_8/Dave/Generated/CAN_NODE\can_node.h ****  *   if (init_status == DAVE_STATUS_SUCCESS)
 513:C:/Workspaces/DAVE-4.4.2-64Bit/_PKDS_TSTS06_923M_X45_V1_8/Dave/Generated/CAN_NODE\can_node.h ****  *   {
 514:C:/Workspaces/DAVE-4.4.2-64Bit/_PKDS_TSTS06_923M_X45_V1_8/Dave/Generated/CAN_NODE\can_node.h ****  *
 515:C:/Workspaces/DAVE-4.4.2-64Bit/_PKDS_TSTS06_923M_X45_V1_8/Dave/Generated/CAN_NODE\can_node.h ****  *     // Application code..
 516:C:/Workspaces/DAVE-4.4.2-64Bit/_PKDS_TSTS06_923M_X45_V1_8/Dave/Generated/CAN_NODE\can_node.h ****  *
 517:C:/Workspaces/DAVE-4.4.2-64Bit/_PKDS_TSTS06_923M_X45_V1_8/Dave/Generated/CAN_NODE\can_node.h ****  *     //  enable LEC event
 518:C:/Workspaces/DAVE-4.4.2-64Bit/_PKDS_TSTS06_923M_X45_V1_8/Dave/Generated/CAN_NODE\can_node.h ****  *     CAN_NODE_EnableEvent(HandlePtr1,XMC_CAN_NODE_EVENT_ALERT);
 519:C:/Workspaces/DAVE-4.4.2-64Bit/_PKDS_TSTS06_923M_X45_V1_8/Dave/Generated/CAN_NODE\can_node.h ****  *     // enable Alert event
 520:C:/Workspaces/DAVE-4.4.2-64Bit/_PKDS_TSTS06_923M_X45_V1_8/Dave/Generated/CAN_NODE\can_node.h ****  *     CAN_NODE_EnableEvent(HandlePtr1,XMC_CAN_NODE_EVENT_LEC);
 521:C:/Workspaces/DAVE-4.4.2-64Bit/_PKDS_TSTS06_923M_X45_V1_8/Dave/Generated/CAN_NODE\can_node.h ****  *     // enable Transmit OK event
 522:C:/Workspaces/DAVE-4.4.2-64Bit/_PKDS_TSTS06_923M_X45_V1_8/Dave/Generated/CAN_NODE\can_node.h ****  *     CAN_NODE_EnableEvent(HandlePtr1,XMC_CAN_NODE_EVENT_TX_INT);
 523:C:/Workspaces/DAVE-4.4.2-64Bit/_PKDS_TSTS06_923M_X45_V1_8/Dave/Generated/CAN_NODE\can_node.h ****  *     // enable CFCIE event
 524:C:/Workspaces/DAVE-4.4.2-64Bit/_PKDS_TSTS06_923M_X45_V1_8/Dave/Generated/CAN_NODE\can_node.h ****  *     CAN_NODE_EnableEvent(HandlePtr1,XMC_CAN_NODE_EVENT_CFCIE);
 525:C:/Workspaces/DAVE-4.4.2-64Bit/_PKDS_TSTS06_923M_X45_V1_8/Dave/Generated/CAN_NODE\can_node.h ****  *
 526:C:/Workspaces/DAVE-4.4.2-64Bit/_PKDS_TSTS06_923M_X45_V1_8/Dave/Generated/CAN_NODE\can_node.h ****  *     // Application code
 527:C:/Workspaces/DAVE-4.4.2-64Bit/_PKDS_TSTS06_923M_X45_V1_8/Dave/Generated/CAN_NODE\can_node.h ****  *
 528:C:/Workspaces/DAVE-4.4.2-64Bit/_PKDS_TSTS06_923M_X45_V1_8/Dave/Generated/CAN_NODE\can_node.h ****  *
 529:C:/Workspaces/DAVE-4.4.2-64Bit/_PKDS_TSTS06_923M_X45_V1_8/Dave/Generated/CAN_NODE\can_node.h ****  *     // For disabling LEC event
 530:C:/Workspaces/DAVE-4.4.2-64Bit/_PKDS_TSTS06_923M_X45_V1_8/Dave/Generated/CAN_NODE\can_node.h ****  *     CAN_NODE_DisableEvent(HandlePtr1,XMC_CAN_NODE_EVENT_ALERT);
 531:C:/Workspaces/DAVE-4.4.2-64Bit/_PKDS_TSTS06_923M_X45_V1_8/Dave/Generated/CAN_NODE\can_node.h ****  *     // For disabling Alert event
 532:C:/Workspaces/DAVE-4.4.2-64Bit/_PKDS_TSTS06_923M_X45_V1_8/Dave/Generated/CAN_NODE\can_node.h ****  *     CAN_NODE_DisableEvent(HandlePtr1,XMC_CAN_NODE_EVENT_LEC);
 533:C:/Workspaces/DAVE-4.4.2-64Bit/_PKDS_TSTS06_923M_X45_V1_8/Dave/Generated/CAN_NODE\can_node.h ****  *     // For disabling Transmit OK event
 534:C:/Workspaces/DAVE-4.4.2-64Bit/_PKDS_TSTS06_923M_X45_V1_8/Dave/Generated/CAN_NODE\can_node.h ****  *     CAN_NODE_DisableEvent(HandlePtr1,XMC_CAN_NODE_EVENT_TX_INT);
 535:C:/Workspaces/DAVE-4.4.2-64Bit/_PKDS_TSTS06_923M_X45_V1_8/Dave/Generated/CAN_NODE\can_node.h ****  *     // For disabling CFCIE event
 536:C:/Workspaces/DAVE-4.4.2-64Bit/_PKDS_TSTS06_923M_X45_V1_8/Dave/Generated/CAN_NODE\can_node.h ****  *     CAN_NODE_DisableEvent(HandlePtr1,XMC_CAN_NODE_EVENT_CFCIE);
 537:C:/Workspaces/DAVE-4.4.2-64Bit/_PKDS_TSTS06_923M_X45_V1_8/Dave/Generated/CAN_NODE\can_node.h ****  *
 538:C:/Workspaces/DAVE-4.4.2-64Bit/_PKDS_TSTS06_923M_X45_V1_8/Dave/Generated/CAN_NODE\can_node.h ****  *   }
 539:C:/Workspaces/DAVE-4.4.2-64Bit/_PKDS_TSTS06_923M_X45_V1_8/Dave/Generated/CAN_NODE\can_node.h ****  *   // More code here
 540:C:/Workspaces/DAVE-4.4.2-64Bit/_PKDS_TSTS06_923M_X45_V1_8/Dave/Generated/CAN_NODE\can_node.h ****  *   while(1)
 541:C:/Workspaces/DAVE-4.4.2-64Bit/_PKDS_TSTS06_923M_X45_V1_8/Dave/Generated/CAN_NODE\can_node.h ****  *   {
 542:C:/Workspaces/DAVE-4.4.2-64Bit/_PKDS_TSTS06_923M_X45_V1_8/Dave/Generated/CAN_NODE\can_node.h ****  *
 543:C:/Workspaces/DAVE-4.4.2-64Bit/_PKDS_TSTS06_923M_X45_V1_8/Dave/Generated/CAN_NODE\can_node.h ****  *   }
 544:C:/Workspaces/DAVE-4.4.2-64Bit/_PKDS_TSTS06_923M_X45_V1_8/Dave/Generated/CAN_NODE\can_node.h ****  *
 545:C:/Workspaces/DAVE-4.4.2-64Bit/_PKDS_TSTS06_923M_X45_V1_8/Dave/Generated/CAN_NODE\can_node.h ****  *   return (1);
 546:C:/Workspaces/DAVE-4.4.2-64Bit/_PKDS_TSTS06_923M_X45_V1_8/Dave/Generated/CAN_NODE\can_node.h ****  * }
 547:C:/Workspaces/DAVE-4.4.2-64Bit/_PKDS_TSTS06_923M_X45_V1_8/Dave/Generated/CAN_NODE\can_node.h ****  * @endcode
 548:C:/Workspaces/DAVE-4.4.2-64Bit/_PKDS_TSTS06_923M_X45_V1_8/Dave/Generated/CAN_NODE\can_node.h ****  */
 549:C:/Workspaces/DAVE-4.4.2-64Bit/_PKDS_TSTS06_923M_X45_V1_8/Dave/Generated/CAN_NODE\can_node.h **** void CAN_NODE_DisableEvent(const CAN_NODE_t *handle, const XMC_CAN_NODE_EVENT_t node_event);
 550:C:/Workspaces/DAVE-4.4.2-64Bit/_PKDS_TSTS06_923M_X45_V1_8/Dave/Generated/CAN_NODE\can_node.h **** 
 551:C:/Workspaces/DAVE-4.4.2-64Bit/_PKDS_TSTS06_923M_X45_V1_8/Dave/Generated/CAN_NODE\can_node.h **** /**
 552:C:/Workspaces/DAVE-4.4.2-64Bit/_PKDS_TSTS06_923M_X45_V1_8/Dave/Generated/CAN_NODE\can_node.h ****  * @brief Function to retrieve the current status of the can node.
 553:C:/Workspaces/DAVE-4.4.2-64Bit/_PKDS_TSTS06_923M_X45_V1_8/Dave/Generated/CAN_NODE\can_node.h ****  *        It contains error information as well as successfully transferred CAN frames status.
 554:C:/Workspaces/DAVE-4.4.2-64Bit/_PKDS_TSTS06_923M_X45_V1_8/Dave/Generated/CAN_NODE\can_node.h ****  * @param handle  is a pointer pointing to APP data structure.@ref CAN_NODE_t
 555:C:/Workspaces/DAVE-4.4.2-64Bit/_PKDS_TSTS06_923M_X45_V1_8/Dave/Generated/CAN_NODE\can_node.h ****  * @return status of type uint32_t.<BR>
 556:C:/Workspaces/DAVE-4.4.2-64Bit/_PKDS_TSTS06_923M_X45_V1_8/Dave/Generated/CAN_NODE\can_node.h ****  *
 557:C:/Workspaces/DAVE-4.4.2-64Bit/_PKDS_TSTS06_923M_X45_V1_8/Dave/Generated/CAN_NODE\can_node.h ****  * \par<b>Description:</b><br>
 558:C:/Workspaces/DAVE-4.4.2-64Bit/_PKDS_TSTS06_923M_X45_V1_8/Dave/Generated/CAN_NODE\can_node.h ****  * Status provides an overview about the current state of the respective CAN node,
 559:C:/Workspaces/DAVE-4.4.2-64Bit/_PKDS_TSTS06_923M_X45_V1_8/Dave/Generated/CAN_NODE\can_node.h ****  * comprising information about CAN transfers, CAN node status and error conditions.
 560:C:/Workspaces/DAVE-4.4.2-64Bit/_PKDS_TSTS06_923M_X45_V1_8/Dave/Generated/CAN_NODE\can_node.h ****  * It reads NSR (node status register)register.
 561:C:/Workspaces/DAVE-4.4.2-64Bit/_PKDS_TSTS06_923M_X45_V1_8/Dave/Generated/CAN_NODE\can_node.h ****  * To achieve this functionality API calls XMC_CAN_NODE_GetStatus().
 562:C:/Workspaces/DAVE-4.4.2-64Bit/_PKDS_TSTS06_923M_X45_V1_8/Dave/Generated/CAN_NODE\can_node.h ****  *
 563:C:/Workspaces/DAVE-4.4.2-64Bit/_PKDS_TSTS06_923M_X45_V1_8/Dave/Generated/CAN_NODE\can_node.h ****  * <BR>
 564:C:/Workspaces/DAVE-4.4.2-64Bit/_PKDS_TSTS06_923M_X45_V1_8/Dave/Generated/CAN_NODE\can_node.h ****  *
 565:C:/Workspaces/DAVE-4.4.2-64Bit/_PKDS_TSTS06_923M_X45_V1_8/Dave/Generated/CAN_NODE\can_node.h ****  * Example Usage:
 566:C:/Workspaces/DAVE-4.4.2-64Bit/_PKDS_TSTS06_923M_X45_V1_8/Dave/Generated/CAN_NODE\can_node.h ****  * 
 567:C:/Workspaces/DAVE-4.4.2-64Bit/_PKDS_TSTS06_923M_X45_V1_8/Dave/Generated/CAN_NODE\can_node.h ****  * @code
 568:C:/Workspaces/DAVE-4.4.2-64Bit/_PKDS_TSTS06_923M_X45_V1_8/Dave/Generated/CAN_NODE\can_node.h ****  * #include "DAVE.h"         //Declarations from DAVE Code Generation (includes SFR declaration)
 569:C:/Workspaces/DAVE-4.4.2-64Bit/_PKDS_TSTS06_923M_X45_V1_8/Dave/Generated/CAN_NODE\can_node.h ****  *
 570:C:/Workspaces/DAVE-4.4.2-64Bit/_PKDS_TSTS06_923M_X45_V1_8/Dave/Generated/CAN_NODE\can_node.h ****  * int main(void)
 571:C:/Workspaces/DAVE-4.4.2-64Bit/_PKDS_TSTS06_923M_X45_V1_8/Dave/Generated/CAN_NODE\can_node.h ****  * {
 572:C:/Workspaces/DAVE-4.4.2-64Bit/_PKDS_TSTS06_923M_X45_V1_8/Dave/Generated/CAN_NODE\can_node.h ****  *   DAVE_STATUS_t init_status;
 573:C:/Workspaces/DAVE-4.4.2-64Bit/_PKDS_TSTS06_923M_X45_V1_8/Dave/Generated/CAN_NODE\can_node.h ****  *   const CAN_NODE_t *HandlePtr1 = &CAN_NODE_0;
 574:C:/Workspaces/DAVE-4.4.2-64Bit/_PKDS_TSTS06_923M_X45_V1_8/Dave/Generated/CAN_NODE\can_node.h ****  *   uint32_t status;
 575:C:/Workspaces/DAVE-4.4.2-64Bit/_PKDS_TSTS06_923M_X45_V1_8/Dave/Generated/CAN_NODE\can_node.h ****  *
 576:C:/Workspaces/DAVE-4.4.2-64Bit/_PKDS_TSTS06_923M_X45_V1_8/Dave/Generated/CAN_NODE\can_node.h ****  *   init_status = DAVE_Init();
 577:C:/Workspaces/DAVE-4.4.2-64Bit/_PKDS_TSTS06_923M_X45_V1_8/Dave/Generated/CAN_NODE\can_node.h ****  *   if (init_status == DAVE_STATUS_SUCCESS)
 578:C:/Workspaces/DAVE-4.4.2-64Bit/_PKDS_TSTS06_923M_X45_V1_8/Dave/Generated/CAN_NODE\can_node.h ****  *   {
 579:C:/Workspaces/DAVE-4.4.2-64Bit/_PKDS_TSTS06_923M_X45_V1_8/Dave/Generated/CAN_NODE\can_node.h ****  *
 580:C:/Workspaces/DAVE-4.4.2-64Bit/_PKDS_TSTS06_923M_X45_V1_8/Dave/Generated/CAN_NODE\can_node.h ****  *     //Transmit MO data
 581:C:/Workspaces/DAVE-4.4.2-64Bit/_PKDS_TSTS06_923M_X45_V1_8/Dave/Generated/CAN_NODE\can_node.h ****  *     CAN_NODE_MO_Transmit(HandlePtr1->lmobj_ptr[0]);
 582:C:/Workspaces/DAVE-4.4.2-64Bit/_PKDS_TSTS06_923M_X45_V1_8/Dave/Generated/CAN_NODE\can_node.h ****  *
 583:C:/Workspaces/DAVE-4.4.2-64Bit/_PKDS_TSTS06_923M_X45_V1_8/Dave/Generated/CAN_NODE\can_node.h ****  *     status = CAN_NODE_GetStatus(HandlePtr1);
 584:C:/Workspaces/DAVE-4.4.2-64Bit/_PKDS_TSTS06_923M_X45_V1_8/Dave/Generated/CAN_NODE\can_node.h ****  *     if (status & XMC_CAN_NODE_STATUS_TX_OK)
 585:C:/Workspaces/DAVE-4.4.2-64Bit/_PKDS_TSTS06_923M_X45_V1_8/Dave/Generated/CAN_NODE\can_node.h ****  *     {
 586:C:/Workspaces/DAVE-4.4.2-64Bit/_PKDS_TSTS06_923M_X45_V1_8/Dave/Generated/CAN_NODE\can_node.h ****  *       //Message transmitted successfully
 587:C:/Workspaces/DAVE-4.4.2-64Bit/_PKDS_TSTS06_923M_X45_V1_8/Dave/Generated/CAN_NODE\can_node.h ****  *     }
 588:C:/Workspaces/DAVE-4.4.2-64Bit/_PKDS_TSTS06_923M_X45_V1_8/Dave/Generated/CAN_NODE\can_node.h ****  *     else if (status & XMC_CAN_NODE_STATUS_ALERT_WARNING)
 589:C:/Workspaces/DAVE-4.4.2-64Bit/_PKDS_TSTS06_923M_X45_V1_8/Dave/Generated/CAN_NODE\can_node.h ****  *     {
 590:C:/Workspaces/DAVE-4.4.2-64Bit/_PKDS_TSTS06_923M_X45_V1_8/Dave/Generated/CAN_NODE\can_node.h ****  *       // node alert warning event enabled
 591:C:/Workspaces/DAVE-4.4.2-64Bit/_PKDS_TSTS06_923M_X45_V1_8/Dave/Generated/CAN_NODE\can_node.h ****  *     }
 592:C:/Workspaces/DAVE-4.4.2-64Bit/_PKDS_TSTS06_923M_X45_V1_8/Dave/Generated/CAN_NODE\can_node.h ****  *     else if (status & XMC_CAN_NODE_STATUS_BUS_OFF)
 593:C:/Workspaces/DAVE-4.4.2-64Bit/_PKDS_TSTS06_923M_X45_V1_8/Dave/Generated/CAN_NODE\can_node.h ****  *     {
 594:C:/Workspaces/DAVE-4.4.2-64Bit/_PKDS_TSTS06_923M_X45_V1_8/Dave/Generated/CAN_NODE\can_node.h ****  *       //Bus off error
 595:C:/Workspaces/DAVE-4.4.2-64Bit/_PKDS_TSTS06_923M_X45_V1_8/Dave/Generated/CAN_NODE\can_node.h ****  *     }
 596:C:/Workspaces/DAVE-4.4.2-64Bit/_PKDS_TSTS06_923M_X45_V1_8/Dave/Generated/CAN_NODE\can_node.h ****  *
 597:C:/Workspaces/DAVE-4.4.2-64Bit/_PKDS_TSTS06_923M_X45_V1_8/Dave/Generated/CAN_NODE\can_node.h ****  *   }
 598:C:/Workspaces/DAVE-4.4.2-64Bit/_PKDS_TSTS06_923M_X45_V1_8/Dave/Generated/CAN_NODE\can_node.h ****  *   // More code here
 599:C:/Workspaces/DAVE-4.4.2-64Bit/_PKDS_TSTS06_923M_X45_V1_8/Dave/Generated/CAN_NODE\can_node.h ****  *   while(1)
 600:C:/Workspaces/DAVE-4.4.2-64Bit/_PKDS_TSTS06_923M_X45_V1_8/Dave/Generated/CAN_NODE\can_node.h ****  *   {
 601:C:/Workspaces/DAVE-4.4.2-64Bit/_PKDS_TSTS06_923M_X45_V1_8/Dave/Generated/CAN_NODE\can_node.h ****  *
 602:C:/Workspaces/DAVE-4.4.2-64Bit/_PKDS_TSTS06_923M_X45_V1_8/Dave/Generated/CAN_NODE\can_node.h ****  *   }
 603:C:/Workspaces/DAVE-4.4.2-64Bit/_PKDS_TSTS06_923M_X45_V1_8/Dave/Generated/CAN_NODE\can_node.h ****  *
 604:C:/Workspaces/DAVE-4.4.2-64Bit/_PKDS_TSTS06_923M_X45_V1_8/Dave/Generated/CAN_NODE\can_node.h ****  *   return (1);
 605:C:/Workspaces/DAVE-4.4.2-64Bit/_PKDS_TSTS06_923M_X45_V1_8/Dave/Generated/CAN_NODE\can_node.h ****  * }
 606:C:/Workspaces/DAVE-4.4.2-64Bit/_PKDS_TSTS06_923M_X45_V1_8/Dave/Generated/CAN_NODE\can_node.h ****  * @endcode
 607:C:/Workspaces/DAVE-4.4.2-64Bit/_PKDS_TSTS06_923M_X45_V1_8/Dave/Generated/CAN_NODE\can_node.h ****  */
 608:C:/Workspaces/DAVE-4.4.2-64Bit/_PKDS_TSTS06_923M_X45_V1_8/Dave/Generated/CAN_NODE\can_node.h **** uint32_t CAN_NODE_GetStatus(const CAN_NODE_t *handle);
 609:C:/Workspaces/DAVE-4.4.2-64Bit/_PKDS_TSTS06_923M_X45_V1_8/Dave/Generated/CAN_NODE\can_node.h **** 
 610:C:/Workspaces/DAVE-4.4.2-64Bit/_PKDS_TSTS06_923M_X45_V1_8/Dave/Generated/CAN_NODE\can_node.h **** 
 611:C:/Workspaces/DAVE-4.4.2-64Bit/_PKDS_TSTS06_923M_X45_V1_8/Dave/Generated/CAN_NODE\can_node.h **** /**
 612:C:/Workspaces/DAVE-4.4.2-64Bit/_PKDS_TSTS06_923M_X45_V1_8/Dave/Generated/CAN_NODE\can_node.h ****  * @brief Function to reset / clear the specific status of the can node.
 613:C:/Workspaces/DAVE-4.4.2-64Bit/_PKDS_TSTS06_923M_X45_V1_8/Dave/Generated/CAN_NODE\can_node.h ****  *        It contains error information as well as successfully transferred CAN frames status.<br>
 614:C:/Workspaces/DAVE-4.4.2-64Bit/_PKDS_TSTS06_923M_X45_V1_8/Dave/Generated/CAN_NODE\can_node.h ****  * @param can_node_status  is a node status enum. @ref XMC_CAN_NODE_STATUS_t <br>
 615:C:/Workspaces/DAVE-4.4.2-64Bit/_PKDS_TSTS06_923M_X45_V1_8/Dave/Generated/CAN_NODE\can_node.h ****  * @param handle  is a pointer pointing to APP data structure.@ref CAN_NODE_t <br>
 616:C:/Workspaces/DAVE-4.4.2-64Bit/_PKDS_TSTS06_923M_X45_V1_8/Dave/Generated/CAN_NODE\can_node.h ****  * @return none.<BR>
 617:C:/Workspaces/DAVE-4.4.2-64Bit/_PKDS_TSTS06_923M_X45_V1_8/Dave/Generated/CAN_NODE\can_node.h ****  *
 618:C:/Workspaces/DAVE-4.4.2-64Bit/_PKDS_TSTS06_923M_X45_V1_8/Dave/Generated/CAN_NODE\can_node.h ****  * \par<b>Description:</b><br>
 619:C:/Workspaces/DAVE-4.4.2-64Bit/_PKDS_TSTS06_923M_X45_V1_8/Dave/Generated/CAN_NODE\can_node.h ****  * Status provides an overview about the current state of the respective CAN node,
 620:C:/Workspaces/DAVE-4.4.2-64Bit/_PKDS_TSTS06_923M_X45_V1_8/Dave/Generated/CAN_NODE\can_node.h ****  * comprising information about CAN transfers, CAN node status and error conditions.
 621:C:/Workspaces/DAVE-4.4.2-64Bit/_PKDS_TSTS06_923M_X45_V1_8/Dave/Generated/CAN_NODE\can_node.h ****  * It reads NSR (node status register)register.
 622:C:/Workspaces/DAVE-4.4.2-64Bit/_PKDS_TSTS06_923M_X45_V1_8/Dave/Generated/CAN_NODE\can_node.h ****  * To achieve this functionality API calls XMC_CAN_NODE_GetStatus().
 623:C:/Workspaces/DAVE-4.4.2-64Bit/_PKDS_TSTS06_923M_X45_V1_8/Dave/Generated/CAN_NODE\can_node.h ****  *
 624:C:/Workspaces/DAVE-4.4.2-64Bit/_PKDS_TSTS06_923M_X45_V1_8/Dave/Generated/CAN_NODE\can_node.h ****  * <BR>
 625:C:/Workspaces/DAVE-4.4.2-64Bit/_PKDS_TSTS06_923M_X45_V1_8/Dave/Generated/CAN_NODE\can_node.h ****  *
 626:C:/Workspaces/DAVE-4.4.2-64Bit/_PKDS_TSTS06_923M_X45_V1_8/Dave/Generated/CAN_NODE\can_node.h ****  * Example Usage:
 627:C:/Workspaces/DAVE-4.4.2-64Bit/_PKDS_TSTS06_923M_X45_V1_8/Dave/Generated/CAN_NODE\can_node.h ****  * 
 628:C:/Workspaces/DAVE-4.4.2-64Bit/_PKDS_TSTS06_923M_X45_V1_8/Dave/Generated/CAN_NODE\can_node.h ****  * @code
 629:C:/Workspaces/DAVE-4.4.2-64Bit/_PKDS_TSTS06_923M_X45_V1_8/Dave/Generated/CAN_NODE\can_node.h ****  * #include "DAVE.h"         //Declarations from DAVE Code Generation (includes SFR declaration)
 630:C:/Workspaces/DAVE-4.4.2-64Bit/_PKDS_TSTS06_923M_X45_V1_8/Dave/Generated/CAN_NODE\can_node.h ****  *
 631:C:/Workspaces/DAVE-4.4.2-64Bit/_PKDS_TSTS06_923M_X45_V1_8/Dave/Generated/CAN_NODE\can_node.h ****  * int main(void)
 632:C:/Workspaces/DAVE-4.4.2-64Bit/_PKDS_TSTS06_923M_X45_V1_8/Dave/Generated/CAN_NODE\can_node.h ****  * {
 633:C:/Workspaces/DAVE-4.4.2-64Bit/_PKDS_TSTS06_923M_X45_V1_8/Dave/Generated/CAN_NODE\can_node.h ****  *   DAVE_STATUS_t init_status;
 634:C:/Workspaces/DAVE-4.4.2-64Bit/_PKDS_TSTS06_923M_X45_V1_8/Dave/Generated/CAN_NODE\can_node.h ****  *   const CAN_NODE_t *HandlePtr1 = &CAN_NODE_0;
 635:C:/Workspaces/DAVE-4.4.2-64Bit/_PKDS_TSTS06_923M_X45_V1_8/Dave/Generated/CAN_NODE\can_node.h ****  *   uint32_t status;
 636:C:/Workspaces/DAVE-4.4.2-64Bit/_PKDS_TSTS06_923M_X45_V1_8/Dave/Generated/CAN_NODE\can_node.h ****  *
 637:C:/Workspaces/DAVE-4.4.2-64Bit/_PKDS_TSTS06_923M_X45_V1_8/Dave/Generated/CAN_NODE\can_node.h ****  *   init_status = DAVE_Init();
 638:C:/Workspaces/DAVE-4.4.2-64Bit/_PKDS_TSTS06_923M_X45_V1_8/Dave/Generated/CAN_NODE\can_node.h ****  *   if (init_status == DAVE_STATUS_SUCCESS)
 639:C:/Workspaces/DAVE-4.4.2-64Bit/_PKDS_TSTS06_923M_X45_V1_8/Dave/Generated/CAN_NODE\can_node.h ****  *   {
 640:C:/Workspaces/DAVE-4.4.2-64Bit/_PKDS_TSTS06_923M_X45_V1_8/Dave/Generated/CAN_NODE\can_node.h ****  *
 641:C:/Workspaces/DAVE-4.4.2-64Bit/_PKDS_TSTS06_923M_X45_V1_8/Dave/Generated/CAN_NODE\can_node.h ****  *     //Transmit MO data
 642:C:/Workspaces/DAVE-4.4.2-64Bit/_PKDS_TSTS06_923M_X45_V1_8/Dave/Generated/CAN_NODE\can_node.h ****  *     CAN_NODE_MO_Transmit(HandlePtr1->lmobj_ptr[0]);
 643:C:/Workspaces/DAVE-4.4.2-64Bit/_PKDS_TSTS06_923M_X45_V1_8/Dave/Generated/CAN_NODE\can_node.h ****  *
 644:C:/Workspaces/DAVE-4.4.2-64Bit/_PKDS_TSTS06_923M_X45_V1_8/Dave/Generated/CAN_NODE\can_node.h ****  *     status = CAN_NODE_GetStatus(HandlePtr1);
 645:C:/Workspaces/DAVE-4.4.2-64Bit/_PKDS_TSTS06_923M_X45_V1_8/Dave/Generated/CAN_NODE\can_node.h ****  *     if (status & XMC_CAN_NODE_STATUS_TX_OK)
 646:C:/Workspaces/DAVE-4.4.2-64Bit/_PKDS_TSTS06_923M_X45_V1_8/Dave/Generated/CAN_NODE\can_node.h ****  *     {
 647:C:/Workspaces/DAVE-4.4.2-64Bit/_PKDS_TSTS06_923M_X45_V1_8/Dave/Generated/CAN_NODE\can_node.h ****  *       //Message transmitted successfully
 648:C:/Workspaces/DAVE-4.4.2-64Bit/_PKDS_TSTS06_923M_X45_V1_8/Dave/Generated/CAN_NODE\can_node.h ****  *       CAN_NODE_ClearStatus(HandlePtr1,XMC_CAN_NODE_STATUS_TX_OK);
 649:C:/Workspaces/DAVE-4.4.2-64Bit/_PKDS_TSTS06_923M_X45_V1_8/Dave/Generated/CAN_NODE\can_node.h ****  *       // Application code..
 650:C:/Workspaces/DAVE-4.4.2-64Bit/_PKDS_TSTS06_923M_X45_V1_8/Dave/Generated/CAN_NODE\can_node.h ****  *     }
 651:C:/Workspaces/DAVE-4.4.2-64Bit/_PKDS_TSTS06_923M_X45_V1_8/Dave/Generated/CAN_NODE\can_node.h ****  *     else if (status & XMC_CAN_NODE_STATUS_ALERT_WARNING)
 652:C:/Workspaces/DAVE-4.4.2-64Bit/_PKDS_TSTS06_923M_X45_V1_8/Dave/Generated/CAN_NODE\can_node.h ****  *     {
 653:C:/Workspaces/DAVE-4.4.2-64Bit/_PKDS_TSTS06_923M_X45_V1_8/Dave/Generated/CAN_NODE\can_node.h ****  *       // node alert warning event enabled
 654:C:/Workspaces/DAVE-4.4.2-64Bit/_PKDS_TSTS06_923M_X45_V1_8/Dave/Generated/CAN_NODE\can_node.h ****  *       CAN_NODE_ClearStatus(HandlePtr1,XMC_CAN_NODE_STATUS_ALERT_WARNING);
 655:C:/Workspaces/DAVE-4.4.2-64Bit/_PKDS_TSTS06_923M_X45_V1_8/Dave/Generated/CAN_NODE\can_node.h ****  *       // Application code..
 656:C:/Workspaces/DAVE-4.4.2-64Bit/_PKDS_TSTS06_923M_X45_V1_8/Dave/Generated/CAN_NODE\can_node.h ****  *     }
 657:C:/Workspaces/DAVE-4.4.2-64Bit/_PKDS_TSTS06_923M_X45_V1_8/Dave/Generated/CAN_NODE\can_node.h ****  *     else if (status & XMC_CAN_NODE_STATUS_BUS_OFF)
 658:C:/Workspaces/DAVE-4.4.2-64Bit/_PKDS_TSTS06_923M_X45_V1_8/Dave/Generated/CAN_NODE\can_node.h ****  *     {
 659:C:/Workspaces/DAVE-4.4.2-64Bit/_PKDS_TSTS06_923M_X45_V1_8/Dave/Generated/CAN_NODE\can_node.h ****  *       //Bus off error
 660:C:/Workspaces/DAVE-4.4.2-64Bit/_PKDS_TSTS06_923M_X45_V1_8/Dave/Generated/CAN_NODE\can_node.h ****  *     }
 661:C:/Workspaces/DAVE-4.4.2-64Bit/_PKDS_TSTS06_923M_X45_V1_8/Dave/Generated/CAN_NODE\can_node.h ****  *
 662:C:/Workspaces/DAVE-4.4.2-64Bit/_PKDS_TSTS06_923M_X45_V1_8/Dave/Generated/CAN_NODE\can_node.h ****  *   }
 663:C:/Workspaces/DAVE-4.4.2-64Bit/_PKDS_TSTS06_923M_X45_V1_8/Dave/Generated/CAN_NODE\can_node.h ****  *   // More code here
 664:C:/Workspaces/DAVE-4.4.2-64Bit/_PKDS_TSTS06_923M_X45_V1_8/Dave/Generated/CAN_NODE\can_node.h ****  *   while(1)
 665:C:/Workspaces/DAVE-4.4.2-64Bit/_PKDS_TSTS06_923M_X45_V1_8/Dave/Generated/CAN_NODE\can_node.h ****  *   {
 666:C:/Workspaces/DAVE-4.4.2-64Bit/_PKDS_TSTS06_923M_X45_V1_8/Dave/Generated/CAN_NODE\can_node.h ****  *
 667:C:/Workspaces/DAVE-4.4.2-64Bit/_PKDS_TSTS06_923M_X45_V1_8/Dave/Generated/CAN_NODE\can_node.h ****  *   }
 668:C:/Workspaces/DAVE-4.4.2-64Bit/_PKDS_TSTS06_923M_X45_V1_8/Dave/Generated/CAN_NODE\can_node.h ****  *
 669:C:/Workspaces/DAVE-4.4.2-64Bit/_PKDS_TSTS06_923M_X45_V1_8/Dave/Generated/CAN_NODE\can_node.h ****  *   return (1);
 670:C:/Workspaces/DAVE-4.4.2-64Bit/_PKDS_TSTS06_923M_X45_V1_8/Dave/Generated/CAN_NODE\can_node.h ****  * }
 671:C:/Workspaces/DAVE-4.4.2-64Bit/_PKDS_TSTS06_923M_X45_V1_8/Dave/Generated/CAN_NODE\can_node.h ****  * @endcode
 672:C:/Workspaces/DAVE-4.4.2-64Bit/_PKDS_TSTS06_923M_X45_V1_8/Dave/Generated/CAN_NODE\can_node.h ****  */
 673:C:/Workspaces/DAVE-4.4.2-64Bit/_PKDS_TSTS06_923M_X45_V1_8/Dave/Generated/CAN_NODE\can_node.h **** void CAN_NODE_ClearStatus(const CAN_NODE_t *handle, XMC_CAN_NODE_STATUS_t can_node_status);
 674:C:/Workspaces/DAVE-4.4.2-64Bit/_PKDS_TSTS06_923M_X45_V1_8/Dave/Generated/CAN_NODE\can_node.h **** 
 675:C:/Workspaces/DAVE-4.4.2-64Bit/_PKDS_TSTS06_923M_X45_V1_8/Dave/Generated/CAN_NODE\can_node.h **** /**
 676:C:/Workspaces/DAVE-4.4.2-64Bit/_PKDS_TSTS06_923M_X45_V1_8/Dave/Generated/CAN_NODE\can_node.h ****  * @brief Function to enable CAN node for participation in CAN traffic.<br>
 677:C:/Workspaces/DAVE-4.4.2-64Bit/_PKDS_TSTS06_923M_X45_V1_8/Dave/Generated/CAN_NODE\can_node.h ****  * @param handle is a pointer pointing to APP data structure.@ref CAN_NODE_t <br>
 678:C:/Workspaces/DAVE-4.4.2-64Bit/_PKDS_TSTS06_923M_X45_V1_8/Dave/Generated/CAN_NODE\can_node.h ****  * @return none.<BR>
 679:C:/Workspaces/DAVE-4.4.2-64Bit/_PKDS_TSTS06_923M_X45_V1_8/Dave/Generated/CAN_NODE\can_node.h ****  *
 680:C:/Workspaces/DAVE-4.4.2-64Bit/_PKDS_TSTS06_923M_X45_V1_8/Dave/Generated/CAN_NODE\can_node.h ****  * \par<b>Description:</b><br>
 681:C:/Workspaces/DAVE-4.4.2-64Bit/_PKDS_TSTS06_923M_X45_V1_8/Dave/Generated/CAN_NODE\can_node.h ****  * Enables the CAN node for participation in the CAN traffic by configuring NCR.INIT and NCR.CANDIS
 682:C:/Workspaces/DAVE-4.4.2-64Bit/_PKDS_TSTS06_923M_X45_V1_8/Dave/Generated/CAN_NODE\can_node.h ****  * <BR>
 683:C:/Workspaces/DAVE-4.4.2-64Bit/_PKDS_TSTS06_923M_X45_V1_8/Dave/Generated/CAN_NODE\can_node.h ****  *
 684:C:/Workspaces/DAVE-4.4.2-64Bit/_PKDS_TSTS06_923M_X45_V1_8/Dave/Generated/CAN_NODE\can_node.h ****  * Example Usage:
 685:C:/Workspaces/DAVE-4.4.2-64Bit/_PKDS_TSTS06_923M_X45_V1_8/Dave/Generated/CAN_NODE\can_node.h ****  * 
 686:C:/Workspaces/DAVE-4.4.2-64Bit/_PKDS_TSTS06_923M_X45_V1_8/Dave/Generated/CAN_NODE\can_node.h ****  * @code
 687:C:/Workspaces/DAVE-4.4.2-64Bit/_PKDS_TSTS06_923M_X45_V1_8/Dave/Generated/CAN_NODE\can_node.h ****  * #include "DAVE.h"         //Declarations from DAVE Code Generation (includes SFR declaration)
 688:C:/Workspaces/DAVE-4.4.2-64Bit/_PKDS_TSTS06_923M_X45_V1_8/Dave/Generated/CAN_NODE\can_node.h ****  *
 689:C:/Workspaces/DAVE-4.4.2-64Bit/_PKDS_TSTS06_923M_X45_V1_8/Dave/Generated/CAN_NODE\can_node.h ****  * int main(void)
 690:C:/Workspaces/DAVE-4.4.2-64Bit/_PKDS_TSTS06_923M_X45_V1_8/Dave/Generated/CAN_NODE\can_node.h ****  * {
 691:C:/Workspaces/DAVE-4.4.2-64Bit/_PKDS_TSTS06_923M_X45_V1_8/Dave/Generated/CAN_NODE\can_node.h ****  *   DAVE_STATUS_t init_status;
 692:C:/Workspaces/DAVE-4.4.2-64Bit/_PKDS_TSTS06_923M_X45_V1_8/Dave/Generated/CAN_NODE\can_node.h ****  *   const CAN_NODE_t *HandlePtr1 = &CAN_NODE_0;
 693:C:/Workspaces/DAVE-4.4.2-64Bit/_PKDS_TSTS06_923M_X45_V1_8/Dave/Generated/CAN_NODE\can_node.h ****  *
 694:C:/Workspaces/DAVE-4.4.2-64Bit/_PKDS_TSTS06_923M_X45_V1_8/Dave/Generated/CAN_NODE\can_node.h ****  *   init_status = DAVE_Init();
 695:C:/Workspaces/DAVE-4.4.2-64Bit/_PKDS_TSTS06_923M_X45_V1_8/Dave/Generated/CAN_NODE\can_node.h ****  *   if (init_status == DAVE_STATUS_SUCCESS)
 696:C:/Workspaces/DAVE-4.4.2-64Bit/_PKDS_TSTS06_923M_X45_V1_8/Dave/Generated/CAN_NODE\can_node.h ****  *   {
 697:C:/Workspaces/DAVE-4.4.2-64Bit/_PKDS_TSTS06_923M_X45_V1_8/Dave/Generated/CAN_NODE\can_node.h ****  *
 698:C:/Workspaces/DAVE-4.4.2-64Bit/_PKDS_TSTS06_923M_X45_V1_8/Dave/Generated/CAN_NODE\can_node.h ****  *     // Application code..
 699:C:/Workspaces/DAVE-4.4.2-64Bit/_PKDS_TSTS06_923M_X45_V1_8/Dave/Generated/CAN_NODE\can_node.h ****  *
 700:C:/Workspaces/DAVE-4.4.2-64Bit/_PKDS_TSTS06_923M_X45_V1_8/Dave/Generated/CAN_NODE\can_node.h ****  *
 701:C:/Workspaces/DAVE-4.4.2-64Bit/_PKDS_TSTS06_923M_X45_V1_8/Dave/Generated/CAN_NODE\can_node.h ****  *     // Disable CAN node from participating in CAN traffic.
 702:C:/Workspaces/DAVE-4.4.2-64Bit/_PKDS_TSTS06_923M_X45_V1_8/Dave/Generated/CAN_NODE\can_node.h ****  *     CAN_NODE_Disable(HandlePtr1);
 703:C:/Workspaces/DAVE-4.4.2-64Bit/_PKDS_TSTS06_923M_X45_V1_8/Dave/Generated/CAN_NODE\can_node.h ****  *
 704:C:/Workspaces/DAVE-4.4.2-64Bit/_PKDS_TSTS06_923M_X45_V1_8/Dave/Generated/CAN_NODE\can_node.h ****  *     // Application code..
 705:C:/Workspaces/DAVE-4.4.2-64Bit/_PKDS_TSTS06_923M_X45_V1_8/Dave/Generated/CAN_NODE\can_node.h ****  *
 706:C:/Workspaces/DAVE-4.4.2-64Bit/_PKDS_TSTS06_923M_X45_V1_8/Dave/Generated/CAN_NODE\can_node.h ****  *
 707:C:/Workspaces/DAVE-4.4.2-64Bit/_PKDS_TSTS06_923M_X45_V1_8/Dave/Generated/CAN_NODE\can_node.h ****  *     // Enable CAN node for participating in CAN traffic.
 708:C:/Workspaces/DAVE-4.4.2-64Bit/_PKDS_TSTS06_923M_X45_V1_8/Dave/Generated/CAN_NODE\can_node.h ****  *     CAN_NODE_Enable(HandlePtr1);
 709:C:/Workspaces/DAVE-4.4.2-64Bit/_PKDS_TSTS06_923M_X45_V1_8/Dave/Generated/CAN_NODE\can_node.h ****  *
 710:C:/Workspaces/DAVE-4.4.2-64Bit/_PKDS_TSTS06_923M_X45_V1_8/Dave/Generated/CAN_NODE\can_node.h ****  *   }
 711:C:/Workspaces/DAVE-4.4.2-64Bit/_PKDS_TSTS06_923M_X45_V1_8/Dave/Generated/CAN_NODE\can_node.h ****  *   // More code here
 712:C:/Workspaces/DAVE-4.4.2-64Bit/_PKDS_TSTS06_923M_X45_V1_8/Dave/Generated/CAN_NODE\can_node.h ****  *   while(1)
 713:C:/Workspaces/DAVE-4.4.2-64Bit/_PKDS_TSTS06_923M_X45_V1_8/Dave/Generated/CAN_NODE\can_node.h ****  *   {
 714:C:/Workspaces/DAVE-4.4.2-64Bit/_PKDS_TSTS06_923M_X45_V1_8/Dave/Generated/CAN_NODE\can_node.h ****  *
 715:C:/Workspaces/DAVE-4.4.2-64Bit/_PKDS_TSTS06_923M_X45_V1_8/Dave/Generated/CAN_NODE\can_node.h ****  *   }
 716:C:/Workspaces/DAVE-4.4.2-64Bit/_PKDS_TSTS06_923M_X45_V1_8/Dave/Generated/CAN_NODE\can_node.h ****  *
 717:C:/Workspaces/DAVE-4.4.2-64Bit/_PKDS_TSTS06_923M_X45_V1_8/Dave/Generated/CAN_NODE\can_node.h ****  *   return (1);
 718:C:/Workspaces/DAVE-4.4.2-64Bit/_PKDS_TSTS06_923M_X45_V1_8/Dave/Generated/CAN_NODE\can_node.h ****  * }
 719:C:/Workspaces/DAVE-4.4.2-64Bit/_PKDS_TSTS06_923M_X45_V1_8/Dave/Generated/CAN_NODE\can_node.h ****  * @endcode
 720:C:/Workspaces/DAVE-4.4.2-64Bit/_PKDS_TSTS06_923M_X45_V1_8/Dave/Generated/CAN_NODE\can_node.h ****  */
 721:C:/Workspaces/DAVE-4.4.2-64Bit/_PKDS_TSTS06_923M_X45_V1_8/Dave/Generated/CAN_NODE\can_node.h **** __STATIC_INLINE void CAN_NODE_Enable(const CAN_NODE_t *handle)
 722:C:/Workspaces/DAVE-4.4.2-64Bit/_PKDS_TSTS06_923M_X45_V1_8/Dave/Generated/CAN_NODE\can_node.h **** {
 723:C:/Workspaces/DAVE-4.4.2-64Bit/_PKDS_TSTS06_923M_X45_V1_8/Dave/Generated/CAN_NODE\can_node.h ****   XMC_ASSERT("CAN_NODE_Enable: null pointer", handle != NULL);
 724:C:/Workspaces/DAVE-4.4.2-64Bit/_PKDS_TSTS06_923M_X45_V1_8/Dave/Generated/CAN_NODE\can_node.h ****   XMC_CAN_NODE_Enable(handle->node_ptr);
 725:C:/Workspaces/DAVE-4.4.2-64Bit/_PKDS_TSTS06_923M_X45_V1_8/Dave/Generated/CAN_NODE\can_node.h **** }
 726:C:/Workspaces/DAVE-4.4.2-64Bit/_PKDS_TSTS06_923M_X45_V1_8/Dave/Generated/CAN_NODE\can_node.h **** 
 727:C:/Workspaces/DAVE-4.4.2-64Bit/_PKDS_TSTS06_923M_X45_V1_8/Dave/Generated/CAN_NODE\can_node.h **** /**
 728:C:/Workspaces/DAVE-4.4.2-64Bit/_PKDS_TSTS06_923M_X45_V1_8/Dave/Generated/CAN_NODE\can_node.h ****  * @brief Function to disable CAN node from participating in CAN traffic.<br>
 729:C:/Workspaces/DAVE-4.4.2-64Bit/_PKDS_TSTS06_923M_X45_V1_8/Dave/Generated/CAN_NODE\can_node.h ****  * @param handle is a pointer pointing to APP data structure.@ref CAN_NODE_t <br>
 730:C:/Workspaces/DAVE-4.4.2-64Bit/_PKDS_TSTS06_923M_X45_V1_8/Dave/Generated/CAN_NODE\can_node.h ****  * @return none.<BR>
 731:C:/Workspaces/DAVE-4.4.2-64Bit/_PKDS_TSTS06_923M_X45_V1_8/Dave/Generated/CAN_NODE\can_node.h ****  *
 732:C:/Workspaces/DAVE-4.4.2-64Bit/_PKDS_TSTS06_923M_X45_V1_8/Dave/Generated/CAN_NODE\can_node.h ****  * \par<b>Description:</b><br>
 733:C:/Workspaces/DAVE-4.4.2-64Bit/_PKDS_TSTS06_923M_X45_V1_8/Dave/Generated/CAN_NODE\can_node.h ****  * Disables the CAN node from participating in the CAN traffic by configuring NCR.CANDIS bit.
 734:C:/Workspaces/DAVE-4.4.2-64Bit/_PKDS_TSTS06_923M_X45_V1_8/Dave/Generated/CAN_NODE\can_node.h ****  * <BR>
 735:C:/Workspaces/DAVE-4.4.2-64Bit/_PKDS_TSTS06_923M_X45_V1_8/Dave/Generated/CAN_NODE\can_node.h ****  *
 736:C:/Workspaces/DAVE-4.4.2-64Bit/_PKDS_TSTS06_923M_X45_V1_8/Dave/Generated/CAN_NODE\can_node.h ****  * Example Usage:
 737:C:/Workspaces/DAVE-4.4.2-64Bit/_PKDS_TSTS06_923M_X45_V1_8/Dave/Generated/CAN_NODE\can_node.h ****  * 
 738:C:/Workspaces/DAVE-4.4.2-64Bit/_PKDS_TSTS06_923M_X45_V1_8/Dave/Generated/CAN_NODE\can_node.h ****  * @code
 739:C:/Workspaces/DAVE-4.4.2-64Bit/_PKDS_TSTS06_923M_X45_V1_8/Dave/Generated/CAN_NODE\can_node.h ****  * #include "DAVE.h"         //Declarations from DAVE Code Generation (includes SFR declaration)
 740:C:/Workspaces/DAVE-4.4.2-64Bit/_PKDS_TSTS06_923M_X45_V1_8/Dave/Generated/CAN_NODE\can_node.h ****  *
 741:C:/Workspaces/DAVE-4.4.2-64Bit/_PKDS_TSTS06_923M_X45_V1_8/Dave/Generated/CAN_NODE\can_node.h ****  * int main(void)
 742:C:/Workspaces/DAVE-4.4.2-64Bit/_PKDS_TSTS06_923M_X45_V1_8/Dave/Generated/CAN_NODE\can_node.h ****  * {
 743:C:/Workspaces/DAVE-4.4.2-64Bit/_PKDS_TSTS06_923M_X45_V1_8/Dave/Generated/CAN_NODE\can_node.h ****  *   DAVE_STATUS_t init_status;
 744:C:/Workspaces/DAVE-4.4.2-64Bit/_PKDS_TSTS06_923M_X45_V1_8/Dave/Generated/CAN_NODE\can_node.h ****  *   const CAN_NODE_t *HandlePtr1 = &CAN_NODE_0;
 745:C:/Workspaces/DAVE-4.4.2-64Bit/_PKDS_TSTS06_923M_X45_V1_8/Dave/Generated/CAN_NODE\can_node.h ****  *
 746:C:/Workspaces/DAVE-4.4.2-64Bit/_PKDS_TSTS06_923M_X45_V1_8/Dave/Generated/CAN_NODE\can_node.h ****  *   init_status = DAVE_Init();
 747:C:/Workspaces/DAVE-4.4.2-64Bit/_PKDS_TSTS06_923M_X45_V1_8/Dave/Generated/CAN_NODE\can_node.h ****  *   if (init_status == DAVE_STATUS_SUCCESS)
 748:C:/Workspaces/DAVE-4.4.2-64Bit/_PKDS_TSTS06_923M_X45_V1_8/Dave/Generated/CAN_NODE\can_node.h ****  *   {
 749:C:/Workspaces/DAVE-4.4.2-64Bit/_PKDS_TSTS06_923M_X45_V1_8/Dave/Generated/CAN_NODE\can_node.h ****  *
 750:C:/Workspaces/DAVE-4.4.2-64Bit/_PKDS_TSTS06_923M_X45_V1_8/Dave/Generated/CAN_NODE\can_node.h ****  *     // Application code..
 751:C:/Workspaces/DAVE-4.4.2-64Bit/_PKDS_TSTS06_923M_X45_V1_8/Dave/Generated/CAN_NODE\can_node.h ****  *
 752:C:/Workspaces/DAVE-4.4.2-64Bit/_PKDS_TSTS06_923M_X45_V1_8/Dave/Generated/CAN_NODE\can_node.h ****  *
 753:C:/Workspaces/DAVE-4.4.2-64Bit/_PKDS_TSTS06_923M_X45_V1_8/Dave/Generated/CAN_NODE\can_node.h ****  *     // Disable CAN node from participating in CAN traffic.
 754:C:/Workspaces/DAVE-4.4.2-64Bit/_PKDS_TSTS06_923M_X45_V1_8/Dave/Generated/CAN_NODE\can_node.h ****  *     CAN_NODE_Disable(HandlePtr1);
 755:C:/Workspaces/DAVE-4.4.2-64Bit/_PKDS_TSTS06_923M_X45_V1_8/Dave/Generated/CAN_NODE\can_node.h ****  *
 756:C:/Workspaces/DAVE-4.4.2-64Bit/_PKDS_TSTS06_923M_X45_V1_8/Dave/Generated/CAN_NODE\can_node.h ****  *     // Application code..
 757:C:/Workspaces/DAVE-4.4.2-64Bit/_PKDS_TSTS06_923M_X45_V1_8/Dave/Generated/CAN_NODE\can_node.h ****  *
 758:C:/Workspaces/DAVE-4.4.2-64Bit/_PKDS_TSTS06_923M_X45_V1_8/Dave/Generated/CAN_NODE\can_node.h ****  *
 759:C:/Workspaces/DAVE-4.4.2-64Bit/_PKDS_TSTS06_923M_X45_V1_8/Dave/Generated/CAN_NODE\can_node.h ****  *     // Enable CAN node for participating in CAN traffic.
 760:C:/Workspaces/DAVE-4.4.2-64Bit/_PKDS_TSTS06_923M_X45_V1_8/Dave/Generated/CAN_NODE\can_node.h ****  *     CAN_NODE_Enable(HandlePtr1);
 761:C:/Workspaces/DAVE-4.4.2-64Bit/_PKDS_TSTS06_923M_X45_V1_8/Dave/Generated/CAN_NODE\can_node.h ****  *
 762:C:/Workspaces/DAVE-4.4.2-64Bit/_PKDS_TSTS06_923M_X45_V1_8/Dave/Generated/CAN_NODE\can_node.h ****  *   }
 763:C:/Workspaces/DAVE-4.4.2-64Bit/_PKDS_TSTS06_923M_X45_V1_8/Dave/Generated/CAN_NODE\can_node.h ****  *   // More code here
 764:C:/Workspaces/DAVE-4.4.2-64Bit/_PKDS_TSTS06_923M_X45_V1_8/Dave/Generated/CAN_NODE\can_node.h ****  *   while(1)
 765:C:/Workspaces/DAVE-4.4.2-64Bit/_PKDS_TSTS06_923M_X45_V1_8/Dave/Generated/CAN_NODE\can_node.h ****  *   {
 766:C:/Workspaces/DAVE-4.4.2-64Bit/_PKDS_TSTS06_923M_X45_V1_8/Dave/Generated/CAN_NODE\can_node.h ****  *
 767:C:/Workspaces/DAVE-4.4.2-64Bit/_PKDS_TSTS06_923M_X45_V1_8/Dave/Generated/CAN_NODE\can_node.h ****  *   }
 768:C:/Workspaces/DAVE-4.4.2-64Bit/_PKDS_TSTS06_923M_X45_V1_8/Dave/Generated/CAN_NODE\can_node.h ****  *
 769:C:/Workspaces/DAVE-4.4.2-64Bit/_PKDS_TSTS06_923M_X45_V1_8/Dave/Generated/CAN_NODE\can_node.h ****  *   return (1);
 770:C:/Workspaces/DAVE-4.4.2-64Bit/_PKDS_TSTS06_923M_X45_V1_8/Dave/Generated/CAN_NODE\can_node.h ****  * }
 771:C:/Workspaces/DAVE-4.4.2-64Bit/_PKDS_TSTS06_923M_X45_V1_8/Dave/Generated/CAN_NODE\can_node.h ****  * @endcode
 772:C:/Workspaces/DAVE-4.4.2-64Bit/_PKDS_TSTS06_923M_X45_V1_8/Dave/Generated/CAN_NODE\can_node.h ****  */
 773:C:/Workspaces/DAVE-4.4.2-64Bit/_PKDS_TSTS06_923M_X45_V1_8/Dave/Generated/CAN_NODE\can_node.h **** __STATIC_INLINE void CAN_NODE_Disable(const CAN_NODE_t *handle)
 774:C:/Workspaces/DAVE-4.4.2-64Bit/_PKDS_TSTS06_923M_X45_V1_8/Dave/Generated/CAN_NODE\can_node.h **** {
 775:C:/Workspaces/DAVE-4.4.2-64Bit/_PKDS_TSTS06_923M_X45_V1_8/Dave/Generated/CAN_NODE\can_node.h ****   XMC_ASSERT("CAN_NODE_Disable: null pointer", handle != NULL);
 776:C:/Workspaces/DAVE-4.4.2-64Bit/_PKDS_TSTS06_923M_X45_V1_8/Dave/Generated/CAN_NODE\can_node.h ****   XMC_CAN_NODE_Disable(handle->node_ptr);
 777:C:/Workspaces/DAVE-4.4.2-64Bit/_PKDS_TSTS06_923M_X45_V1_8/Dave/Generated/CAN_NODE\can_node.h **** }
 778:C:/Workspaces/DAVE-4.4.2-64Bit/_PKDS_TSTS06_923M_X45_V1_8/Dave/Generated/CAN_NODE\can_node.h **** 
 779:C:/Workspaces/DAVE-4.4.2-64Bit/_PKDS_TSTS06_923M_X45_V1_8/Dave/Generated/CAN_NODE\can_node.h **** /**
 780:C:/Workspaces/DAVE-4.4.2-64Bit/_PKDS_TSTS06_923M_X45_V1_8/Dave/Generated/CAN_NODE\can_node.h ****  * @brief Function to enable MO transmit event for the selected logical message object.
 781:C:/Workspaces/DAVE-4.4.2-64Bit/_PKDS_TSTS06_923M_X45_V1_8/Dave/Generated/CAN_NODE\can_node.h ****  *         It sets the TXIE bit of the MOFCR register.
 782:C:/Workspaces/DAVE-4.4.2-64Bit/_PKDS_TSTS06_923M_X45_V1_8/Dave/Generated/CAN_NODE\can_node.h ****  * @param can_lmo is a pointer to a logical message object structure.@ref CAN_NODE_LMO_t<br>
 783:C:/Workspaces/DAVE-4.4.2-64Bit/_PKDS_TSTS06_923M_X45_V1_8/Dave/Generated/CAN_NODE\can_node.h ****  * @return None.<BR>
 784:C:/Workspaces/DAVE-4.4.2-64Bit/_PKDS_TSTS06_923M_X45_V1_8/Dave/Generated/CAN_NODE\can_node.h ****  *
 785:C:/Workspaces/DAVE-4.4.2-64Bit/_PKDS_TSTS06_923M_X45_V1_8/Dave/Generated/CAN_NODE\can_node.h ****  * \par<b>Description:</b><br>
 786:C:/Workspaces/DAVE-4.4.2-64Bit/_PKDS_TSTS06_923M_X45_V1_8/Dave/Generated/CAN_NODE\can_node.h ****  *
 787:C:/Workspaces/DAVE-4.4.2-64Bit/_PKDS_TSTS06_923M_X45_V1_8/Dave/Generated/CAN_NODE\can_node.h ****  * This function to enable the MO transmit event for the selected logical message object.
 788:C:/Workspaces/DAVE-4.4.2-64Bit/_PKDS_TSTS06_923M_X45_V1_8/Dave/Generated/CAN_NODE\can_node.h ****  * It configures MOFCR register. To achieve this functionality API calls XMC_CAN_MO_EnableEvent().
 789:C:/Workspaces/DAVE-4.4.2-64Bit/_PKDS_TSTS06_923M_X45_V1_8/Dave/Generated/CAN_NODE\can_node.h ****  * <BR>
 790:C:/Workspaces/DAVE-4.4.2-64Bit/_PKDS_TSTS06_923M_X45_V1_8/Dave/Generated/CAN_NODE\can_node.h ****  *
 791:C:/Workspaces/DAVE-4.4.2-64Bit/_PKDS_TSTS06_923M_X45_V1_8/Dave/Generated/CAN_NODE\can_node.h ****  * Example Usage:
 792:C:/Workspaces/DAVE-4.4.2-64Bit/_PKDS_TSTS06_923M_X45_V1_8/Dave/Generated/CAN_NODE\can_node.h ****  * 
 793:C:/Workspaces/DAVE-4.4.2-64Bit/_PKDS_TSTS06_923M_X45_V1_8/Dave/Generated/CAN_NODE\can_node.h ****  * @code
 794:C:/Workspaces/DAVE-4.4.2-64Bit/_PKDS_TSTS06_923M_X45_V1_8/Dave/Generated/CAN_NODE\can_node.h ****  * #include "DAVE.h"         //Declarations from DAVE Code Generation (includes SFR declaration)
 795:C:/Workspaces/DAVE-4.4.2-64Bit/_PKDS_TSTS06_923M_X45_V1_8/Dave/Generated/CAN_NODE\can_node.h ****  *
 796:C:/Workspaces/DAVE-4.4.2-64Bit/_PKDS_TSTS06_923M_X45_V1_8/Dave/Generated/CAN_NODE\can_node.h ****  * int main(void)
 797:C:/Workspaces/DAVE-4.4.2-64Bit/_PKDS_TSTS06_923M_X45_V1_8/Dave/Generated/CAN_NODE\can_node.h ****  * {
 798:C:/Workspaces/DAVE-4.4.2-64Bit/_PKDS_TSTS06_923M_X45_V1_8/Dave/Generated/CAN_NODE\can_node.h ****  *   DAVE_STATUS_t init_status;
 799:C:/Workspaces/DAVE-4.4.2-64Bit/_PKDS_TSTS06_923M_X45_V1_8/Dave/Generated/CAN_NODE\can_node.h ****  *   const CAN_NODE_t *HandlePtr1 = &CAN_NODE_0;
 800:C:/Workspaces/DAVE-4.4.2-64Bit/_PKDS_TSTS06_923M_X45_V1_8/Dave/Generated/CAN_NODE\can_node.h ****  *
 801:C:/Workspaces/DAVE-4.4.2-64Bit/_PKDS_TSTS06_923M_X45_V1_8/Dave/Generated/CAN_NODE\can_node.h ****  *   init_status = DAVE_Init();
 802:C:/Workspaces/DAVE-4.4.2-64Bit/_PKDS_TSTS06_923M_X45_V1_8/Dave/Generated/CAN_NODE\can_node.h ****  *   if (init_status == DAVE_STATUS_SUCCESS)
 803:C:/Workspaces/DAVE-4.4.2-64Bit/_PKDS_TSTS06_923M_X45_V1_8/Dave/Generated/CAN_NODE\can_node.h ****  *   {
 804:C:/Workspaces/DAVE-4.4.2-64Bit/_PKDS_TSTS06_923M_X45_V1_8/Dave/Generated/CAN_NODE\can_node.h ****  *
 805:C:/Workspaces/DAVE-4.4.2-64Bit/_PKDS_TSTS06_923M_X45_V1_8/Dave/Generated/CAN_NODE\can_node.h ****  *     // Enable the transmit event for the selected message object.
 806:C:/Workspaces/DAVE-4.4.2-64Bit/_PKDS_TSTS06_923M_X45_V1_8/Dave/Generated/CAN_NODE\can_node.h ****  *     CAN_NODE_MO_EnableTxEvent(HandlePtr1->lmobj_ptr[0]);
 807:C:/Workspaces/DAVE-4.4.2-64Bit/_PKDS_TSTS06_923M_X45_V1_8/Dave/Generated/CAN_NODE\can_node.h ****  *
 808:C:/Workspaces/DAVE-4.4.2-64Bit/_PKDS_TSTS06_923M_X45_V1_8/Dave/Generated/CAN_NODE\can_node.h ****  *     //transmit data from the message object.
 809:C:/Workspaces/DAVE-4.4.2-64Bit/_PKDS_TSTS06_923M_X45_V1_8/Dave/Generated/CAN_NODE\can_node.h ****  *     CAN_NODE_MO_Transmit(HandlePtr1->lmobj_ptr[0]);
 810:C:/Workspaces/DAVE-4.4.2-64Bit/_PKDS_TSTS06_923M_X45_V1_8/Dave/Generated/CAN_NODE\can_node.h ****  *
 811:C:/Workspaces/DAVE-4.4.2-64Bit/_PKDS_TSTS06_923M_X45_V1_8/Dave/Generated/CAN_NODE\can_node.h ****  *     // Configure the interrupt APP and connect the transmit signal of the message object to NVIC
 812:C:/Workspaces/DAVE-4.4.2-64Bit/_PKDS_TSTS06_923M_X45_V1_8/Dave/Generated/CAN_NODE\can_node.h ****  *     //After the successful transmission of message object, transmit event will be generated.
 813:C:/Workspaces/DAVE-4.4.2-64Bit/_PKDS_TSTS06_923M_X45_V1_8/Dave/Generated/CAN_NODE\can_node.h ****  *     // Application code
 814:C:/Workspaces/DAVE-4.4.2-64Bit/_PKDS_TSTS06_923M_X45_V1_8/Dave/Generated/CAN_NODE\can_node.h ****  *
 815:C:/Workspaces/DAVE-4.4.2-64Bit/_PKDS_TSTS06_923M_X45_V1_8/Dave/Generated/CAN_NODE\can_node.h ****  *
 816:C:/Workspaces/DAVE-4.4.2-64Bit/_PKDS_TSTS06_923M_X45_V1_8/Dave/Generated/CAN_NODE\can_node.h ****  *   }
 817:C:/Workspaces/DAVE-4.4.2-64Bit/_PKDS_TSTS06_923M_X45_V1_8/Dave/Generated/CAN_NODE\can_node.h ****  *   // More code here
 818:C:/Workspaces/DAVE-4.4.2-64Bit/_PKDS_TSTS06_923M_X45_V1_8/Dave/Generated/CAN_NODE\can_node.h ****  *   while(1)
 819:C:/Workspaces/DAVE-4.4.2-64Bit/_PKDS_TSTS06_923M_X45_V1_8/Dave/Generated/CAN_NODE\can_node.h ****  *   {
 820:C:/Workspaces/DAVE-4.4.2-64Bit/_PKDS_TSTS06_923M_X45_V1_8/Dave/Generated/CAN_NODE\can_node.h ****  *
 821:C:/Workspaces/DAVE-4.4.2-64Bit/_PKDS_TSTS06_923M_X45_V1_8/Dave/Generated/CAN_NODE\can_node.h ****  *   }
 822:C:/Workspaces/DAVE-4.4.2-64Bit/_PKDS_TSTS06_923M_X45_V1_8/Dave/Generated/CAN_NODE\can_node.h ****  *
 823:C:/Workspaces/DAVE-4.4.2-64Bit/_PKDS_TSTS06_923M_X45_V1_8/Dave/Generated/CAN_NODE\can_node.h ****  *   return (1);
 824:C:/Workspaces/DAVE-4.4.2-64Bit/_PKDS_TSTS06_923M_X45_V1_8/Dave/Generated/CAN_NODE\can_node.h ****  * }
 825:C:/Workspaces/DAVE-4.4.2-64Bit/_PKDS_TSTS06_923M_X45_V1_8/Dave/Generated/CAN_NODE\can_node.h ****  * @endcode
 826:C:/Workspaces/DAVE-4.4.2-64Bit/_PKDS_TSTS06_923M_X45_V1_8/Dave/Generated/CAN_NODE\can_node.h ****  */
 827:C:/Workspaces/DAVE-4.4.2-64Bit/_PKDS_TSTS06_923M_X45_V1_8/Dave/Generated/CAN_NODE\can_node.h **** __STATIC_INLINE void CAN_NODE_MO_EnableTxEvent(const CAN_NODE_LMO_t *const can_lmo)
 828:C:/Workspaces/DAVE-4.4.2-64Bit/_PKDS_TSTS06_923M_X45_V1_8/Dave/Generated/CAN_NODE\can_node.h **** {
 829:C:/Workspaces/DAVE-4.4.2-64Bit/_PKDS_TSTS06_923M_X45_V1_8/Dave/Generated/CAN_NODE\can_node.h ****   XMC_ASSERT("CAN_NODE_MO_EnableTxEvent: null pointer", can_lmo != NULL);
 830:C:/Workspaces/DAVE-4.4.2-64Bit/_PKDS_TSTS06_923M_X45_V1_8/Dave/Generated/CAN_NODE\can_node.h ****   XMC_CAN_MO_EnableEvent(can_lmo->mo_ptr,XMC_CAN_MO_EVENT_TRANSMIT);
 831:C:/Workspaces/DAVE-4.4.2-64Bit/_PKDS_TSTS06_923M_X45_V1_8/Dave/Generated/CAN_NODE\can_node.h **** }
 832:C:/Workspaces/DAVE-4.4.2-64Bit/_PKDS_TSTS06_923M_X45_V1_8/Dave/Generated/CAN_NODE\can_node.h **** 
 833:C:/Workspaces/DAVE-4.4.2-64Bit/_PKDS_TSTS06_923M_X45_V1_8/Dave/Generated/CAN_NODE\can_node.h **** /**
 834:C:/Workspaces/DAVE-4.4.2-64Bit/_PKDS_TSTS06_923M_X45_V1_8/Dave/Generated/CAN_NODE\can_node.h ****  * @brief Function to enable MO receive event for the selected logical message object.
 835:C:/Workspaces/DAVE-4.4.2-64Bit/_PKDS_TSTS06_923M_X45_V1_8/Dave/Generated/CAN_NODE\can_node.h ****  *        It sets the RXIE bit of the MOFCR register. The event will be generated after
 836:C:/Workspaces/DAVE-4.4.2-64Bit/_PKDS_TSTS06_923M_X45_V1_8/Dave/Generated/CAN_NODE\can_node.h ****                reception of a CAN message.<br>
 837:C:/Workspaces/DAVE-4.4.2-64Bit/_PKDS_TSTS06_923M_X45_V1_8/Dave/Generated/CAN_NODE\can_node.h ****  * @param can_lmo is a pointer to a logical message object structure @ref CAN_NODE_LMO_t.
 838:C:/Workspaces/DAVE-4.4.2-64Bit/_PKDS_TSTS06_923M_X45_V1_8/Dave/Generated/CAN_NODE\can_node.h ****  * @return None.<BR>
 839:C:/Workspaces/DAVE-4.4.2-64Bit/_PKDS_TSTS06_923M_X45_V1_8/Dave/Generated/CAN_NODE\can_node.h ****  *
 840:C:/Workspaces/DAVE-4.4.2-64Bit/_PKDS_TSTS06_923M_X45_V1_8/Dave/Generated/CAN_NODE\can_node.h ****  * \par<b>Description:</b><br>
 841:C:/Workspaces/DAVE-4.4.2-64Bit/_PKDS_TSTS06_923M_X45_V1_8/Dave/Generated/CAN_NODE\can_node.h ****  *
 842:C:/Workspaces/DAVE-4.4.2-64Bit/_PKDS_TSTS06_923M_X45_V1_8/Dave/Generated/CAN_NODE\can_node.h ****  * This function to enable the MO receive event for the selected logical message object.
 843:C:/Workspaces/DAVE-4.4.2-64Bit/_PKDS_TSTS06_923M_X45_V1_8/Dave/Generated/CAN_NODE\can_node.h ****  * The event is generated after reception of a CAN message.
 844:C:/Workspaces/DAVE-4.4.2-64Bit/_PKDS_TSTS06_923M_X45_V1_8/Dave/Generated/CAN_NODE\can_node.h ****  * To achieve this functionality API calls XMC_CAN_MO_EnableEvent().
 845:C:/Workspaces/DAVE-4.4.2-64Bit/_PKDS_TSTS06_923M_X45_V1_8/Dave/Generated/CAN_NODE\can_node.h ****  * <BR>
 846:C:/Workspaces/DAVE-4.4.2-64Bit/_PKDS_TSTS06_923M_X45_V1_8/Dave/Generated/CAN_NODE\can_node.h ****  *
 847:C:/Workspaces/DAVE-4.4.2-64Bit/_PKDS_TSTS06_923M_X45_V1_8/Dave/Generated/CAN_NODE\can_node.h ****  * Example Usage:
 848:C:/Workspaces/DAVE-4.4.2-64Bit/_PKDS_TSTS06_923M_X45_V1_8/Dave/Generated/CAN_NODE\can_node.h ****  * 
 849:C:/Workspaces/DAVE-4.4.2-64Bit/_PKDS_TSTS06_923M_X45_V1_8/Dave/Generated/CAN_NODE\can_node.h ****  * @code
 850:C:/Workspaces/DAVE-4.4.2-64Bit/_PKDS_TSTS06_923M_X45_V1_8/Dave/Generated/CAN_NODE\can_node.h ****  * #include "DAVE.h"         //Declarations from DAVE Code Generation (includes SFR declaration)
 851:C:/Workspaces/DAVE-4.4.2-64Bit/_PKDS_TSTS06_923M_X45_V1_8/Dave/Generated/CAN_NODE\can_node.h ****  *
 852:C:/Workspaces/DAVE-4.4.2-64Bit/_PKDS_TSTS06_923M_X45_V1_8/Dave/Generated/CAN_NODE\can_node.h ****  * int main(void)
 853:C:/Workspaces/DAVE-4.4.2-64Bit/_PKDS_TSTS06_923M_X45_V1_8/Dave/Generated/CAN_NODE\can_node.h ****  * {
 854:C:/Workspaces/DAVE-4.4.2-64Bit/_PKDS_TSTS06_923M_X45_V1_8/Dave/Generated/CAN_NODE\can_node.h ****  *   DAVE_STATUS_t init_status;
 855:C:/Workspaces/DAVE-4.4.2-64Bit/_PKDS_TSTS06_923M_X45_V1_8/Dave/Generated/CAN_NODE\can_node.h ****  *   const CAN_NODE_t *HandlePtr1 = &CAN_NODE_0;
 856:C:/Workspaces/DAVE-4.4.2-64Bit/_PKDS_TSTS06_923M_X45_V1_8/Dave/Generated/CAN_NODE\can_node.h ****  *
 857:C:/Workspaces/DAVE-4.4.2-64Bit/_PKDS_TSTS06_923M_X45_V1_8/Dave/Generated/CAN_NODE\can_node.h ****  *   init_status = DAVE_Init();
 858:C:/Workspaces/DAVE-4.4.2-64Bit/_PKDS_TSTS06_923M_X45_V1_8/Dave/Generated/CAN_NODE\can_node.h ****  *   if (init_status == DAVE_STATUS_SUCCESS)
 859:C:/Workspaces/DAVE-4.4.2-64Bit/_PKDS_TSTS06_923M_X45_V1_8/Dave/Generated/CAN_NODE\can_node.h ****  *   {
 860:C:/Workspaces/DAVE-4.4.2-64Bit/_PKDS_TSTS06_923M_X45_V1_8/Dave/Generated/CAN_NODE\can_node.h ****  *
 861:C:/Workspaces/DAVE-4.4.2-64Bit/_PKDS_TSTS06_923M_X45_V1_8/Dave/Generated/CAN_NODE\can_node.h ****  *
 862:C:/Workspaces/DAVE-4.4.2-64Bit/_PKDS_TSTS06_923M_X45_V1_8/Dave/Generated/CAN_NODE\can_node.h ****  *     CAN_NODE_MO_EnableRxEvent(HandlePtr1->lmobj_ptr[0]);
 863:C:/Workspaces/DAVE-4.4.2-64Bit/_PKDS_TSTS06_923M_X45_V1_8/Dave/Generated/CAN_NODE\can_node.h ****  *
 864:C:/Workspaces/DAVE-4.4.2-64Bit/_PKDS_TSTS06_923M_X45_V1_8/Dave/Generated/CAN_NODE\can_node.h ****  *     // Application code
 865:C:/Workspaces/DAVE-4.4.2-64Bit/_PKDS_TSTS06_923M_X45_V1_8/Dave/Generated/CAN_NODE\can_node.h ****  *
 866:C:/Workspaces/DAVE-4.4.2-64Bit/_PKDS_TSTS06_923M_X45_V1_8/Dave/Generated/CAN_NODE\can_node.h ****  *
 867:C:/Workspaces/DAVE-4.4.2-64Bit/_PKDS_TSTS06_923M_X45_V1_8/Dave/Generated/CAN_NODE\can_node.h ****  *     // Configure the interrupt APP and connect the receive signal of the message object to NVIC 
 868:C:/Workspaces/DAVE-4.4.2-64Bit/_PKDS_TSTS06_923M_X45_V1_8/Dave/Generated/CAN_NODE\can_node.h ****  *     //After the successful reception of message object, receive event will be generated.
 869:C:/Workspaces/DAVE-4.4.2-64Bit/_PKDS_TSTS06_923M_X45_V1_8/Dave/Generated/CAN_NODE\can_node.h ****  *
 870:C:/Workspaces/DAVE-4.4.2-64Bit/_PKDS_TSTS06_923M_X45_V1_8/Dave/Generated/CAN_NODE\can_node.h ****  *
 871:C:/Workspaces/DAVE-4.4.2-64Bit/_PKDS_TSTS06_923M_X45_V1_8/Dave/Generated/CAN_NODE\can_node.h ****  *   }
 872:C:/Workspaces/DAVE-4.4.2-64Bit/_PKDS_TSTS06_923M_X45_V1_8/Dave/Generated/CAN_NODE\can_node.h ****  *   // More code here
 873:C:/Workspaces/DAVE-4.4.2-64Bit/_PKDS_TSTS06_923M_X45_V1_8/Dave/Generated/CAN_NODE\can_node.h ****  *   while(1)
 874:C:/Workspaces/DAVE-4.4.2-64Bit/_PKDS_TSTS06_923M_X45_V1_8/Dave/Generated/CAN_NODE\can_node.h ****  *   {
 875:C:/Workspaces/DAVE-4.4.2-64Bit/_PKDS_TSTS06_923M_X45_V1_8/Dave/Generated/CAN_NODE\can_node.h ****  *
 876:C:/Workspaces/DAVE-4.4.2-64Bit/_PKDS_TSTS06_923M_X45_V1_8/Dave/Generated/CAN_NODE\can_node.h ****  *   }
 877:C:/Workspaces/DAVE-4.4.2-64Bit/_PKDS_TSTS06_923M_X45_V1_8/Dave/Generated/CAN_NODE\can_node.h ****  *
 878:C:/Workspaces/DAVE-4.4.2-64Bit/_PKDS_TSTS06_923M_X45_V1_8/Dave/Generated/CAN_NODE\can_node.h ****  *   return (1);
 879:C:/Workspaces/DAVE-4.4.2-64Bit/_PKDS_TSTS06_923M_X45_V1_8/Dave/Generated/CAN_NODE\can_node.h ****  * }
 880:C:/Workspaces/DAVE-4.4.2-64Bit/_PKDS_TSTS06_923M_X45_V1_8/Dave/Generated/CAN_NODE\can_node.h ****  * @endcode
 881:C:/Workspaces/DAVE-4.4.2-64Bit/_PKDS_TSTS06_923M_X45_V1_8/Dave/Generated/CAN_NODE\can_node.h ****  */
 882:C:/Workspaces/DAVE-4.4.2-64Bit/_PKDS_TSTS06_923M_X45_V1_8/Dave/Generated/CAN_NODE\can_node.h **** __STATIC_INLINE void CAN_NODE_MO_EnableRxEvent(const CAN_NODE_LMO_t *const can_lmo)
 883:C:/Workspaces/DAVE-4.4.2-64Bit/_PKDS_TSTS06_923M_X45_V1_8/Dave/Generated/CAN_NODE\can_node.h **** {
 884:C:/Workspaces/DAVE-4.4.2-64Bit/_PKDS_TSTS06_923M_X45_V1_8/Dave/Generated/CAN_NODE\can_node.h ****   XMC_ASSERT("CAN_NODE_MO_EnableRxEvent: null pointer", can_lmo != NULL);
 885:C:/Workspaces/DAVE-4.4.2-64Bit/_PKDS_TSTS06_923M_X45_V1_8/Dave/Generated/CAN_NODE\can_node.h ****   XMC_CAN_MO_EnableEvent(can_lmo->mo_ptr,XMC_CAN_MO_EVENT_RECEIVE);
 886:C:/Workspaces/DAVE-4.4.2-64Bit/_PKDS_TSTS06_923M_X45_V1_8/Dave/Generated/CAN_NODE\can_node.h **** }
 887:C:/Workspaces/DAVE-4.4.2-64Bit/_PKDS_TSTS06_923M_X45_V1_8/Dave/Generated/CAN_NODE\can_node.h **** 
 888:C:/Workspaces/DAVE-4.4.2-64Bit/_PKDS_TSTS06_923M_X45_V1_8/Dave/Generated/CAN_NODE\can_node.h **** /**
 889:C:/Workspaces/DAVE-4.4.2-64Bit/_PKDS_TSTS06_923M_X45_V1_8/Dave/Generated/CAN_NODE\can_node.h ****  * @brief Function to disable MO transmit event for the selected logical message object.
 890:C:/Workspaces/DAVE-4.4.2-64Bit/_PKDS_TSTS06_923M_X45_V1_8/Dave/Generated/CAN_NODE\can_node.h ****  *        If the transmit event already set, then it reset the event by configuring the MOFCR
 891:C:/Workspaces/DAVE-4.4.2-64Bit/_PKDS_TSTS06_923M_X45_V1_8/Dave/Generated/CAN_NODE\can_node.h ****  *        register bit field TXIE.<br>
 892:C:/Workspaces/DAVE-4.4.2-64Bit/_PKDS_TSTS06_923M_X45_V1_8/Dave/Generated/CAN_NODE\can_node.h ****  * @param can_lmo is a pointer to a logical message object structure @ref CAN_NODE_LMO_t.
 893:C:/Workspaces/DAVE-4.4.2-64Bit/_PKDS_TSTS06_923M_X45_V1_8/Dave/Generated/CAN_NODE\can_node.h ****  * @return None.<BR>
 894:C:/Workspaces/DAVE-4.4.2-64Bit/_PKDS_TSTS06_923M_X45_V1_8/Dave/Generated/CAN_NODE\can_node.h ****  *
 895:C:/Workspaces/DAVE-4.4.2-64Bit/_PKDS_TSTS06_923M_X45_V1_8/Dave/Generated/CAN_NODE\can_node.h ****  * \par<b>Description:</b><br>
 896:C:/Workspaces/DAVE-4.4.2-64Bit/_PKDS_TSTS06_923M_X45_V1_8/Dave/Generated/CAN_NODE\can_node.h ****  *
 897:C:/Workspaces/DAVE-4.4.2-64Bit/_PKDS_TSTS06_923M_X45_V1_8/Dave/Generated/CAN_NODE\can_node.h ****  * This function to disable the MO transmit event for the selected logical message object.
 898:C:/Workspaces/DAVE-4.4.2-64Bit/_PKDS_TSTS06_923M_X45_V1_8/Dave/Generated/CAN_NODE\can_node.h ****  * It configures MOFCR register. To achieve this functionality API calls XMC_CAN_MO_DisableEvent().
 899:C:/Workspaces/DAVE-4.4.2-64Bit/_PKDS_TSTS06_923M_X45_V1_8/Dave/Generated/CAN_NODE\can_node.h ****  * <BR>
 900:C:/Workspaces/DAVE-4.4.2-64Bit/_PKDS_TSTS06_923M_X45_V1_8/Dave/Generated/CAN_NODE\can_node.h ****  *
 901:C:/Workspaces/DAVE-4.4.2-64Bit/_PKDS_TSTS06_923M_X45_V1_8/Dave/Generated/CAN_NODE\can_node.h ****  * Example Usage:
 902:C:/Workspaces/DAVE-4.4.2-64Bit/_PKDS_TSTS06_923M_X45_V1_8/Dave/Generated/CAN_NODE\can_node.h ****  * @code
 903:C:/Workspaces/DAVE-4.4.2-64Bit/_PKDS_TSTS06_923M_X45_V1_8/Dave/Generated/CAN_NODE\can_node.h ****  * #include "DAVE.h"         //Declarations from DAVE Code Generation (includes SFR declaration)
 904:C:/Workspaces/DAVE-4.4.2-64Bit/_PKDS_TSTS06_923M_X45_V1_8/Dave/Generated/CAN_NODE\can_node.h ****  *
 905:C:/Workspaces/DAVE-4.4.2-64Bit/_PKDS_TSTS06_923M_X45_V1_8/Dave/Generated/CAN_NODE\can_node.h ****  * int main(void)
 906:C:/Workspaces/DAVE-4.4.2-64Bit/_PKDS_TSTS06_923M_X45_V1_8/Dave/Generated/CAN_NODE\can_node.h ****  * {
 907:C:/Workspaces/DAVE-4.4.2-64Bit/_PKDS_TSTS06_923M_X45_V1_8/Dave/Generated/CAN_NODE\can_node.h ****  *   DAVE_STATUS_t init_status;
 908:C:/Workspaces/DAVE-4.4.2-64Bit/_PKDS_TSTS06_923M_X45_V1_8/Dave/Generated/CAN_NODE\can_node.h ****  *   const CAN_NODE_t *HandlePtr1= &CAN_NODE_0;
 909:C:/Workspaces/DAVE-4.4.2-64Bit/_PKDS_TSTS06_923M_X45_V1_8/Dave/Generated/CAN_NODE\can_node.h ****  *
 910:C:/Workspaces/DAVE-4.4.2-64Bit/_PKDS_TSTS06_923M_X45_V1_8/Dave/Generated/CAN_NODE\can_node.h ****  *   init_status = DAVE_Init();
 911:C:/Workspaces/DAVE-4.4.2-64Bit/_PKDS_TSTS06_923M_X45_V1_8/Dave/Generated/CAN_NODE\can_node.h ****  *   if (init_status == DAVE_STATUS_SUCCESS)
 912:C:/Workspaces/DAVE-4.4.2-64Bit/_PKDS_TSTS06_923M_X45_V1_8/Dave/Generated/CAN_NODE\can_node.h ****  *   {
 913:C:/Workspaces/DAVE-4.4.2-64Bit/_PKDS_TSTS06_923M_X45_V1_8/Dave/Generated/CAN_NODE\can_node.h ****  *     // Enable the transmit event for the selected message object.
 914:C:/Workspaces/DAVE-4.4.2-64Bit/_PKDS_TSTS06_923M_X45_V1_8/Dave/Generated/CAN_NODE\can_node.h ****  *     CAN_NODE_MO_EnableTxEvent(HandlePtr1->lmobj_ptr[0]);
 915:C:/Workspaces/DAVE-4.4.2-64Bit/_PKDS_TSTS06_923M_X45_V1_8/Dave/Generated/CAN_NODE\can_node.h ****  *
 916:C:/Workspaces/DAVE-4.4.2-64Bit/_PKDS_TSTS06_923M_X45_V1_8/Dave/Generated/CAN_NODE\can_node.h ****  *     // Application code
 917:C:/Workspaces/DAVE-4.4.2-64Bit/_PKDS_TSTS06_923M_X45_V1_8/Dave/Generated/CAN_NODE\can_node.h ****  *
 918:C:/Workspaces/DAVE-4.4.2-64Bit/_PKDS_TSTS06_923M_X45_V1_8/Dave/Generated/CAN_NODE\can_node.h ****  *
 919:C:/Workspaces/DAVE-4.4.2-64Bit/_PKDS_TSTS06_923M_X45_V1_8/Dave/Generated/CAN_NODE\can_node.h ****  *     CAN_NODE_MO_DisableTxEvent(HandlePtr1->lmobj_ptr[0]);
 920:C:/Workspaces/DAVE-4.4.2-64Bit/_PKDS_TSTS06_923M_X45_V1_8/Dave/Generated/CAN_NODE\can_node.h ****  *
 921:C:/Workspaces/DAVE-4.4.2-64Bit/_PKDS_TSTS06_923M_X45_V1_8/Dave/Generated/CAN_NODE\can_node.h ****  *   }
 922:C:/Workspaces/DAVE-4.4.2-64Bit/_PKDS_TSTS06_923M_X45_V1_8/Dave/Generated/CAN_NODE\can_node.h ****  *   // More code here
 923:C:/Workspaces/DAVE-4.4.2-64Bit/_PKDS_TSTS06_923M_X45_V1_8/Dave/Generated/CAN_NODE\can_node.h ****  *   while(1)
 924:C:/Workspaces/DAVE-4.4.2-64Bit/_PKDS_TSTS06_923M_X45_V1_8/Dave/Generated/CAN_NODE\can_node.h ****  *   {
 925:C:/Workspaces/DAVE-4.4.2-64Bit/_PKDS_TSTS06_923M_X45_V1_8/Dave/Generated/CAN_NODE\can_node.h ****  *
 926:C:/Workspaces/DAVE-4.4.2-64Bit/_PKDS_TSTS06_923M_X45_V1_8/Dave/Generated/CAN_NODE\can_node.h ****  *   }
 927:C:/Workspaces/DAVE-4.4.2-64Bit/_PKDS_TSTS06_923M_X45_V1_8/Dave/Generated/CAN_NODE\can_node.h ****  *
 928:C:/Workspaces/DAVE-4.4.2-64Bit/_PKDS_TSTS06_923M_X45_V1_8/Dave/Generated/CAN_NODE\can_node.h ****  *   return (1);
 929:C:/Workspaces/DAVE-4.4.2-64Bit/_PKDS_TSTS06_923M_X45_V1_8/Dave/Generated/CAN_NODE\can_node.h ****  * }
 930:C:/Workspaces/DAVE-4.4.2-64Bit/_PKDS_TSTS06_923M_X45_V1_8/Dave/Generated/CAN_NODE\can_node.h ****  * @endcode
 931:C:/Workspaces/DAVE-4.4.2-64Bit/_PKDS_TSTS06_923M_X45_V1_8/Dave/Generated/CAN_NODE\can_node.h ****  */
 932:C:/Workspaces/DAVE-4.4.2-64Bit/_PKDS_TSTS06_923M_X45_V1_8/Dave/Generated/CAN_NODE\can_node.h **** __STATIC_INLINE void CAN_NODE_MO_DisableTxEvent(const CAN_NODE_LMO_t *const can_lmo)
 933:C:/Workspaces/DAVE-4.4.2-64Bit/_PKDS_TSTS06_923M_X45_V1_8/Dave/Generated/CAN_NODE\can_node.h **** {
 934:C:/Workspaces/DAVE-4.4.2-64Bit/_PKDS_TSTS06_923M_X45_V1_8/Dave/Generated/CAN_NODE\can_node.h ****   XMC_ASSERT("CAN_NODE_MO_DisableTxEvent: null pointer", can_lmo != NULL);
 935:C:/Workspaces/DAVE-4.4.2-64Bit/_PKDS_TSTS06_923M_X45_V1_8/Dave/Generated/CAN_NODE\can_node.h ****   XMC_CAN_MO_DisableEvent(can_lmo->mo_ptr,XMC_CAN_MO_EVENT_TRANSMIT);
 936:C:/Workspaces/DAVE-4.4.2-64Bit/_PKDS_TSTS06_923M_X45_V1_8/Dave/Generated/CAN_NODE\can_node.h **** }
 937:C:/Workspaces/DAVE-4.4.2-64Bit/_PKDS_TSTS06_923M_X45_V1_8/Dave/Generated/CAN_NODE\can_node.h **** 
 938:C:/Workspaces/DAVE-4.4.2-64Bit/_PKDS_TSTS06_923M_X45_V1_8/Dave/Generated/CAN_NODE\can_node.h **** /**
 939:C:/Workspaces/DAVE-4.4.2-64Bit/_PKDS_TSTS06_923M_X45_V1_8/Dave/Generated/CAN_NODE\can_node.h ****  * @brief Function to disable MO receive event for the selected logical message object.
 940:C:/Workspaces/DAVE-4.4.2-64Bit/_PKDS_TSTS06_923M_X45_V1_8/Dave/Generated/CAN_NODE\can_node.h ****  *        If the receive event already set, then it reset the event by configuring the MOFCR
 941:C:/Workspaces/DAVE-4.4.2-64Bit/_PKDS_TSTS06_923M_X45_V1_8/Dave/Generated/CAN_NODE\can_node.h ****  *        register bit field RXIE.<br>
 942:C:/Workspaces/DAVE-4.4.2-64Bit/_PKDS_TSTS06_923M_X45_V1_8/Dave/Generated/CAN_NODE\can_node.h ****  * @param can_lmo is a pointer to a logical message object structure @ref CAN_NODE_LMO_t.
 943:C:/Workspaces/DAVE-4.4.2-64Bit/_PKDS_TSTS06_923M_X45_V1_8/Dave/Generated/CAN_NODE\can_node.h ****  * @return None.<BR>
 944:C:/Workspaces/DAVE-4.4.2-64Bit/_PKDS_TSTS06_923M_X45_V1_8/Dave/Generated/CAN_NODE\can_node.h ****  *
 945:C:/Workspaces/DAVE-4.4.2-64Bit/_PKDS_TSTS06_923M_X45_V1_8/Dave/Generated/CAN_NODE\can_node.h ****  * \par<b>Description:</b><br>
 946:C:/Workspaces/DAVE-4.4.2-64Bit/_PKDS_TSTS06_923M_X45_V1_8/Dave/Generated/CAN_NODE\can_node.h ****  *
 947:C:/Workspaces/DAVE-4.4.2-64Bit/_PKDS_TSTS06_923M_X45_V1_8/Dave/Generated/CAN_NODE\can_node.h ****  * This function to disable the MO receive event for the selected MO.
 948:C:/Workspaces/DAVE-4.4.2-64Bit/_PKDS_TSTS06_923M_X45_V1_8/Dave/Generated/CAN_NODE\can_node.h ****  * It configures MOFCR register bit field RXIE. To achieve this functionality
 949:C:/Workspaces/DAVE-4.4.2-64Bit/_PKDS_TSTS06_923M_X45_V1_8/Dave/Generated/CAN_NODE\can_node.h ****  *  API calls XMC_CAN_MO_DisableEvent().
 950:C:/Workspaces/DAVE-4.4.2-64Bit/_PKDS_TSTS06_923M_X45_V1_8/Dave/Generated/CAN_NODE\can_node.h ****  * <BR>
 951:C:/Workspaces/DAVE-4.4.2-64Bit/_PKDS_TSTS06_923M_X45_V1_8/Dave/Generated/CAN_NODE\can_node.h ****  *
 952:C:/Workspaces/DAVE-4.4.2-64Bit/_PKDS_TSTS06_923M_X45_V1_8/Dave/Generated/CAN_NODE\can_node.h ****  * Example Usage:
 953:C:/Workspaces/DAVE-4.4.2-64Bit/_PKDS_TSTS06_923M_X45_V1_8/Dave/Generated/CAN_NODE\can_node.h ****  * @code
 954:C:/Workspaces/DAVE-4.4.2-64Bit/_PKDS_TSTS06_923M_X45_V1_8/Dave/Generated/CAN_NODE\can_node.h ****  * #include "DAVE.h"         //Declarations from DAVE Code Generation (includes SFR declaration)
 955:C:/Workspaces/DAVE-4.4.2-64Bit/_PKDS_TSTS06_923M_X45_V1_8/Dave/Generated/CAN_NODE\can_node.h ****  *
 956:C:/Workspaces/DAVE-4.4.2-64Bit/_PKDS_TSTS06_923M_X45_V1_8/Dave/Generated/CAN_NODE\can_node.h ****  * int main(void)
 957:C:/Workspaces/DAVE-4.4.2-64Bit/_PKDS_TSTS06_923M_X45_V1_8/Dave/Generated/CAN_NODE\can_node.h ****  * {
 958:C:/Workspaces/DAVE-4.4.2-64Bit/_PKDS_TSTS06_923M_X45_V1_8/Dave/Generated/CAN_NODE\can_node.h ****  *   DAVE_STATUS_t init_status;
 959:C:/Workspaces/DAVE-4.4.2-64Bit/_PKDS_TSTS06_923M_X45_V1_8/Dave/Generated/CAN_NODE\can_node.h ****  *   const CAN_NODE_t *HandlePtr1= &CAN_NODE_0;
 960:C:/Workspaces/DAVE-4.4.2-64Bit/_PKDS_TSTS06_923M_X45_V1_8/Dave/Generated/CAN_NODE\can_node.h ****  *
 961:C:/Workspaces/DAVE-4.4.2-64Bit/_PKDS_TSTS06_923M_X45_V1_8/Dave/Generated/CAN_NODE\can_node.h ****  *   init_status = DAVE_Init();
 962:C:/Workspaces/DAVE-4.4.2-64Bit/_PKDS_TSTS06_923M_X45_V1_8/Dave/Generated/CAN_NODE\can_node.h ****  *   if (init_status == DAVE_STATUS_SUCCESS)
 963:C:/Workspaces/DAVE-4.4.2-64Bit/_PKDS_TSTS06_923M_X45_V1_8/Dave/Generated/CAN_NODE\can_node.h ****  *   {
 964:C:/Workspaces/DAVE-4.4.2-64Bit/_PKDS_TSTS06_923M_X45_V1_8/Dave/Generated/CAN_NODE\can_node.h ****  *
 965:C:/Workspaces/DAVE-4.4.2-64Bit/_PKDS_TSTS06_923M_X45_V1_8/Dave/Generated/CAN_NODE\can_node.h ****  *     //Enable the receive event for the MO
 966:C:/Workspaces/DAVE-4.4.2-64Bit/_PKDS_TSTS06_923M_X45_V1_8/Dave/Generated/CAN_NODE\can_node.h ****  *     CAN_NODE_MO_EnableRxEvent(HandlePtr1->lmobj_ptr[0]);
 967:C:/Workspaces/DAVE-4.4.2-64Bit/_PKDS_TSTS06_923M_X45_V1_8/Dave/Generated/CAN_NODE\can_node.h ****  *
 968:C:/Workspaces/DAVE-4.4.2-64Bit/_PKDS_TSTS06_923M_X45_V1_8/Dave/Generated/CAN_NODE\can_node.h ****  *     // Application code
 969:C:/Workspaces/DAVE-4.4.2-64Bit/_PKDS_TSTS06_923M_X45_V1_8/Dave/Generated/CAN_NODE\can_node.h ****  *
 970:C:/Workspaces/DAVE-4.4.2-64Bit/_PKDS_TSTS06_923M_X45_V1_8/Dave/Generated/CAN_NODE\can_node.h ****  *     CAN_NODE_MO_DisableRxEvent(HandlePtr1->lmobj_ptr[0]);
 971:C:/Workspaces/DAVE-4.4.2-64Bit/_PKDS_TSTS06_923M_X45_V1_8/Dave/Generated/CAN_NODE\can_node.h ****  *
 972:C:/Workspaces/DAVE-4.4.2-64Bit/_PKDS_TSTS06_923M_X45_V1_8/Dave/Generated/CAN_NODE\can_node.h ****  *   }
 973:C:/Workspaces/DAVE-4.4.2-64Bit/_PKDS_TSTS06_923M_X45_V1_8/Dave/Generated/CAN_NODE\can_node.h ****  *   // More code here
 974:C:/Workspaces/DAVE-4.4.2-64Bit/_PKDS_TSTS06_923M_X45_V1_8/Dave/Generated/CAN_NODE\can_node.h ****  *   while(1)
 975:C:/Workspaces/DAVE-4.4.2-64Bit/_PKDS_TSTS06_923M_X45_V1_8/Dave/Generated/CAN_NODE\can_node.h ****  *   {
 976:C:/Workspaces/DAVE-4.4.2-64Bit/_PKDS_TSTS06_923M_X45_V1_8/Dave/Generated/CAN_NODE\can_node.h ****  *
 977:C:/Workspaces/DAVE-4.4.2-64Bit/_PKDS_TSTS06_923M_X45_V1_8/Dave/Generated/CAN_NODE\can_node.h ****  *   }
 978:C:/Workspaces/DAVE-4.4.2-64Bit/_PKDS_TSTS06_923M_X45_V1_8/Dave/Generated/CAN_NODE\can_node.h ****  *
 979:C:/Workspaces/DAVE-4.4.2-64Bit/_PKDS_TSTS06_923M_X45_V1_8/Dave/Generated/CAN_NODE\can_node.h ****  *   return (1);
 980:C:/Workspaces/DAVE-4.4.2-64Bit/_PKDS_TSTS06_923M_X45_V1_8/Dave/Generated/CAN_NODE\can_node.h ****  * }
 981:C:/Workspaces/DAVE-4.4.2-64Bit/_PKDS_TSTS06_923M_X45_V1_8/Dave/Generated/CAN_NODE\can_node.h ****  * @endcode
 982:C:/Workspaces/DAVE-4.4.2-64Bit/_PKDS_TSTS06_923M_X45_V1_8/Dave/Generated/CAN_NODE\can_node.h ****  */
 983:C:/Workspaces/DAVE-4.4.2-64Bit/_PKDS_TSTS06_923M_X45_V1_8/Dave/Generated/CAN_NODE\can_node.h **** __STATIC_INLINE void CAN_NODE_MO_DisableRxEvent(const CAN_NODE_LMO_t *const can_lmo)
 984:C:/Workspaces/DAVE-4.4.2-64Bit/_PKDS_TSTS06_923M_X45_V1_8/Dave/Generated/CAN_NODE\can_node.h **** {
 985:C:/Workspaces/DAVE-4.4.2-64Bit/_PKDS_TSTS06_923M_X45_V1_8/Dave/Generated/CAN_NODE\can_node.h ****   XMC_ASSERT("CAN_NODE_MO_DisableRxEvent: null pointer", can_lmo != NULL);
 986:C:/Workspaces/DAVE-4.4.2-64Bit/_PKDS_TSTS06_923M_X45_V1_8/Dave/Generated/CAN_NODE\can_node.h ****   XMC_CAN_MO_DisableEvent(can_lmo->mo_ptr,XMC_CAN_MO_EVENT_RECEIVE);
 987:C:/Workspaces/DAVE-4.4.2-64Bit/_PKDS_TSTS06_923M_X45_V1_8/Dave/Generated/CAN_NODE\can_node.h **** }
 988:C:/Workspaces/DAVE-4.4.2-64Bit/_PKDS_TSTS06_923M_X45_V1_8/Dave/Generated/CAN_NODE\can_node.h **** 
 989:C:/Workspaces/DAVE-4.4.2-64Bit/_PKDS_TSTS06_923M_X45_V1_8/Dave/Generated/CAN_NODE\can_node.h **** /**
 990:C:/Workspaces/DAVE-4.4.2-64Bit/_PKDS_TSTS06_923M_X45_V1_8/Dave/Generated/CAN_NODE\can_node.h ****  * @brief Function to update the data bytes for the selected logical message object. If the selecte
 991:C:/Workspaces/DAVE-4.4.2-64Bit/_PKDS_TSTS06_923M_X45_V1_8/Dave/Generated/CAN_NODE\can_node.h ****  *      object is of type transmit, then updates the data which passed as an argument to the messag
 992:C:/Workspaces/DAVE-4.4.2-64Bit/_PKDS_TSTS06_923M_X45_V1_8/Dave/Generated/CAN_NODE\can_node.h ****  * @param lmo_ptr is a pointer to a logical message object structure of type CAN_NODE_LMO_t.
 993:C:/Workspaces/DAVE-4.4.2-64Bit/_PKDS_TSTS06_923M_X45_V1_8/Dave/Generated/CAN_NODE\can_node.h ****  * @param array_data is of type uint8_t* is a pointer to the data byte array to transmit.
 994:C:/Workspaces/DAVE-4.4.2-64Bit/_PKDS_TSTS06_923M_X45_V1_8/Dave/Generated/CAN_NODE\can_node.h ****  * @return status of type CAN_NODE_STATUS_t.<BR>
 995:C:/Workspaces/DAVE-4.4.2-64Bit/_PKDS_TSTS06_923M_X45_V1_8/Dave/Generated/CAN_NODE\can_node.h ****  *
 996:C:/Workspaces/DAVE-4.4.2-64Bit/_PKDS_TSTS06_923M_X45_V1_8/Dave/Generated/CAN_NODE\can_node.h ****  * \par<b>Description:</b><br>
 997:C:/Workspaces/DAVE-4.4.2-64Bit/_PKDS_TSTS06_923M_X45_V1_8/Dave/Generated/CAN_NODE\can_node.h ****  *
 998:C:/Workspaces/DAVE-4.4.2-64Bit/_PKDS_TSTS06_923M_X45_V1_8/Dave/Generated/CAN_NODE\can_node.h ****  * Function to update the data bytes for the selected transmit MO.
 999:C:/Workspaces/DAVE-4.4.2-64Bit/_PKDS_TSTS06_923M_X45_V1_8/Dave/Generated/CAN_NODE\can_node.h ****  * It configures data registers MODATAL and MODATAH with the new data.
1000:C:/Workspaces/DAVE-4.4.2-64Bit/_PKDS_TSTS06_923M_X45_V1_8/Dave/Generated/CAN_NODE\can_node.h ****  * To achieve this functionality API calls XMC_CAN_MO_UpdateData().
1001:C:/Workspaces/DAVE-4.4.2-64Bit/_PKDS_TSTS06_923M_X45_V1_8/Dave/Generated/CAN_NODE\can_node.h ****  * <BR>
1002:C:/Workspaces/DAVE-4.4.2-64Bit/_PKDS_TSTS06_923M_X45_V1_8/Dave/Generated/CAN_NODE\can_node.h ****  *
1003:C:/Workspaces/DAVE-4.4.2-64Bit/_PKDS_TSTS06_923M_X45_V1_8/Dave/Generated/CAN_NODE\can_node.h ****  * Example Usage:
1004:C:/Workspaces/DAVE-4.4.2-64Bit/_PKDS_TSTS06_923M_X45_V1_8/Dave/Generated/CAN_NODE\can_node.h ****  * @code
1005:C:/Workspaces/DAVE-4.4.2-64Bit/_PKDS_TSTS06_923M_X45_V1_8/Dave/Generated/CAN_NODE\can_node.h ****  * #include "DAVE.h"         //Declarations from DAVE Code Generation (includes SFR declaration)
1006:C:/Workspaces/DAVE-4.4.2-64Bit/_PKDS_TSTS06_923M_X45_V1_8/Dave/Generated/CAN_NODE\can_node.h ****  *
1007:C:/Workspaces/DAVE-4.4.2-64Bit/_PKDS_TSTS06_923M_X45_V1_8/Dave/Generated/CAN_NODE\can_node.h ****  * int main(void)
1008:C:/Workspaces/DAVE-4.4.2-64Bit/_PKDS_TSTS06_923M_X45_V1_8/Dave/Generated/CAN_NODE\can_node.h ****  * {
1009:C:/Workspaces/DAVE-4.4.2-64Bit/_PKDS_TSTS06_923M_X45_V1_8/Dave/Generated/CAN_NODE\can_node.h ****  *   DAVE_STATUS_t init_status;
1010:C:/Workspaces/DAVE-4.4.2-64Bit/_PKDS_TSTS06_923M_X45_V1_8/Dave/Generated/CAN_NODE\can_node.h ****  *   CAN_NODE_STATUS_t status;
1011:C:/Workspaces/DAVE-4.4.2-64Bit/_PKDS_TSTS06_923M_X45_V1_8/Dave/Generated/CAN_NODE\can_node.h ****  *   const CAN_NODE_t *HandlePtr1 = &CAN_NODE_0;
1012:C:/Workspaces/DAVE-4.4.2-64Bit/_PKDS_TSTS06_923M_X45_V1_8/Dave/Generated/CAN_NODE\can_node.h ****  *   uint8_t can_data_arr[8] = {0x01,0x02,0x03,0x04,0x05,0x06,0x07,0x08};
1013:C:/Workspaces/DAVE-4.4.2-64Bit/_PKDS_TSTS06_923M_X45_V1_8/Dave/Generated/CAN_NODE\can_node.h ****  *   uint8_t *array_data;
1014:C:/Workspaces/DAVE-4.4.2-64Bit/_PKDS_TSTS06_923M_X45_V1_8/Dave/Generated/CAN_NODE\can_node.h ****  *
1015:C:/Workspaces/DAVE-4.4.2-64Bit/_PKDS_TSTS06_923M_X45_V1_8/Dave/Generated/CAN_NODE\can_node.h ****  *   array_data = can_data_arr;
1016:C:/Workspaces/DAVE-4.4.2-64Bit/_PKDS_TSTS06_923M_X45_V1_8/Dave/Generated/CAN_NODE\can_node.h ****  *
1017:C:/Workspaces/DAVE-4.4.2-64Bit/_PKDS_TSTS06_923M_X45_V1_8/Dave/Generated/CAN_NODE\can_node.h ****  *   init_status = DAVE_Init();
1018:C:/Workspaces/DAVE-4.4.2-64Bit/_PKDS_TSTS06_923M_X45_V1_8/Dave/Generated/CAN_NODE\can_node.h ****  *   if (init_status == DAVE_STATUS_SUCCESS)
1019:C:/Workspaces/DAVE-4.4.2-64Bit/_PKDS_TSTS06_923M_X45_V1_8/Dave/Generated/CAN_NODE\can_node.h ****  *   {
1020:C:/Workspaces/DAVE-4.4.2-64Bit/_PKDS_TSTS06_923M_X45_V1_8/Dave/Generated/CAN_NODE\can_node.h ****  *     //  update data for the MO to transmit
1021:C:/Workspaces/DAVE-4.4.2-64Bit/_PKDS_TSTS06_923M_X45_V1_8/Dave/Generated/CAN_NODE\can_node.h ****  *     status = (CAN_NODE_STATUS_t)CAN_NODE_MO_UpdateData(HandlePtr1->lmobj_ptr[0],array_data);
1022:C:/Workspaces/DAVE-4.4.2-64Bit/_PKDS_TSTS06_923M_X45_V1_8/Dave/Generated/CAN_NODE\can_node.h ****  *
1023:C:/Workspaces/DAVE-4.4.2-64Bit/_PKDS_TSTS06_923M_X45_V1_8/Dave/Generated/CAN_NODE\can_node.h ****  *     if (status == CAN_NODE_STATUS_SUCCESS)
1024:C:/Workspaces/DAVE-4.4.2-64Bit/_PKDS_TSTS06_923M_X45_V1_8/Dave/Generated/CAN_NODE\can_node.h ****  *     {
1025:C:/Workspaces/DAVE-4.4.2-64Bit/_PKDS_TSTS06_923M_X45_V1_8/Dave/Generated/CAN_NODE\can_node.h ****  *       // message object data updated.
1026:C:/Workspaces/DAVE-4.4.2-64Bit/_PKDS_TSTS06_923M_X45_V1_8/Dave/Generated/CAN_NODE\can_node.h ****  *
1027:C:/Workspaces/DAVE-4.4.2-64Bit/_PKDS_TSTS06_923M_X45_V1_8/Dave/Generated/CAN_NODE\can_node.h ****  *       // transmit the data
1028:C:/Workspaces/DAVE-4.4.2-64Bit/_PKDS_TSTS06_923M_X45_V1_8/Dave/Generated/CAN_NODE\can_node.h ****  *       CAN_NODE_MO_Transmit(HandlePtr1->lmobj_ptr[0]);
1029:C:/Workspaces/DAVE-4.4.2-64Bit/_PKDS_TSTS06_923M_X45_V1_8/Dave/Generated/CAN_NODE\can_node.h ****  *     }
1030:C:/Workspaces/DAVE-4.4.2-64Bit/_PKDS_TSTS06_923M_X45_V1_8/Dave/Generated/CAN_NODE\can_node.h ****  *     else
1031:C:/Workspaces/DAVE-4.4.2-64Bit/_PKDS_TSTS06_923M_X45_V1_8/Dave/Generated/CAN_NODE\can_node.h ****  *     {
1032:C:/Workspaces/DAVE-4.4.2-64Bit/_PKDS_TSTS06_923M_X45_V1_8/Dave/Generated/CAN_NODE\can_node.h ****  *       // message object failed to update.
1033:C:/Workspaces/DAVE-4.4.2-64Bit/_PKDS_TSTS06_923M_X45_V1_8/Dave/Generated/CAN_NODE\can_node.h ****  *     }
1034:C:/Workspaces/DAVE-4.4.2-64Bit/_PKDS_TSTS06_923M_X45_V1_8/Dave/Generated/CAN_NODE\can_node.h ****  *
1035:C:/Workspaces/DAVE-4.4.2-64Bit/_PKDS_TSTS06_923M_X45_V1_8/Dave/Generated/CAN_NODE\can_node.h ****  *   }
1036:C:/Workspaces/DAVE-4.4.2-64Bit/_PKDS_TSTS06_923M_X45_V1_8/Dave/Generated/CAN_NODE\can_node.h ****  *   // More code here
1037:C:/Workspaces/DAVE-4.4.2-64Bit/_PKDS_TSTS06_923M_X45_V1_8/Dave/Generated/CAN_NODE\can_node.h ****  *   while(1)
1038:C:/Workspaces/DAVE-4.4.2-64Bit/_PKDS_TSTS06_923M_X45_V1_8/Dave/Generated/CAN_NODE\can_node.h ****  *   {
1039:C:/Workspaces/DAVE-4.4.2-64Bit/_PKDS_TSTS06_923M_X45_V1_8/Dave/Generated/CAN_NODE\can_node.h ****  *
1040:C:/Workspaces/DAVE-4.4.2-64Bit/_PKDS_TSTS06_923M_X45_V1_8/Dave/Generated/CAN_NODE\can_node.h ****  *   }
1041:C:/Workspaces/DAVE-4.4.2-64Bit/_PKDS_TSTS06_923M_X45_V1_8/Dave/Generated/CAN_NODE\can_node.h ****  *
1042:C:/Workspaces/DAVE-4.4.2-64Bit/_PKDS_TSTS06_923M_X45_V1_8/Dave/Generated/CAN_NODE\can_node.h ****  *   return (1);
1043:C:/Workspaces/DAVE-4.4.2-64Bit/_PKDS_TSTS06_923M_X45_V1_8/Dave/Generated/CAN_NODE\can_node.h ****  * }
1044:C:/Workspaces/DAVE-4.4.2-64Bit/_PKDS_TSTS06_923M_X45_V1_8/Dave/Generated/CAN_NODE\can_node.h ****  * @endcode
1045:C:/Workspaces/DAVE-4.4.2-64Bit/_PKDS_TSTS06_923M_X45_V1_8/Dave/Generated/CAN_NODE\can_node.h ****  */
1046:C:/Workspaces/DAVE-4.4.2-64Bit/_PKDS_TSTS06_923M_X45_V1_8/Dave/Generated/CAN_NODE\can_node.h **** CAN_NODE_STATUS_t CAN_NODE_MO_UpdateData(const CAN_NODE_LMO_t *const lmo_ptr, uint8_t *array_data);
1047:C:/Workspaces/DAVE-4.4.2-64Bit/_PKDS_TSTS06_923M_X45_V1_8/Dave/Generated/CAN_NODE\can_node.h **** 
1048:C:/Workspaces/DAVE-4.4.2-64Bit/_PKDS_TSTS06_923M_X45_V1_8/Dave/Generated/CAN_NODE\can_node.h **** /**
1049:C:/Workspaces/DAVE-4.4.2-64Bit/_PKDS_TSTS06_923M_X45_V1_8/Dave/Generated/CAN_NODE\can_node.h ****  * @brief Function to transmit the data from the configured message object.
1050:C:/Workspaces/DAVE-4.4.2-64Bit/_PKDS_TSTS06_923M_X45_V1_8/Dave/Generated/CAN_NODE\can_node.h ****  *        It verifies whether the transmission is ongoing on message object,and put a transmit
1051:C:/Workspaces/DAVE-4.4.2-64Bit/_PKDS_TSTS06_923M_X45_V1_8/Dave/Generated/CAN_NODE\can_node.h ****  *        request to transmit message object.
1052:C:/Workspaces/DAVE-4.4.2-64Bit/_PKDS_TSTS06_923M_X45_V1_8/Dave/Generated/CAN_NODE\can_node.h ****  * @param lmo_ptr is a pointer to a message object structure @ref CAN_NODE_LMO_t.
1053:C:/Workspaces/DAVE-4.4.2-64Bit/_PKDS_TSTS06_923M_X45_V1_8/Dave/Generated/CAN_NODE\can_node.h ****  * @return status of type CAN_NODE_STATUS_t.<BR>
1054:C:/Workspaces/DAVE-4.4.2-64Bit/_PKDS_TSTS06_923M_X45_V1_8/Dave/Generated/CAN_NODE\can_node.h ****  *
1055:C:/Workspaces/DAVE-4.4.2-64Bit/_PKDS_TSTS06_923M_X45_V1_8/Dave/Generated/CAN_NODE\can_node.h ****  * \par<b>Description:</b><br>
1056:C:/Workspaces/DAVE-4.4.2-64Bit/_PKDS_TSTS06_923M_X45_V1_8/Dave/Generated/CAN_NODE\can_node.h ****  *
1057:C:/Workspaces/DAVE-4.4.2-64Bit/_PKDS_TSTS06_923M_X45_V1_8/Dave/Generated/CAN_NODE\can_node.h ****  * This function to transmit the data for the selected MO by enabling the transmit request
1058:C:/Workspaces/DAVE-4.4.2-64Bit/_PKDS_TSTS06_923M_X45_V1_8/Dave/Generated/CAN_NODE\can_node.h ****  *      bit of MOCTR register. To achieve this functionality API calls XMC_CAN_MO_Transmit().
1059:C:/Workspaces/DAVE-4.4.2-64Bit/_PKDS_TSTS06_923M_X45_V1_8/Dave/Generated/CAN_NODE\can_node.h ****  * <BR>
1060:C:/Workspaces/DAVE-4.4.2-64Bit/_PKDS_TSTS06_923M_X45_V1_8/Dave/Generated/CAN_NODE\can_node.h ****  *
1061:C:/Workspaces/DAVE-4.4.2-64Bit/_PKDS_TSTS06_923M_X45_V1_8/Dave/Generated/CAN_NODE\can_node.h ****  * Example Usage:
1062:C:/Workspaces/DAVE-4.4.2-64Bit/_PKDS_TSTS06_923M_X45_V1_8/Dave/Generated/CAN_NODE\can_node.h ****  * 
1063:C:/Workspaces/DAVE-4.4.2-64Bit/_PKDS_TSTS06_923M_X45_V1_8/Dave/Generated/CAN_NODE\can_node.h ****  * @code
1064:C:/Workspaces/DAVE-4.4.2-64Bit/_PKDS_TSTS06_923M_X45_V1_8/Dave/Generated/CAN_NODE\can_node.h ****  * #include "DAVE.h"         //Declarations from DAVE Code Generation (includes SFR declaration)
1065:C:/Workspaces/DAVE-4.4.2-64Bit/_PKDS_TSTS06_923M_X45_V1_8/Dave/Generated/CAN_NODE\can_node.h ****  *
1066:C:/Workspaces/DAVE-4.4.2-64Bit/_PKDS_TSTS06_923M_X45_V1_8/Dave/Generated/CAN_NODE\can_node.h ****  * int main(void)
1067:C:/Workspaces/DAVE-4.4.2-64Bit/_PKDS_TSTS06_923M_X45_V1_8/Dave/Generated/CAN_NODE\can_node.h ****  * {
1068:C:/Workspaces/DAVE-4.4.2-64Bit/_PKDS_TSTS06_923M_X45_V1_8/Dave/Generated/CAN_NODE\can_node.h ****  *   DAVE_STATUS_t init_status;
1069:C:/Workspaces/DAVE-4.4.2-64Bit/_PKDS_TSTS06_923M_X45_V1_8/Dave/Generated/CAN_NODE\can_node.h ****  *   CAN_NODE_STATUS_t mo_tranmit_status;
