   1              	 .cpu cortex-m4
   2              	 .eabi_attribute 27,1
   3              	 .eabi_attribute 20,1
   4              	 .eabi_attribute 21,1
   5              	 .eabi_attribute 23,3
   6              	 .eabi_attribute 24,1
   7              	 .eabi_attribute 25,1
   8              	 .eabi_attribute 26,1
   9              	 .eabi_attribute 30,6
  10              	 .eabi_attribute 34,1
  11              	 .eabi_attribute 18,4
  12              	 .file "door_periph.c"
  13              	 .text
  14              	.Ltext0:
  15              	 .cfi_sections .debug_frame
  16              	 .section .text.XMC_GPIO_SetOutputHigh,"ax",%progbits
  17              	 .align 1
  18              	 .arch armv7e-m
  19              	 .syntax unified
  20              	 .thumb
  21              	 .thumb_func
  22              	 .fpu fpv4-sp-d16
  24              	XMC_GPIO_SetOutputHigh:
  25              	.LFB135:
  26              	 .file 1 "C:/Workspaces/DAVE-4.4.2-64Bit/_PKDS_TSTS06_STAND/Libraries/XMCLib/inc/xmc_gpio.h"
   1:C:/Workspaces/DAVE-4.4.2-64Bit/_PKDS_TSTS06_STAND/Libraries/XMCLib/inc\xmc_gpio.h **** /**
   2:C:/Workspaces/DAVE-4.4.2-64Bit/_PKDS_TSTS06_STAND/Libraries/XMCLib/inc\xmc_gpio.h ****  * @file xmc_gpio.h
   3:C:/Workspaces/DAVE-4.4.2-64Bit/_PKDS_TSTS06_STAND/Libraries/XMCLib/inc\xmc_gpio.h ****  * @date 2015-06-20
   4:C:/Workspaces/DAVE-4.4.2-64Bit/_PKDS_TSTS06_STAND/Libraries/XMCLib/inc\xmc_gpio.h ****  *
   5:C:/Workspaces/DAVE-4.4.2-64Bit/_PKDS_TSTS06_STAND/Libraries/XMCLib/inc\xmc_gpio.h ****  * @cond
   6:C:/Workspaces/DAVE-4.4.2-64Bit/_PKDS_TSTS06_STAND/Libraries/XMCLib/inc\xmc_gpio.h ****  *****************************************************************************
   7:C:/Workspaces/DAVE-4.4.2-64Bit/_PKDS_TSTS06_STAND/Libraries/XMCLib/inc\xmc_gpio.h ****  * XMClib v2.2.0 - XMC Peripheral Driver Library
   8:C:/Workspaces/DAVE-4.4.2-64Bit/_PKDS_TSTS06_STAND/Libraries/XMCLib/inc\xmc_gpio.h ****  *
   9:C:/Workspaces/DAVE-4.4.2-64Bit/_PKDS_TSTS06_STAND/Libraries/XMCLib/inc\xmc_gpio.h ****  * Copyright (c) 2015-2020, Infineon Technologies AG
  10:C:/Workspaces/DAVE-4.4.2-64Bit/_PKDS_TSTS06_STAND/Libraries/XMCLib/inc\xmc_gpio.h ****  * All rights reserved.
  11:C:/Workspaces/DAVE-4.4.2-64Bit/_PKDS_TSTS06_STAND/Libraries/XMCLib/inc\xmc_gpio.h ****  *
  12:C:/Workspaces/DAVE-4.4.2-64Bit/_PKDS_TSTS06_STAND/Libraries/XMCLib/inc\xmc_gpio.h ****  * Boost Software License - Version 1.0 - August 17th, 2003
  13:C:/Workspaces/DAVE-4.4.2-64Bit/_PKDS_TSTS06_STAND/Libraries/XMCLib/inc\xmc_gpio.h ****  *
  14:C:/Workspaces/DAVE-4.4.2-64Bit/_PKDS_TSTS06_STAND/Libraries/XMCLib/inc\xmc_gpio.h ****  * Permission is hereby granted, free of charge, to any person or organization
  15:C:/Workspaces/DAVE-4.4.2-64Bit/_PKDS_TSTS06_STAND/Libraries/XMCLib/inc\xmc_gpio.h ****  * obtaining a copy of the software and accompanying documentation covered by
  16:C:/Workspaces/DAVE-4.4.2-64Bit/_PKDS_TSTS06_STAND/Libraries/XMCLib/inc\xmc_gpio.h ****  * this license (the "Software") to use, reproduce, display, distribute,
  17:C:/Workspaces/DAVE-4.4.2-64Bit/_PKDS_TSTS06_STAND/Libraries/XMCLib/inc\xmc_gpio.h ****  * execute, and transmit the Software, and to prepare derivative works of the
  18:C:/Workspaces/DAVE-4.4.2-64Bit/_PKDS_TSTS06_STAND/Libraries/XMCLib/inc\xmc_gpio.h ****  * Software, and to permit third-parties to whom the Software is furnished to
  19:C:/Workspaces/DAVE-4.4.2-64Bit/_PKDS_TSTS06_STAND/Libraries/XMCLib/inc\xmc_gpio.h ****  * do so, all subject to the following:
  20:C:/Workspaces/DAVE-4.4.2-64Bit/_PKDS_TSTS06_STAND/Libraries/XMCLib/inc\xmc_gpio.h ****  *
  21:C:/Workspaces/DAVE-4.4.2-64Bit/_PKDS_TSTS06_STAND/Libraries/XMCLib/inc\xmc_gpio.h ****  * The copyright notices in the Software and this entire statement, including
  22:C:/Workspaces/DAVE-4.4.2-64Bit/_PKDS_TSTS06_STAND/Libraries/XMCLib/inc\xmc_gpio.h ****  * the above license grant, this restriction and the following disclaimer,
  23:C:/Workspaces/DAVE-4.4.2-64Bit/_PKDS_TSTS06_STAND/Libraries/XMCLib/inc\xmc_gpio.h ****  * must be included in all copies of the Software, in whole or in part, and
  24:C:/Workspaces/DAVE-4.4.2-64Bit/_PKDS_TSTS06_STAND/Libraries/XMCLib/inc\xmc_gpio.h ****  * all derivative works of the Software, unless such copies or derivative
  25:C:/Workspaces/DAVE-4.4.2-64Bit/_PKDS_TSTS06_STAND/Libraries/XMCLib/inc\xmc_gpio.h ****  * works are solely in the form of machine-executable object code generated by
  26:C:/Workspaces/DAVE-4.4.2-64Bit/_PKDS_TSTS06_STAND/Libraries/XMCLib/inc\xmc_gpio.h ****  * a source language processor.
  27:C:/Workspaces/DAVE-4.4.2-64Bit/_PKDS_TSTS06_STAND/Libraries/XMCLib/inc\xmc_gpio.h ****  *
  28:C:/Workspaces/DAVE-4.4.2-64Bit/_PKDS_TSTS06_STAND/Libraries/XMCLib/inc\xmc_gpio.h ****  * THE SOFTWARE IS PROVIDED "AS IS", WITHOUT WARRANTY OF ANY KIND, EXPRESS OR
  29:C:/Workspaces/DAVE-4.4.2-64Bit/_PKDS_TSTS06_STAND/Libraries/XMCLib/inc\xmc_gpio.h ****  * IMPLIED, INCLUDING BUT NOT LIMITED TO THE WARRANTIES OF MERCHANTABILITY,
  30:C:/Workspaces/DAVE-4.4.2-64Bit/_PKDS_TSTS06_STAND/Libraries/XMCLib/inc\xmc_gpio.h ****  * FITNESS FOR A PARTICULAR PURPOSE, TITLE AND NON-INFRINGEMENT. IN NO EVENT
  31:C:/Workspaces/DAVE-4.4.2-64Bit/_PKDS_TSTS06_STAND/Libraries/XMCLib/inc\xmc_gpio.h ****  * SHALL THE COPYRIGHT HOLDERS OR ANYONE DISTRIBUTING THE SOFTWARE BE LIABLE
  32:C:/Workspaces/DAVE-4.4.2-64Bit/_PKDS_TSTS06_STAND/Libraries/XMCLib/inc\xmc_gpio.h ****  * FOR ANY DAMAGES OR OTHER LIABILITY, WHETHER IN CONTRACT, TORT OR OTHERWISE,
  33:C:/Workspaces/DAVE-4.4.2-64Bit/_PKDS_TSTS06_STAND/Libraries/XMCLib/inc\xmc_gpio.h ****  * ARISING FROM, OUT OF OR IN CONNECTION WITH THE SOFTWARE OR THE USE OR OTHER
  34:C:/Workspaces/DAVE-4.4.2-64Bit/_PKDS_TSTS06_STAND/Libraries/XMCLib/inc\xmc_gpio.h ****  * DEALINGS IN THE SOFTWARE.
  35:C:/Workspaces/DAVE-4.4.2-64Bit/_PKDS_TSTS06_STAND/Libraries/XMCLib/inc\xmc_gpio.h ****  *
  36:C:/Workspaces/DAVE-4.4.2-64Bit/_PKDS_TSTS06_STAND/Libraries/XMCLib/inc\xmc_gpio.h ****  * To improve the quality of the software, users are encouraged to share
  37:C:/Workspaces/DAVE-4.4.2-64Bit/_PKDS_TSTS06_STAND/Libraries/XMCLib/inc\xmc_gpio.h ****  * modifications, enhancements or bug fixes with Infineon Technologies AG
  38:C:/Workspaces/DAVE-4.4.2-64Bit/_PKDS_TSTS06_STAND/Libraries/XMCLib/inc\xmc_gpio.h ****  * at XMCSupport@infineon.com.
  39:C:/Workspaces/DAVE-4.4.2-64Bit/_PKDS_TSTS06_STAND/Libraries/XMCLib/inc\xmc_gpio.h ****  *****************************************************************************
  40:C:/Workspaces/DAVE-4.4.2-64Bit/_PKDS_TSTS06_STAND/Libraries/XMCLib/inc\xmc_gpio.h ****  *
  41:C:/Workspaces/DAVE-4.4.2-64Bit/_PKDS_TSTS06_STAND/Libraries/XMCLib/inc\xmc_gpio.h ****  * Change History
  42:C:/Workspaces/DAVE-4.4.2-64Bit/_PKDS_TSTS06_STAND/Libraries/XMCLib/inc\xmc_gpio.h ****  * --------------
  43:C:/Workspaces/DAVE-4.4.2-64Bit/_PKDS_TSTS06_STAND/Libraries/XMCLib/inc\xmc_gpio.h ****  *
  44:C:/Workspaces/DAVE-4.4.2-64Bit/_PKDS_TSTS06_STAND/Libraries/XMCLib/inc\xmc_gpio.h ****  * 2015-02-20:
  45:C:/Workspaces/DAVE-4.4.2-64Bit/_PKDS_TSTS06_STAND/Libraries/XMCLib/inc\xmc_gpio.h ****  *     - Initial draft<br>
  46:C:/Workspaces/DAVE-4.4.2-64Bit/_PKDS_TSTS06_STAND/Libraries/XMCLib/inc\xmc_gpio.h ****  *     - Documentation improved <br>
  47:C:/Workspaces/DAVE-4.4.2-64Bit/_PKDS_TSTS06_STAND/Libraries/XMCLib/inc\xmc_gpio.h ****  *
  48:C:/Workspaces/DAVE-4.4.2-64Bit/_PKDS_TSTS06_STAND/Libraries/XMCLib/inc\xmc_gpio.h ****  * 2015-06-20:
  49:C:/Workspaces/DAVE-4.4.2-64Bit/_PKDS_TSTS06_STAND/Libraries/XMCLib/inc\xmc_gpio.h ****  *     - Removed version macros and declaration of GetDriverVersion API
  50:C:/Workspaces/DAVE-4.4.2-64Bit/_PKDS_TSTS06_STAND/Libraries/XMCLib/inc\xmc_gpio.h ****  *
  51:C:/Workspaces/DAVE-4.4.2-64Bit/_PKDS_TSTS06_STAND/Libraries/XMCLib/inc\xmc_gpio.h ****  * @endcond
  52:C:/Workspaces/DAVE-4.4.2-64Bit/_PKDS_TSTS06_STAND/Libraries/XMCLib/inc\xmc_gpio.h ****  *
  53:C:/Workspaces/DAVE-4.4.2-64Bit/_PKDS_TSTS06_STAND/Libraries/XMCLib/inc\xmc_gpio.h ****  */
  54:C:/Workspaces/DAVE-4.4.2-64Bit/_PKDS_TSTS06_STAND/Libraries/XMCLib/inc\xmc_gpio.h **** 
  55:C:/Workspaces/DAVE-4.4.2-64Bit/_PKDS_TSTS06_STAND/Libraries/XMCLib/inc\xmc_gpio.h **** #ifndef XMC_GPIO_H
  56:C:/Workspaces/DAVE-4.4.2-64Bit/_PKDS_TSTS06_STAND/Libraries/XMCLib/inc\xmc_gpio.h **** #define XMC_GPIO_H
  57:C:/Workspaces/DAVE-4.4.2-64Bit/_PKDS_TSTS06_STAND/Libraries/XMCLib/inc\xmc_gpio.h **** 
  58:C:/Workspaces/DAVE-4.4.2-64Bit/_PKDS_TSTS06_STAND/Libraries/XMCLib/inc\xmc_gpio.h **** /**************************************************************************************************
  59:C:/Workspaces/DAVE-4.4.2-64Bit/_PKDS_TSTS06_STAND/Libraries/XMCLib/inc\xmc_gpio.h ****  * HEADER FILES
  60:C:/Workspaces/DAVE-4.4.2-64Bit/_PKDS_TSTS06_STAND/Libraries/XMCLib/inc\xmc_gpio.h ****  **************************************************************************************************
  61:C:/Workspaces/DAVE-4.4.2-64Bit/_PKDS_TSTS06_STAND/Libraries/XMCLib/inc\xmc_gpio.h **** 
  62:C:/Workspaces/DAVE-4.4.2-64Bit/_PKDS_TSTS06_STAND/Libraries/XMCLib/inc\xmc_gpio.h **** #include "xmc_common.h"
  63:C:/Workspaces/DAVE-4.4.2-64Bit/_PKDS_TSTS06_STAND/Libraries/XMCLib/inc\xmc_gpio.h **** 
  64:C:/Workspaces/DAVE-4.4.2-64Bit/_PKDS_TSTS06_STAND/Libraries/XMCLib/inc\xmc_gpio.h **** /**
  65:C:/Workspaces/DAVE-4.4.2-64Bit/_PKDS_TSTS06_STAND/Libraries/XMCLib/inc\xmc_gpio.h ****  * @addtogroup XMClib XMC Peripheral Library
  66:C:/Workspaces/DAVE-4.4.2-64Bit/_PKDS_TSTS06_STAND/Libraries/XMCLib/inc\xmc_gpio.h ****  * @{
  67:C:/Workspaces/DAVE-4.4.2-64Bit/_PKDS_TSTS06_STAND/Libraries/XMCLib/inc\xmc_gpio.h ****  */
  68:C:/Workspaces/DAVE-4.4.2-64Bit/_PKDS_TSTS06_STAND/Libraries/XMCLib/inc\xmc_gpio.h **** 
  69:C:/Workspaces/DAVE-4.4.2-64Bit/_PKDS_TSTS06_STAND/Libraries/XMCLib/inc\xmc_gpio.h **** /**
  70:C:/Workspaces/DAVE-4.4.2-64Bit/_PKDS_TSTS06_STAND/Libraries/XMCLib/inc\xmc_gpio.h ****  * @addtogroup GPIO
  71:C:/Workspaces/DAVE-4.4.2-64Bit/_PKDS_TSTS06_STAND/Libraries/XMCLib/inc\xmc_gpio.h ****  * @brief General Purpose Input Output (GPIO) driver for the XMC microcontroller family.
  72:C:/Workspaces/DAVE-4.4.2-64Bit/_PKDS_TSTS06_STAND/Libraries/XMCLib/inc\xmc_gpio.h ****  *
  73:C:/Workspaces/DAVE-4.4.2-64Bit/_PKDS_TSTS06_STAND/Libraries/XMCLib/inc\xmc_gpio.h ****  * GPIO driver provide a generic and very flexible software interface for all standard digital I/O 
  74:C:/Workspaces/DAVE-4.4.2-64Bit/_PKDS_TSTS06_STAND/Libraries/XMCLib/inc\xmc_gpio.h ****  * Each port slice has individual interfaces for the operation as General Purpose I/O and it furthe
  75:C:/Workspaces/DAVE-4.4.2-64Bit/_PKDS_TSTS06_STAND/Libraries/XMCLib/inc\xmc_gpio.h ****  * connectivity to the on-chip periphery and the control for the pad characteristics.
  76:C:/Workspaces/DAVE-4.4.2-64Bit/_PKDS_TSTS06_STAND/Libraries/XMCLib/inc\xmc_gpio.h ****  *
  77:C:/Workspaces/DAVE-4.4.2-64Bit/_PKDS_TSTS06_STAND/Libraries/XMCLib/inc\xmc_gpio.h ****  * The driver is divided into Input and Output mode.
  78:C:/Workspaces/DAVE-4.4.2-64Bit/_PKDS_TSTS06_STAND/Libraries/XMCLib/inc\xmc_gpio.h ****  *
  79:C:/Workspaces/DAVE-4.4.2-64Bit/_PKDS_TSTS06_STAND/Libraries/XMCLib/inc\xmc_gpio.h ****  * Input mode features:
  80:C:/Workspaces/DAVE-4.4.2-64Bit/_PKDS_TSTS06_STAND/Libraries/XMCLib/inc\xmc_gpio.h ****  * -# Configuration structure XMC_GPIO_CONFIG_t and initialization function XMC_GPIO_Init()
  81:C:/Workspaces/DAVE-4.4.2-64Bit/_PKDS_TSTS06_STAND/Libraries/XMCLib/inc\xmc_gpio.h ****  * -# Allows the selection of weak pull-up or pull-down device. Configuration structure XMC_GPIO_MO
  82:C:/Workspaces/DAVE-4.4.2-64Bit/_PKDS_TSTS06_STAND/Libraries/XMCLib/inc\xmc_gpio.h ****  * \if XMC1
  83:C:/Workspaces/DAVE-4.4.2-64Bit/_PKDS_TSTS06_STAND/Libraries/XMCLib/inc\xmc_gpio.h ****  * -# Allows the selection of input hysteresis. XMC_GPIO_SetInputHysteresis()
  84:C:/Workspaces/DAVE-4.4.2-64Bit/_PKDS_TSTS06_STAND/Libraries/XMCLib/inc\xmc_gpio.h ****  * \endif
  85:C:/Workspaces/DAVE-4.4.2-64Bit/_PKDS_TSTS06_STAND/Libraries/XMCLib/inc\xmc_gpio.h ****  *
  86:C:/Workspaces/DAVE-4.4.2-64Bit/_PKDS_TSTS06_STAND/Libraries/XMCLib/inc\xmc_gpio.h ****  *
  87:C:/Workspaces/DAVE-4.4.2-64Bit/_PKDS_TSTS06_STAND/Libraries/XMCLib/inc\xmc_gpio.h ****  * Output mode features:
  88:C:/Workspaces/DAVE-4.4.2-64Bit/_PKDS_TSTS06_STAND/Libraries/XMCLib/inc\xmc_gpio.h ****  * -# Allows the selection of push pull/open drain and Alternate output. Configuration structure XM
  89:C:/Workspaces/DAVE-4.4.2-64Bit/_PKDS_TSTS06_STAND/Libraries/XMCLib/inc\xmc_gpio.h ****  * \if XMC4
  90:C:/Workspaces/DAVE-4.4.2-64Bit/_PKDS_TSTS06_STAND/Libraries/XMCLib/inc\xmc_gpio.h ****  * -# Allows the selection of pad driver strength. Configuration structure XMC_GPIO_OUTPUT_STRENGTH
  91:C:/Workspaces/DAVE-4.4.2-64Bit/_PKDS_TSTS06_STAND/Libraries/XMCLib/inc\xmc_gpio.h ****  * \endif
  92:C:/Workspaces/DAVE-4.4.2-64Bit/_PKDS_TSTS06_STAND/Libraries/XMCLib/inc\xmc_gpio.h ****  *
  93:C:/Workspaces/DAVE-4.4.2-64Bit/_PKDS_TSTS06_STAND/Libraries/XMCLib/inc\xmc_gpio.h ****  * -# Allows the selection of initial output level. Configuration structure XMC_GPIO_OUTPUT_LEVEL_t
  94:C:/Workspaces/DAVE-4.4.2-64Bit/_PKDS_TSTS06_STAND/Libraries/XMCLib/inc\xmc_gpio.h ****  *
  95:C:/Workspaces/DAVE-4.4.2-64Bit/_PKDS_TSTS06_STAND/Libraries/XMCLib/inc\xmc_gpio.h ****  *@{
  96:C:/Workspaces/DAVE-4.4.2-64Bit/_PKDS_TSTS06_STAND/Libraries/XMCLib/inc\xmc_gpio.h ****  */
  97:C:/Workspaces/DAVE-4.4.2-64Bit/_PKDS_TSTS06_STAND/Libraries/XMCLib/inc\xmc_gpio.h **** 
  98:C:/Workspaces/DAVE-4.4.2-64Bit/_PKDS_TSTS06_STAND/Libraries/XMCLib/inc\xmc_gpio.h **** /**************************************************************************************************
  99:C:/Workspaces/DAVE-4.4.2-64Bit/_PKDS_TSTS06_STAND/Libraries/XMCLib/inc\xmc_gpio.h ****  * MACROS
 100:C:/Workspaces/DAVE-4.4.2-64Bit/_PKDS_TSTS06_STAND/Libraries/XMCLib/inc\xmc_gpio.h ****  **************************************************************************************************
 101:C:/Workspaces/DAVE-4.4.2-64Bit/_PKDS_TSTS06_STAND/Libraries/XMCLib/inc\xmc_gpio.h **** 
 102:C:/Workspaces/DAVE-4.4.2-64Bit/_PKDS_TSTS06_STAND/Libraries/XMCLib/inc\xmc_gpio.h **** #define PORT_IOCR_PC_Pos PORT0_IOCR0_PC0_Pos
 103:C:/Workspaces/DAVE-4.4.2-64Bit/_PKDS_TSTS06_STAND/Libraries/XMCLib/inc\xmc_gpio.h **** #define PORT_IOCR_PC_Msk PORT0_IOCR0_PC0_Msk
 104:C:/Workspaces/DAVE-4.4.2-64Bit/_PKDS_TSTS06_STAND/Libraries/XMCLib/inc\xmc_gpio.h **** 
 105:C:/Workspaces/DAVE-4.4.2-64Bit/_PKDS_TSTS06_STAND/Libraries/XMCLib/inc\xmc_gpio.h **** #define PORT_IOCR_PC_Size 				(8U)
 106:C:/Workspaces/DAVE-4.4.2-64Bit/_PKDS_TSTS06_STAND/Libraries/XMCLib/inc\xmc_gpio.h **** 
 107:C:/Workspaces/DAVE-4.4.2-64Bit/_PKDS_TSTS06_STAND/Libraries/XMCLib/inc\xmc_gpio.h **** 
 108:C:/Workspaces/DAVE-4.4.2-64Bit/_PKDS_TSTS06_STAND/Libraries/XMCLib/inc\xmc_gpio.h **** #define XMC_GPIO_CHECK_OUTPUT_LEVEL(level) ((level == XMC_GPIO_OUTPUT_LEVEL_LOW) || \
 109:C:/Workspaces/DAVE-4.4.2-64Bit/_PKDS_TSTS06_STAND/Libraries/XMCLib/inc\xmc_gpio.h ****                                             (level == XMC_GPIO_OUTPUT_LEVEL_HIGH))
 110:C:/Workspaces/DAVE-4.4.2-64Bit/_PKDS_TSTS06_STAND/Libraries/XMCLib/inc\xmc_gpio.h **** 
 111:C:/Workspaces/DAVE-4.4.2-64Bit/_PKDS_TSTS06_STAND/Libraries/XMCLib/inc\xmc_gpio.h **** #define XMC_GPIO_CHECK_HWCTRL(hwctrl) ((hwctrl == XMC_GPIO_HWCTRL_DISABLED) || \
 112:C:/Workspaces/DAVE-4.4.2-64Bit/_PKDS_TSTS06_STAND/Libraries/XMCLib/inc\xmc_gpio.h ****                                        (hwctrl == XMC_GPIO_HWCTRL_PERIPHERAL1) || \
 113:C:/Workspaces/DAVE-4.4.2-64Bit/_PKDS_TSTS06_STAND/Libraries/XMCLib/inc\xmc_gpio.h ****                                        (hwctrl == XMC_GPIO_HWCTRL_PERIPHERAL2))
 114:C:/Workspaces/DAVE-4.4.2-64Bit/_PKDS_TSTS06_STAND/Libraries/XMCLib/inc\xmc_gpio.h **** 
 115:C:/Workspaces/DAVE-4.4.2-64Bit/_PKDS_TSTS06_STAND/Libraries/XMCLib/inc\xmc_gpio.h **** /**************************************************************************************************
 116:C:/Workspaces/DAVE-4.4.2-64Bit/_PKDS_TSTS06_STAND/Libraries/XMCLib/inc\xmc_gpio.h ****  * ENUMS
 117:C:/Workspaces/DAVE-4.4.2-64Bit/_PKDS_TSTS06_STAND/Libraries/XMCLib/inc\xmc_gpio.h ****  **************************************************************************************************
 118:C:/Workspaces/DAVE-4.4.2-64Bit/_PKDS_TSTS06_STAND/Libraries/XMCLib/inc\xmc_gpio.h **** 
 119:C:/Workspaces/DAVE-4.4.2-64Bit/_PKDS_TSTS06_STAND/Libraries/XMCLib/inc\xmc_gpio.h **** 
 120:C:/Workspaces/DAVE-4.4.2-64Bit/_PKDS_TSTS06_STAND/Libraries/XMCLib/inc\xmc_gpio.h **** /**
 121:C:/Workspaces/DAVE-4.4.2-64Bit/_PKDS_TSTS06_STAND/Libraries/XMCLib/inc\xmc_gpio.h ****  * Defines output level of a pin. Use type \a XMC_GPIO_OUTPUT_LEVEL_t for this enum.
 122:C:/Workspaces/DAVE-4.4.2-64Bit/_PKDS_TSTS06_STAND/Libraries/XMCLib/inc\xmc_gpio.h ****  */
 123:C:/Workspaces/DAVE-4.4.2-64Bit/_PKDS_TSTS06_STAND/Libraries/XMCLib/inc\xmc_gpio.h **** typedef enum XMC_GPIO_OUTPUT_LEVEL
 124:C:/Workspaces/DAVE-4.4.2-64Bit/_PKDS_TSTS06_STAND/Libraries/XMCLib/inc\xmc_gpio.h **** {
 125:C:/Workspaces/DAVE-4.4.2-64Bit/_PKDS_TSTS06_STAND/Libraries/XMCLib/inc\xmc_gpio.h ****   XMC_GPIO_OUTPUT_LEVEL_LOW  = 0x10000U, /**<  Reset bit */
 126:C:/Workspaces/DAVE-4.4.2-64Bit/_PKDS_TSTS06_STAND/Libraries/XMCLib/inc\xmc_gpio.h ****   XMC_GPIO_OUTPUT_LEVEL_HIGH = 0x1U, 	/**< Set bit  */
 127:C:/Workspaces/DAVE-4.4.2-64Bit/_PKDS_TSTS06_STAND/Libraries/XMCLib/inc\xmc_gpio.h **** } XMC_GPIO_OUTPUT_LEVEL_t;
 128:C:/Workspaces/DAVE-4.4.2-64Bit/_PKDS_TSTS06_STAND/Libraries/XMCLib/inc\xmc_gpio.h **** 
 129:C:/Workspaces/DAVE-4.4.2-64Bit/_PKDS_TSTS06_STAND/Libraries/XMCLib/inc\xmc_gpio.h **** /**
 130:C:/Workspaces/DAVE-4.4.2-64Bit/_PKDS_TSTS06_STAND/Libraries/XMCLib/inc\xmc_gpio.h ****  * Defines direct hardware control characteristics of the pin . Use type \a XMC_GPIO_HWCTRL_t for t
 131:C:/Workspaces/DAVE-4.4.2-64Bit/_PKDS_TSTS06_STAND/Libraries/XMCLib/inc\xmc_gpio.h ****  */
 132:C:/Workspaces/DAVE-4.4.2-64Bit/_PKDS_TSTS06_STAND/Libraries/XMCLib/inc\xmc_gpio.h **** typedef enum XMC_GPIO_HWCTRL
 133:C:/Workspaces/DAVE-4.4.2-64Bit/_PKDS_TSTS06_STAND/Libraries/XMCLib/inc\xmc_gpio.h **** {
 134:C:/Workspaces/DAVE-4.4.2-64Bit/_PKDS_TSTS06_STAND/Libraries/XMCLib/inc\xmc_gpio.h ****   XMC_GPIO_HWCTRL_DISABLED     = 0x0U, /**<  Software control only */
 135:C:/Workspaces/DAVE-4.4.2-64Bit/_PKDS_TSTS06_STAND/Libraries/XMCLib/inc\xmc_gpio.h ****   XMC_GPIO_HWCTRL_PERIPHERAL1  = 0x1U, /**<  HWI0/HWO0 control path can override the software confi
 136:C:/Workspaces/DAVE-4.4.2-64Bit/_PKDS_TSTS06_STAND/Libraries/XMCLib/inc\xmc_gpio.h ****   XMC_GPIO_HWCTRL_PERIPHERAL2  = 0x2U  /**<  HWI1/HWO1 control path can override the software confi
 137:C:/Workspaces/DAVE-4.4.2-64Bit/_PKDS_TSTS06_STAND/Libraries/XMCLib/inc\xmc_gpio.h **** } XMC_GPIO_HWCTRL_t;
 138:C:/Workspaces/DAVE-4.4.2-64Bit/_PKDS_TSTS06_STAND/Libraries/XMCLib/inc\xmc_gpio.h **** 
 139:C:/Workspaces/DAVE-4.4.2-64Bit/_PKDS_TSTS06_STAND/Libraries/XMCLib/inc\xmc_gpio.h **** /**************************************************************************************************
 140:C:/Workspaces/DAVE-4.4.2-64Bit/_PKDS_TSTS06_STAND/Libraries/XMCLib/inc\xmc_gpio.h ****  * DEVICE FAMILY EXTENSIONS
 141:C:/Workspaces/DAVE-4.4.2-64Bit/_PKDS_TSTS06_STAND/Libraries/XMCLib/inc\xmc_gpio.h ****  **************************************************************************************************
 142:C:/Workspaces/DAVE-4.4.2-64Bit/_PKDS_TSTS06_STAND/Libraries/XMCLib/inc\xmc_gpio.h **** 
 143:C:/Workspaces/DAVE-4.4.2-64Bit/_PKDS_TSTS06_STAND/Libraries/XMCLib/inc\xmc_gpio.h **** #if UC_FAMILY == XMC1
 144:C:/Workspaces/DAVE-4.4.2-64Bit/_PKDS_TSTS06_STAND/Libraries/XMCLib/inc\xmc_gpio.h **** #include "xmc1_gpio.h"
 145:C:/Workspaces/DAVE-4.4.2-64Bit/_PKDS_TSTS06_STAND/Libraries/XMCLib/inc\xmc_gpio.h **** #elif UC_FAMILY == XMC4
 146:C:/Workspaces/DAVE-4.4.2-64Bit/_PKDS_TSTS06_STAND/Libraries/XMCLib/inc\xmc_gpio.h **** #include "xmc4_gpio.h"
 147:C:/Workspaces/DAVE-4.4.2-64Bit/_PKDS_TSTS06_STAND/Libraries/XMCLib/inc\xmc_gpio.h **** #else
 148:C:/Workspaces/DAVE-4.4.2-64Bit/_PKDS_TSTS06_STAND/Libraries/XMCLib/inc\xmc_gpio.h **** #error "xmc_gpio.h: family device not supported"
 149:C:/Workspaces/DAVE-4.4.2-64Bit/_PKDS_TSTS06_STAND/Libraries/XMCLib/inc\xmc_gpio.h **** #endif
 150:C:/Workspaces/DAVE-4.4.2-64Bit/_PKDS_TSTS06_STAND/Libraries/XMCLib/inc\xmc_gpio.h **** 
 151:C:/Workspaces/DAVE-4.4.2-64Bit/_PKDS_TSTS06_STAND/Libraries/XMCLib/inc\xmc_gpio.h **** /**************************************************************************************************
 152:C:/Workspaces/DAVE-4.4.2-64Bit/_PKDS_TSTS06_STAND/Libraries/XMCLib/inc\xmc_gpio.h ****  * API PROTOTYPES
 153:C:/Workspaces/DAVE-4.4.2-64Bit/_PKDS_TSTS06_STAND/Libraries/XMCLib/inc\xmc_gpio.h ****  **************************************************************************************************
 154:C:/Workspaces/DAVE-4.4.2-64Bit/_PKDS_TSTS06_STAND/Libraries/XMCLib/inc\xmc_gpio.h **** 
 155:C:/Workspaces/DAVE-4.4.2-64Bit/_PKDS_TSTS06_STAND/Libraries/XMCLib/inc\xmc_gpio.h **** #ifdef __cplusplus
 156:C:/Workspaces/DAVE-4.4.2-64Bit/_PKDS_TSTS06_STAND/Libraries/XMCLib/inc\xmc_gpio.h **** extern "C" {
 157:C:/Workspaces/DAVE-4.4.2-64Bit/_PKDS_TSTS06_STAND/Libraries/XMCLib/inc\xmc_gpio.h **** #endif
 158:C:/Workspaces/DAVE-4.4.2-64Bit/_PKDS_TSTS06_STAND/Libraries/XMCLib/inc\xmc_gpio.h **** 
 159:C:/Workspaces/DAVE-4.4.2-64Bit/_PKDS_TSTS06_STAND/Libraries/XMCLib/inc\xmc_gpio.h **** 
 160:C:/Workspaces/DAVE-4.4.2-64Bit/_PKDS_TSTS06_STAND/Libraries/XMCLib/inc\xmc_gpio.h **** /**
 161:C:/Workspaces/DAVE-4.4.2-64Bit/_PKDS_TSTS06_STAND/Libraries/XMCLib/inc\xmc_gpio.h ****  * @param  port	  Constant pointer pointing to GPIO port, to access port registers like Pn_OUT,Pn_O
 162:C:/Workspaces/DAVE-4.4.2-64Bit/_PKDS_TSTS06_STAND/Libraries/XMCLib/inc\xmc_gpio.h ****  * @param  pin	  Port pin number.
 163:C:/Workspaces/DAVE-4.4.2-64Bit/_PKDS_TSTS06_STAND/Libraries/XMCLib/inc\xmc_gpio.h ****  * @param  config GPIO configuration data structure. Refer data structure @ref XMC_GPIO_CONFIG_t fo
 164:C:/Workspaces/DAVE-4.4.2-64Bit/_PKDS_TSTS06_STAND/Libraries/XMCLib/inc\xmc_gpio.h ****  *
 165:C:/Workspaces/DAVE-4.4.2-64Bit/_PKDS_TSTS06_STAND/Libraries/XMCLib/inc\xmc_gpio.h ****  * @return None
 166:C:/Workspaces/DAVE-4.4.2-64Bit/_PKDS_TSTS06_STAND/Libraries/XMCLib/inc\xmc_gpio.h ****  *
 167:C:/Workspaces/DAVE-4.4.2-64Bit/_PKDS_TSTS06_STAND/Libraries/XMCLib/inc\xmc_gpio.h ****  * \par<b>Description:</b><br>
 168:C:/Workspaces/DAVE-4.4.2-64Bit/_PKDS_TSTS06_STAND/Libraries/XMCLib/inc\xmc_gpio.h ****  * \if XMC1
 169:C:/Workspaces/DAVE-4.4.2-64Bit/_PKDS_TSTS06_STAND/Libraries/XMCLib/inc\xmc_gpio.h ****  * Initializes input / output mode settings like, pull up / pull down devices,hysteresis, push pull
 170:C:/Workspaces/DAVE-4.4.2-64Bit/_PKDS_TSTS06_STAND/Libraries/XMCLib/inc\xmc_gpio.h ****  * Also configures alternate function outputs and clears hardware port control for a selected \a po
 171:C:/Workspaces/DAVE-4.4.2-64Bit/_PKDS_TSTS06_STAND/Libraries/XMCLib/inc\xmc_gpio.h ****  * \a config provides selected I/O settings. It configures hardware registers Pn_IOCR,Pn_OUT, Pn_OM
 172:C:/Workspaces/DAVE-4.4.2-64Bit/_PKDS_TSTS06_STAND/Libraries/XMCLib/inc\xmc_gpio.h ****  * \endif
 173:C:/Workspaces/DAVE-4.4.2-64Bit/_PKDS_TSTS06_STAND/Libraries/XMCLib/inc\xmc_gpio.h ****  * \if XMC4
 174:C:/Workspaces/DAVE-4.4.2-64Bit/_PKDS_TSTS06_STAND/Libraries/XMCLib/inc\xmc_gpio.h ****  * Initializes input / output mode settings like, pull up / pull down devices,push pull /open drain
 175:C:/Workspaces/DAVE-4.4.2-64Bit/_PKDS_TSTS06_STAND/Libraries/XMCLib/inc\xmc_gpio.h ****  * Also configures alternate function outputs and clears hardware port control for selected \a port
 176:C:/Workspaces/DAVE-4.4.2-64Bit/_PKDS_TSTS06_STAND/Libraries/XMCLib/inc\xmc_gpio.h ****  * It configures hardware registers Pn_IOCR,Pn_OUT,Pn_OMR,Pn_PDISC and Pn_PDR.\n
 177:C:/Workspaces/DAVE-4.4.2-64Bit/_PKDS_TSTS06_STAND/Libraries/XMCLib/inc\xmc_gpio.h ****  * \endif
 178:C:/Workspaces/DAVE-4.4.2-64Bit/_PKDS_TSTS06_STAND/Libraries/XMCLib/inc\xmc_gpio.h ****  *
 179:C:/Workspaces/DAVE-4.4.2-64Bit/_PKDS_TSTS06_STAND/Libraries/XMCLib/inc\xmc_gpio.h ****  * \par<b>Related APIs:</b><BR>
 180:C:/Workspaces/DAVE-4.4.2-64Bit/_PKDS_TSTS06_STAND/Libraries/XMCLib/inc\xmc_gpio.h ****  *  None
 181:C:/Workspaces/DAVE-4.4.2-64Bit/_PKDS_TSTS06_STAND/Libraries/XMCLib/inc\xmc_gpio.h ****  *
 182:C:/Workspaces/DAVE-4.4.2-64Bit/_PKDS_TSTS06_STAND/Libraries/XMCLib/inc\xmc_gpio.h ****  * \par<b>Note:</b><br>
 183:C:/Workspaces/DAVE-4.4.2-64Bit/_PKDS_TSTS06_STAND/Libraries/XMCLib/inc\xmc_gpio.h ****  * This API is called in definition of DAVE_init by code generation and therefore should not be exp
 184:C:/Workspaces/DAVE-4.4.2-64Bit/_PKDS_TSTS06_STAND/Libraries/XMCLib/inc\xmc_gpio.h ****  * for the normal operation. Use other APIs only after DAVE_init is called successfully (returns DA
 185:C:/Workspaces/DAVE-4.4.2-64Bit/_PKDS_TSTS06_STAND/Libraries/XMCLib/inc\xmc_gpio.h ****  *
 186:C:/Workspaces/DAVE-4.4.2-64Bit/_PKDS_TSTS06_STAND/Libraries/XMCLib/inc\xmc_gpio.h ****  *
 187:C:/Workspaces/DAVE-4.4.2-64Bit/_PKDS_TSTS06_STAND/Libraries/XMCLib/inc\xmc_gpio.h ****  */
 188:C:/Workspaces/DAVE-4.4.2-64Bit/_PKDS_TSTS06_STAND/Libraries/XMCLib/inc\xmc_gpio.h **** 
 189:C:/Workspaces/DAVE-4.4.2-64Bit/_PKDS_TSTS06_STAND/Libraries/XMCLib/inc\xmc_gpio.h **** 
 190:C:/Workspaces/DAVE-4.4.2-64Bit/_PKDS_TSTS06_STAND/Libraries/XMCLib/inc\xmc_gpio.h **** void XMC_GPIO_Init(XMC_GPIO_PORT_t *const port, const uint8_t pin, const XMC_GPIO_CONFIG_t *const c
 191:C:/Workspaces/DAVE-4.4.2-64Bit/_PKDS_TSTS06_STAND/Libraries/XMCLib/inc\xmc_gpio.h **** 
 192:C:/Workspaces/DAVE-4.4.2-64Bit/_PKDS_TSTS06_STAND/Libraries/XMCLib/inc\xmc_gpio.h **** /**
 193:C:/Workspaces/DAVE-4.4.2-64Bit/_PKDS_TSTS06_STAND/Libraries/XMCLib/inc\xmc_gpio.h ****  *
 194:C:/Workspaces/DAVE-4.4.2-64Bit/_PKDS_TSTS06_STAND/Libraries/XMCLib/inc\xmc_gpio.h ****  * @param  port	Constant pointer pointing to GPIO port, to access hardware register Pn_IOCR.
 195:C:/Workspaces/DAVE-4.4.2-64Bit/_PKDS_TSTS06_STAND/Libraries/XMCLib/inc\xmc_gpio.h ****  * @param  pin	Port pin number.
 196:C:/Workspaces/DAVE-4.4.2-64Bit/_PKDS_TSTS06_STAND/Libraries/XMCLib/inc\xmc_gpio.h ****  * @param  mode input / output functionality selection. Refer @ref XMC_GPIO_MODE_t for valid values
 197:C:/Workspaces/DAVE-4.4.2-64Bit/_PKDS_TSTS06_STAND/Libraries/XMCLib/inc\xmc_gpio.h ****  *
 198:C:/Workspaces/DAVE-4.4.2-64Bit/_PKDS_TSTS06_STAND/Libraries/XMCLib/inc\xmc_gpio.h ****  * @return None
 199:C:/Workspaces/DAVE-4.4.2-64Bit/_PKDS_TSTS06_STAND/Libraries/XMCLib/inc\xmc_gpio.h ****  *
 200:C:/Workspaces/DAVE-4.4.2-64Bit/_PKDS_TSTS06_STAND/Libraries/XMCLib/inc\xmc_gpio.h ****  * \par<b>Description:</b><br>
 201:C:/Workspaces/DAVE-4.4.2-64Bit/_PKDS_TSTS06_STAND/Libraries/XMCLib/inc\xmc_gpio.h ****  * Sets digital input and output driver functionality and characteristics of a GPIO port pin. It co
 202:C:/Workspaces/DAVE-4.4.2-64Bit/_PKDS_TSTS06_STAND/Libraries/XMCLib/inc\xmc_gpio.h ****  * registers Pn_IOCR. \a mode is initially configured during initialization in XMC_GPIO_Init(). Cal
 203:C:/Workspaces/DAVE-4.4.2-64Bit/_PKDS_TSTS06_STAND/Libraries/XMCLib/inc\xmc_gpio.h ****  * the port direction functionality as needed later in the program.
 204:C:/Workspaces/DAVE-4.4.2-64Bit/_PKDS_TSTS06_STAND/Libraries/XMCLib/inc\xmc_gpio.h ****  *
 205:C:/Workspaces/DAVE-4.4.2-64Bit/_PKDS_TSTS06_STAND/Libraries/XMCLib/inc\xmc_gpio.h ****  * \par<b>Related APIs:</b><BR>
 206:C:/Workspaces/DAVE-4.4.2-64Bit/_PKDS_TSTS06_STAND/Libraries/XMCLib/inc\xmc_gpio.h ****  *  None
 207:C:/Workspaces/DAVE-4.4.2-64Bit/_PKDS_TSTS06_STAND/Libraries/XMCLib/inc\xmc_gpio.h ****  *
 208:C:/Workspaces/DAVE-4.4.2-64Bit/_PKDS_TSTS06_STAND/Libraries/XMCLib/inc\xmc_gpio.h ****  */
 209:C:/Workspaces/DAVE-4.4.2-64Bit/_PKDS_TSTS06_STAND/Libraries/XMCLib/inc\xmc_gpio.h **** 
 210:C:/Workspaces/DAVE-4.4.2-64Bit/_PKDS_TSTS06_STAND/Libraries/XMCLib/inc\xmc_gpio.h **** void XMC_GPIO_SetMode(XMC_GPIO_PORT_t *const port, const uint8_t pin, const XMC_GPIO_MODE_t mode);
 211:C:/Workspaces/DAVE-4.4.2-64Bit/_PKDS_TSTS06_STAND/Libraries/XMCLib/inc\xmc_gpio.h **** 
 212:C:/Workspaces/DAVE-4.4.2-64Bit/_PKDS_TSTS06_STAND/Libraries/XMCLib/inc\xmc_gpio.h **** 
 213:C:/Workspaces/DAVE-4.4.2-64Bit/_PKDS_TSTS06_STAND/Libraries/XMCLib/inc\xmc_gpio.h **** /**
 214:C:/Workspaces/DAVE-4.4.2-64Bit/_PKDS_TSTS06_STAND/Libraries/XMCLib/inc\xmc_gpio.h ****  *
 215:C:/Workspaces/DAVE-4.4.2-64Bit/_PKDS_TSTS06_STAND/Libraries/XMCLib/inc\xmc_gpio.h ****  * @param  port	 Constant pointer pointing to GPIO port, to access hardware register Pn_OMR.
 216:C:/Workspaces/DAVE-4.4.2-64Bit/_PKDS_TSTS06_STAND/Libraries/XMCLib/inc\xmc_gpio.h ****  * @param  pin	 Port pin number.
 217:C:/Workspaces/DAVE-4.4.2-64Bit/_PKDS_TSTS06_STAND/Libraries/XMCLib/inc\xmc_gpio.h ****  * @param  level output level selection. Refer @ref XMC_GPIO_OUTPUT_LEVEL_t for valid values.
 218:C:/Workspaces/DAVE-4.4.2-64Bit/_PKDS_TSTS06_STAND/Libraries/XMCLib/inc\xmc_gpio.h ****  *
 219:C:/Workspaces/DAVE-4.4.2-64Bit/_PKDS_TSTS06_STAND/Libraries/XMCLib/inc\xmc_gpio.h ****  * @return None
 220:C:/Workspaces/DAVE-4.4.2-64Bit/_PKDS_TSTS06_STAND/Libraries/XMCLib/inc\xmc_gpio.h ****  *
 221:C:/Workspaces/DAVE-4.4.2-64Bit/_PKDS_TSTS06_STAND/Libraries/XMCLib/inc\xmc_gpio.h ****  * \par<b>Description:</b><br>
 222:C:/Workspaces/DAVE-4.4.2-64Bit/_PKDS_TSTS06_STAND/Libraries/XMCLib/inc\xmc_gpio.h ****  * Set port pin output level to high or low.It configures hardware registers Pn_OMR.\a level is ini
 223:C:/Workspaces/DAVE-4.4.2-64Bit/_PKDS_TSTS06_STAND/Libraries/XMCLib/inc\xmc_gpio.h ****  * configured during initialization in XMC_GPIO_Init(). Call this API to alter output level as need
 224:C:/Workspaces/DAVE-4.4.2-64Bit/_PKDS_TSTS06_STAND/Libraries/XMCLib/inc\xmc_gpio.h ****  *
 225:C:/Workspaces/DAVE-4.4.2-64Bit/_PKDS_TSTS06_STAND/Libraries/XMCLib/inc\xmc_gpio.h ****  * \par<b>Related APIs:</b><BR>
 226:C:/Workspaces/DAVE-4.4.2-64Bit/_PKDS_TSTS06_STAND/Libraries/XMCLib/inc\xmc_gpio.h ****  *  XMC_GPIO_SetOutputHigh(), XMC_GPIO_SetOutputLow().
 227:C:/Workspaces/DAVE-4.4.2-64Bit/_PKDS_TSTS06_STAND/Libraries/XMCLib/inc\xmc_gpio.h ****  *
 228:C:/Workspaces/DAVE-4.4.2-64Bit/_PKDS_TSTS06_STAND/Libraries/XMCLib/inc\xmc_gpio.h ****  * \par<b>Note:</b><br>
 229:C:/Workspaces/DAVE-4.4.2-64Bit/_PKDS_TSTS06_STAND/Libraries/XMCLib/inc\xmc_gpio.h ****  * Prior to this api, user has to configure port pin to output mode using XMC_GPIO_SetMode().
 230:C:/Workspaces/DAVE-4.4.2-64Bit/_PKDS_TSTS06_STAND/Libraries/XMCLib/inc\xmc_gpio.h ****  *
 231:C:/Workspaces/DAVE-4.4.2-64Bit/_PKDS_TSTS06_STAND/Libraries/XMCLib/inc\xmc_gpio.h ****  */
 232:C:/Workspaces/DAVE-4.4.2-64Bit/_PKDS_TSTS06_STAND/Libraries/XMCLib/inc\xmc_gpio.h **** 
 233:C:/Workspaces/DAVE-4.4.2-64Bit/_PKDS_TSTS06_STAND/Libraries/XMCLib/inc\xmc_gpio.h **** 
 234:C:/Workspaces/DAVE-4.4.2-64Bit/_PKDS_TSTS06_STAND/Libraries/XMCLib/inc\xmc_gpio.h **** __STATIC_INLINE void XMC_GPIO_SetOutputLevel(XMC_GPIO_PORT_t *const port, const uint8_t pin, const 
 235:C:/Workspaces/DAVE-4.4.2-64Bit/_PKDS_TSTS06_STAND/Libraries/XMCLib/inc\xmc_gpio.h **** {
 236:C:/Workspaces/DAVE-4.4.2-64Bit/_PKDS_TSTS06_STAND/Libraries/XMCLib/inc\xmc_gpio.h ****   XMC_ASSERT("XMC_GPIO_SetOutputLevel: Invalid port", XMC_GPIO_CHECK_OUTPUT_PORT(port));
 237:C:/Workspaces/DAVE-4.4.2-64Bit/_PKDS_TSTS06_STAND/Libraries/XMCLib/inc\xmc_gpio.h ****   XMC_ASSERT("XMC_GPIO_SetOutputLevel: Invalid output level", XMC_GPIO_CHECK_OUTPUT_LEVEL(level));
 238:C:/Workspaces/DAVE-4.4.2-64Bit/_PKDS_TSTS06_STAND/Libraries/XMCLib/inc\xmc_gpio.h **** 
 239:C:/Workspaces/DAVE-4.4.2-64Bit/_PKDS_TSTS06_STAND/Libraries/XMCLib/inc\xmc_gpio.h ****   port->OMR = (uint32_t)level << pin;
 240:C:/Workspaces/DAVE-4.4.2-64Bit/_PKDS_TSTS06_STAND/Libraries/XMCLib/inc\xmc_gpio.h **** }
 241:C:/Workspaces/DAVE-4.4.2-64Bit/_PKDS_TSTS06_STAND/Libraries/XMCLib/inc\xmc_gpio.h **** 
 242:C:/Workspaces/DAVE-4.4.2-64Bit/_PKDS_TSTS06_STAND/Libraries/XMCLib/inc\xmc_gpio.h **** 
 243:C:/Workspaces/DAVE-4.4.2-64Bit/_PKDS_TSTS06_STAND/Libraries/XMCLib/inc\xmc_gpio.h **** /**
 244:C:/Workspaces/DAVE-4.4.2-64Bit/_PKDS_TSTS06_STAND/Libraries/XMCLib/inc\xmc_gpio.h ****  * @param  port constant pointer pointing to GPIO port, to access hardware register Pn_OMR.
 245:C:/Workspaces/DAVE-4.4.2-64Bit/_PKDS_TSTS06_STAND/Libraries/XMCLib/inc\xmc_gpio.h ****  * @param  pin	Port pin number.
 246:C:/Workspaces/DAVE-4.4.2-64Bit/_PKDS_TSTS06_STAND/Libraries/XMCLib/inc\xmc_gpio.h ****  *
 247:C:/Workspaces/DAVE-4.4.2-64Bit/_PKDS_TSTS06_STAND/Libraries/XMCLib/inc\xmc_gpio.h ****  * @return None
 248:C:/Workspaces/DAVE-4.4.2-64Bit/_PKDS_TSTS06_STAND/Libraries/XMCLib/inc\xmc_gpio.h ****  *
 249:C:/Workspaces/DAVE-4.4.2-64Bit/_PKDS_TSTS06_STAND/Libraries/XMCLib/inc\xmc_gpio.h ****  * \par<b>Description:</b><br>
 250:C:/Workspaces/DAVE-4.4.2-64Bit/_PKDS_TSTS06_STAND/Libraries/XMCLib/inc\xmc_gpio.h ****  *  Sets port pin output to high. It configures hardware registers Pn_OMR.
 251:C:/Workspaces/DAVE-4.4.2-64Bit/_PKDS_TSTS06_STAND/Libraries/XMCLib/inc\xmc_gpio.h ****  *
 252:C:/Workspaces/DAVE-4.4.2-64Bit/_PKDS_TSTS06_STAND/Libraries/XMCLib/inc\xmc_gpio.h ****  *  \par<b>Related APIs:</b><BR>
 253:C:/Workspaces/DAVE-4.4.2-64Bit/_PKDS_TSTS06_STAND/Libraries/XMCLib/inc\xmc_gpio.h ****  *  XMC_GPIO_SetOutputLow()
 254:C:/Workspaces/DAVE-4.4.2-64Bit/_PKDS_TSTS06_STAND/Libraries/XMCLib/inc\xmc_gpio.h ****  *
 255:C:/Workspaces/DAVE-4.4.2-64Bit/_PKDS_TSTS06_STAND/Libraries/XMCLib/inc\xmc_gpio.h ****  * \par<b>Note:</b><br>
 256:C:/Workspaces/DAVE-4.4.2-64Bit/_PKDS_TSTS06_STAND/Libraries/XMCLib/inc\xmc_gpio.h ****  * Prior to this api, user has to configure port pin to output mode using XMC_GPIO_SetMode().\n
 257:C:/Workspaces/DAVE-4.4.2-64Bit/_PKDS_TSTS06_STAND/Libraries/XMCLib/inc\xmc_gpio.h ****  * Register Pn_OMR is virtual and does not contain any flip-flop. A read action delivers the value 
 258:C:/Workspaces/DAVE-4.4.2-64Bit/_PKDS_TSTS06_STAND/Libraries/XMCLib/inc\xmc_gpio.h ****  *
 259:C:/Workspaces/DAVE-4.4.2-64Bit/_PKDS_TSTS06_STAND/Libraries/XMCLib/inc\xmc_gpio.h ****  */
 260:C:/Workspaces/DAVE-4.4.2-64Bit/_PKDS_TSTS06_STAND/Libraries/XMCLib/inc\xmc_gpio.h **** 
 261:C:/Workspaces/DAVE-4.4.2-64Bit/_PKDS_TSTS06_STAND/Libraries/XMCLib/inc\xmc_gpio.h **** __STATIC_INLINE void XMC_GPIO_SetOutputHigh(XMC_GPIO_PORT_t *const port, const uint8_t pin)
 262:C:/Workspaces/DAVE-4.4.2-64Bit/_PKDS_TSTS06_STAND/Libraries/XMCLib/inc\xmc_gpio.h **** {
  27              	 .loc 1 262 1
  28              	 .cfi_startproc
  29              	 
  30              	 
  31              	 
  32 0000 80B4     	 push {r7}
  33              	.LCFI0:
  34              	 .cfi_def_cfa_offset 4
  35              	 .cfi_offset 7,-4
  36 0002 83B0     	 sub sp,sp,#12
  37              	.LCFI1:
  38              	 .cfi_def_cfa_offset 16
  39 0004 00AF     	 add r7,sp,#0
  40              	.LCFI2:
  41              	 .cfi_def_cfa_register 7
  42 0006 7860     	 str r0,[r7,#4]
  43 0008 0B46     	 mov r3,r1
  44 000a FB70     	 strb r3,[r7,#3]
 263:C:/Workspaces/DAVE-4.4.2-64Bit/_PKDS_TSTS06_STAND/Libraries/XMCLib/inc\xmc_gpio.h ****   XMC_ASSERT("XMC_GPIO_SetOutputHigh: Invalid port", XMC_GPIO_CHECK_OUTPUT_PORT(port));
 264:C:/Workspaces/DAVE-4.4.2-64Bit/_PKDS_TSTS06_STAND/Libraries/XMCLib/inc\xmc_gpio.h **** 
 265:C:/Workspaces/DAVE-4.4.2-64Bit/_PKDS_TSTS06_STAND/Libraries/XMCLib/inc\xmc_gpio.h ****   port->OMR = (uint32_t)0x1U << pin;
  45              	 .loc 1 265 30
  46 000c FB78     	 ldrb r3,[r7,#3]
  47 000e 0122     	 movs r2,#1
  48 0010 9A40     	 lsls r2,r2,r3
  49              	 .loc 1 265 13
  50 0012 7B68     	 ldr r3,[r7,#4]
  51 0014 5A60     	 str r2,[r3,#4]
 266:C:/Workspaces/DAVE-4.4.2-64Bit/_PKDS_TSTS06_STAND/Libraries/XMCLib/inc\xmc_gpio.h **** }
  52              	 .loc 1 266 1
  53 0016 00BF     	 nop
  54 0018 0C37     	 adds r7,r7,#12
  55              	.LCFI3:
  56              	 .cfi_def_cfa_offset 4
  57 001a BD46     	 mov sp,r7
  58              	.LCFI4:
  59              	 .cfi_def_cfa_register 13
  60              	 
  61 001c 5DF8047B 	 ldr r7,[sp],#4
  62              	.LCFI5:
  63              	 .cfi_restore 7
  64              	 .cfi_def_cfa_offset 0
  65 0020 7047     	 bx lr
  66              	 .cfi_endproc
  67              	.LFE135:
  69              	 .section .text.XMC_GPIO_SetOutputLow,"ax",%progbits
  70              	 .align 1
  71              	 .syntax unified
  72              	 .thumb
  73              	 .thumb_func
  74              	 .fpu fpv4-sp-d16
  76              	XMC_GPIO_SetOutputLow:
  77              	.LFB136:
 267:C:/Workspaces/DAVE-4.4.2-64Bit/_PKDS_TSTS06_STAND/Libraries/XMCLib/inc\xmc_gpio.h **** 
 268:C:/Workspaces/DAVE-4.4.2-64Bit/_PKDS_TSTS06_STAND/Libraries/XMCLib/inc\xmc_gpio.h **** /**
 269:C:/Workspaces/DAVE-4.4.2-64Bit/_PKDS_TSTS06_STAND/Libraries/XMCLib/inc\xmc_gpio.h ****  *
 270:C:/Workspaces/DAVE-4.4.2-64Bit/_PKDS_TSTS06_STAND/Libraries/XMCLib/inc\xmc_gpio.h ****  * @param  port	constant pointer pointing to GPIO port, to access hardware register Pn_OMR.
 271:C:/Workspaces/DAVE-4.4.2-64Bit/_PKDS_TSTS06_STAND/Libraries/XMCLib/inc\xmc_gpio.h ****  * @param  pin	port pin number.
 272:C:/Workspaces/DAVE-4.4.2-64Bit/_PKDS_TSTS06_STAND/Libraries/XMCLib/inc\xmc_gpio.h ****  *
 273:C:/Workspaces/DAVE-4.4.2-64Bit/_PKDS_TSTS06_STAND/Libraries/XMCLib/inc\xmc_gpio.h ****  * @return  None
 274:C:/Workspaces/DAVE-4.4.2-64Bit/_PKDS_TSTS06_STAND/Libraries/XMCLib/inc\xmc_gpio.h ****  *
 275:C:/Workspaces/DAVE-4.4.2-64Bit/_PKDS_TSTS06_STAND/Libraries/XMCLib/inc\xmc_gpio.h ****  *\par<b>Description:</b><br>
 276:C:/Workspaces/DAVE-4.4.2-64Bit/_PKDS_TSTS06_STAND/Libraries/XMCLib/inc\xmc_gpio.h ****  * Sets port pin output to low. It configures hardware registers Pn_OMR.\n
 277:C:/Workspaces/DAVE-4.4.2-64Bit/_PKDS_TSTS06_STAND/Libraries/XMCLib/inc\xmc_gpio.h ****  *
 278:C:/Workspaces/DAVE-4.4.2-64Bit/_PKDS_TSTS06_STAND/Libraries/XMCLib/inc\xmc_gpio.h ****  * \par<b>Related APIs:</b><BR>>
 279:C:/Workspaces/DAVE-4.4.2-64Bit/_PKDS_TSTS06_STAND/Libraries/XMCLib/inc\xmc_gpio.h ****  * XMC_GPIO_SetOutputHigh()
 280:C:/Workspaces/DAVE-4.4.2-64Bit/_PKDS_TSTS06_STAND/Libraries/XMCLib/inc\xmc_gpio.h ****  *
 281:C:/Workspaces/DAVE-4.4.2-64Bit/_PKDS_TSTS06_STAND/Libraries/XMCLib/inc\xmc_gpio.h ****  *\par<b>Note:</b><br>
 282:C:/Workspaces/DAVE-4.4.2-64Bit/_PKDS_TSTS06_STAND/Libraries/XMCLib/inc\xmc_gpio.h ****  * Prior to this api, user has to configure port pin to output mode using XMC_GPIO_SetMode().
 283:C:/Workspaces/DAVE-4.4.2-64Bit/_PKDS_TSTS06_STAND/Libraries/XMCLib/inc\xmc_gpio.h ****  * Register Pn_OMR is virtual and does not contain any flip-flop. A read action delivers the value 
 284:C:/Workspaces/DAVE-4.4.2-64Bit/_PKDS_TSTS06_STAND/Libraries/XMCLib/inc\xmc_gpio.h ****  *
 285:C:/Workspaces/DAVE-4.4.2-64Bit/_PKDS_TSTS06_STAND/Libraries/XMCLib/inc\xmc_gpio.h ****  */
 286:C:/Workspaces/DAVE-4.4.2-64Bit/_PKDS_TSTS06_STAND/Libraries/XMCLib/inc\xmc_gpio.h **** 
 287:C:/Workspaces/DAVE-4.4.2-64Bit/_PKDS_TSTS06_STAND/Libraries/XMCLib/inc\xmc_gpio.h **** __STATIC_INLINE void XMC_GPIO_SetOutputLow(XMC_GPIO_PORT_t *const port, const uint8_t pin)
 288:C:/Workspaces/DAVE-4.4.2-64Bit/_PKDS_TSTS06_STAND/Libraries/XMCLib/inc\xmc_gpio.h **** {
  78              	 .loc 1 288 1
  79              	 .cfi_startproc
  80              	 
  81              	 
  82              	 
  83 0000 80B4     	 push {r7}
  84              	.LCFI6:
  85              	 .cfi_def_cfa_offset 4
  86              	 .cfi_offset 7,-4
  87 0002 83B0     	 sub sp,sp,#12
  88              	.LCFI7:
  89              	 .cfi_def_cfa_offset 16
  90 0004 00AF     	 add r7,sp,#0
  91              	.LCFI8:
  92              	 .cfi_def_cfa_register 7
  93 0006 7860     	 str r0,[r7,#4]
  94 0008 0B46     	 mov r3,r1
  95 000a FB70     	 strb r3,[r7,#3]
 289:C:/Workspaces/DAVE-4.4.2-64Bit/_PKDS_TSTS06_STAND/Libraries/XMCLib/inc\xmc_gpio.h ****   XMC_ASSERT("XMC_GPIO_SetOutputLow: Invalid port", XMC_GPIO_CHECK_OUTPUT_PORT(port));
 290:C:/Workspaces/DAVE-4.4.2-64Bit/_PKDS_TSTS06_STAND/Libraries/XMCLib/inc\xmc_gpio.h **** 
 291:C:/Workspaces/DAVE-4.4.2-64Bit/_PKDS_TSTS06_STAND/Libraries/XMCLib/inc\xmc_gpio.h ****   port->OMR = 0x10000U << pin;
  96              	 .loc 1 291 24
  97 000c FB78     	 ldrb r3,[r7,#3]
  98 000e 4FF48032 	 mov r2,#65536
  99 0012 9A40     	 lsls r2,r2,r3
 100              	 .loc 1 291 13
 101 0014 7B68     	 ldr r3,[r7,#4]
 102 0016 5A60     	 str r2,[r3,#4]
 292:C:/Workspaces/DAVE-4.4.2-64Bit/_PKDS_TSTS06_STAND/Libraries/XMCLib/inc\xmc_gpio.h **** }
 103              	 .loc 1 292 1
 104 0018 00BF     	 nop
 105 001a 0C37     	 adds r7,r7,#12
 106              	.LCFI9:
 107              	 .cfi_def_cfa_offset 4
 108 001c BD46     	 mov sp,r7
 109              	.LCFI10:
 110              	 .cfi_def_cfa_register 13
 111              	 
 112 001e 5DF8047B 	 ldr r7,[sp],#4
 113              	.LCFI11:
 114              	 .cfi_restore 7
 115              	 .cfi_def_cfa_offset 0
 116 0022 7047     	 bx lr
 117              	 .cfi_endproc
 118              	.LFE136:
 120              	 .section .text.XMC_GPIO_GetInput,"ax",%progbits
 121              	 .align 1
 122              	 .syntax unified
 123              	 .thumb
 124              	 .thumb_func
 125              	 .fpu fpv4-sp-d16
 127              	XMC_GPIO_GetInput:
 128              	.LFB138:
 293:C:/Workspaces/DAVE-4.4.2-64Bit/_PKDS_TSTS06_STAND/Libraries/XMCLib/inc\xmc_gpio.h **** 
 294:C:/Workspaces/DAVE-4.4.2-64Bit/_PKDS_TSTS06_STAND/Libraries/XMCLib/inc\xmc_gpio.h **** /**
 295:C:/Workspaces/DAVE-4.4.2-64Bit/_PKDS_TSTS06_STAND/Libraries/XMCLib/inc\xmc_gpio.h ****  *
 296:C:/Workspaces/DAVE-4.4.2-64Bit/_PKDS_TSTS06_STAND/Libraries/XMCLib/inc\xmc_gpio.h ****  * @param port constant pointer pointing to GPIO port, to access hardware register Pn_OMR.
 297:C:/Workspaces/DAVE-4.4.2-64Bit/_PKDS_TSTS06_STAND/Libraries/XMCLib/inc\xmc_gpio.h ****  * @param pin  port pin number.
 298:C:/Workspaces/DAVE-4.4.2-64Bit/_PKDS_TSTS06_STAND/Libraries/XMCLib/inc\xmc_gpio.h ****  *
 299:C:/Workspaces/DAVE-4.4.2-64Bit/_PKDS_TSTS06_STAND/Libraries/XMCLib/inc\xmc_gpio.h ****  * @return None
 300:C:/Workspaces/DAVE-4.4.2-64Bit/_PKDS_TSTS06_STAND/Libraries/XMCLib/inc\xmc_gpio.h ****  *
 301:C:/Workspaces/DAVE-4.4.2-64Bit/_PKDS_TSTS06_STAND/Libraries/XMCLib/inc\xmc_gpio.h ****  * \par<b>Description:</b><br>
 302:C:/Workspaces/DAVE-4.4.2-64Bit/_PKDS_TSTS06_STAND/Libraries/XMCLib/inc\xmc_gpio.h ****  * Configures port pin output to Toggle. It configures hardware registers Pn_OMR.
 303:C:/Workspaces/DAVE-4.4.2-64Bit/_PKDS_TSTS06_STAND/Libraries/XMCLib/inc\xmc_gpio.h ****  *
 304:C:/Workspaces/DAVE-4.4.2-64Bit/_PKDS_TSTS06_STAND/Libraries/XMCLib/inc\xmc_gpio.h ****  * \par<b>Related APIs:</b><BR>
 305:C:/Workspaces/DAVE-4.4.2-64Bit/_PKDS_TSTS06_STAND/Libraries/XMCLib/inc\xmc_gpio.h ****  * XMC_GPIO_SetOutputHigh(), XMC_GPIO_SetOutputLow().
 306:C:/Workspaces/DAVE-4.4.2-64Bit/_PKDS_TSTS06_STAND/Libraries/XMCLib/inc\xmc_gpio.h ****  *
 307:C:/Workspaces/DAVE-4.4.2-64Bit/_PKDS_TSTS06_STAND/Libraries/XMCLib/inc\xmc_gpio.h ****  * \par<b>Note:</b><br>
 308:C:/Workspaces/DAVE-4.4.2-64Bit/_PKDS_TSTS06_STAND/Libraries/XMCLib/inc\xmc_gpio.h ****  * Prior to this api, user has to configure port pin to output mode using XMC_GPIO_SetMode(). Regis
 309:C:/Workspaces/DAVE-4.4.2-64Bit/_PKDS_TSTS06_STAND/Libraries/XMCLib/inc\xmc_gpio.h ****  * and does not contain any flip-flop. A read action delivers the value of 0.
 310:C:/Workspaces/DAVE-4.4.2-64Bit/_PKDS_TSTS06_STAND/Libraries/XMCLib/inc\xmc_gpio.h ****  *
 311:C:/Workspaces/DAVE-4.4.2-64Bit/_PKDS_TSTS06_STAND/Libraries/XMCLib/inc\xmc_gpio.h ****  */
 312:C:/Workspaces/DAVE-4.4.2-64Bit/_PKDS_TSTS06_STAND/Libraries/XMCLib/inc\xmc_gpio.h **** 
 313:C:/Workspaces/DAVE-4.4.2-64Bit/_PKDS_TSTS06_STAND/Libraries/XMCLib/inc\xmc_gpio.h **** __STATIC_INLINE void XMC_GPIO_ToggleOutput(XMC_GPIO_PORT_t *const port, const uint8_t pin)
 314:C:/Workspaces/DAVE-4.4.2-64Bit/_PKDS_TSTS06_STAND/Libraries/XMCLib/inc\xmc_gpio.h **** {
 315:C:/Workspaces/DAVE-4.4.2-64Bit/_PKDS_TSTS06_STAND/Libraries/XMCLib/inc\xmc_gpio.h ****   XMC_ASSERT("XMC_GPIO_ToggleOutput: Invalid port", XMC_GPIO_CHECK_OUTPUT_PORT(port));
 316:C:/Workspaces/DAVE-4.4.2-64Bit/_PKDS_TSTS06_STAND/Libraries/XMCLib/inc\xmc_gpio.h **** 
 317:C:/Workspaces/DAVE-4.4.2-64Bit/_PKDS_TSTS06_STAND/Libraries/XMCLib/inc\xmc_gpio.h ****   port->OMR = 0x10001U << pin;
 318:C:/Workspaces/DAVE-4.4.2-64Bit/_PKDS_TSTS06_STAND/Libraries/XMCLib/inc\xmc_gpio.h **** }
 319:C:/Workspaces/DAVE-4.4.2-64Bit/_PKDS_TSTS06_STAND/Libraries/XMCLib/inc\xmc_gpio.h **** 
 320:C:/Workspaces/DAVE-4.4.2-64Bit/_PKDS_TSTS06_STAND/Libraries/XMCLib/inc\xmc_gpio.h **** /**
 321:C:/Workspaces/DAVE-4.4.2-64Bit/_PKDS_TSTS06_STAND/Libraries/XMCLib/inc\xmc_gpio.h ****  *
 322:C:/Workspaces/DAVE-4.4.2-64Bit/_PKDS_TSTS06_STAND/Libraries/XMCLib/inc\xmc_gpio.h ****  * @param port constant pointer pointing to GPIO port, to access hardware register Pn_IN.
 323:C:/Workspaces/DAVE-4.4.2-64Bit/_PKDS_TSTS06_STAND/Libraries/XMCLib/inc\xmc_gpio.h ****  * @param pin  Port pin number.
 324:C:/Workspaces/DAVE-4.4.2-64Bit/_PKDS_TSTS06_STAND/Libraries/XMCLib/inc\xmc_gpio.h ****  *
 325:C:/Workspaces/DAVE-4.4.2-64Bit/_PKDS_TSTS06_STAND/Libraries/XMCLib/inc\xmc_gpio.h ****  * @return uint32_t pin logic level status.
 326:C:/Workspaces/DAVE-4.4.2-64Bit/_PKDS_TSTS06_STAND/Libraries/XMCLib/inc\xmc_gpio.h ****  *
 327:C:/Workspaces/DAVE-4.4.2-64Bit/_PKDS_TSTS06_STAND/Libraries/XMCLib/inc\xmc_gpio.h ****  *\par<b>Description:</b><br>
 328:C:/Workspaces/DAVE-4.4.2-64Bit/_PKDS_TSTS06_STAND/Libraries/XMCLib/inc\xmc_gpio.h ****  * Reads the Pn_IN register and returns the current logical value at the GPIO pin.
 329:C:/Workspaces/DAVE-4.4.2-64Bit/_PKDS_TSTS06_STAND/Libraries/XMCLib/inc\xmc_gpio.h ****  *
 330:C:/Workspaces/DAVE-4.4.2-64Bit/_PKDS_TSTS06_STAND/Libraries/XMCLib/inc\xmc_gpio.h ****  * \par<b>Related APIs:</b><BR>
 331:C:/Workspaces/DAVE-4.4.2-64Bit/_PKDS_TSTS06_STAND/Libraries/XMCLib/inc\xmc_gpio.h ****  * None
 332:C:/Workspaces/DAVE-4.4.2-64Bit/_PKDS_TSTS06_STAND/Libraries/XMCLib/inc\xmc_gpio.h ****  *
 333:C:/Workspaces/DAVE-4.4.2-64Bit/_PKDS_TSTS06_STAND/Libraries/XMCLib/inc\xmc_gpio.h ****  * \par<b>Note:</b><br>
 334:C:/Workspaces/DAVE-4.4.2-64Bit/_PKDS_TSTS06_STAND/Libraries/XMCLib/inc\xmc_gpio.h ****  * Prior to this api, user has to configure port pin to input mode using XMC_GPIO_SetMode().
 335:C:/Workspaces/DAVE-4.4.2-64Bit/_PKDS_TSTS06_STAND/Libraries/XMCLib/inc\xmc_gpio.h ****  *
 336:C:/Workspaces/DAVE-4.4.2-64Bit/_PKDS_TSTS06_STAND/Libraries/XMCLib/inc\xmc_gpio.h ****  */
 337:C:/Workspaces/DAVE-4.4.2-64Bit/_PKDS_TSTS06_STAND/Libraries/XMCLib/inc\xmc_gpio.h **** 
 338:C:/Workspaces/DAVE-4.4.2-64Bit/_PKDS_TSTS06_STAND/Libraries/XMCLib/inc\xmc_gpio.h **** __STATIC_INLINE uint32_t XMC_GPIO_GetInput(XMC_GPIO_PORT_t *const port, const uint8_t pin)
 339:C:/Workspaces/DAVE-4.4.2-64Bit/_PKDS_TSTS06_STAND/Libraries/XMCLib/inc\xmc_gpio.h **** {
 129              	 .loc 1 339 1
 130              	 .cfi_startproc
 131              	 
 132              	 
 133              	 
 134 0000 80B4     	 push {r7}
 135              	.LCFI12:
 136              	 .cfi_def_cfa_offset 4
 137              	 .cfi_offset 7,-4
 138 0002 83B0     	 sub sp,sp,#12
 139              	.LCFI13:
 140              	 .cfi_def_cfa_offset 16
 141 0004 00AF     	 add r7,sp,#0
 142              	.LCFI14:
 143              	 .cfi_def_cfa_register 7
 144 0006 7860     	 str r0,[r7,#4]
 145 0008 0B46     	 mov r3,r1
 146 000a FB70     	 strb r3,[r7,#3]
 340:C:/Workspaces/DAVE-4.4.2-64Bit/_PKDS_TSTS06_STAND/Libraries/XMCLib/inc\xmc_gpio.h ****   XMC_ASSERT("XMC_GPIO_GetInput: Invalid port", XMC_GPIO_CHECK_PORT(port));
 341:C:/Workspaces/DAVE-4.4.2-64Bit/_PKDS_TSTS06_STAND/Libraries/XMCLib/inc\xmc_gpio.h **** 
 342:C:/Workspaces/DAVE-4.4.2-64Bit/_PKDS_TSTS06_STAND/Libraries/XMCLib/inc\xmc_gpio.h ****   return (((port->IN) >> pin) & 0x1U);
 147              	 .loc 1 342 17
 148 000c 7B68     	 ldr r3,[r7,#4]
 149 000e 5A6A     	 ldr r2,[r3,#36]
 150              	 .loc 1 342 31
 151 0010 FB78     	 ldrb r3,[r7,#3]
 152              	 .loc 1 342 23
 153 0012 22FA03F3 	 lsr r3,r2,r3
 154              	 .loc 1 342 31
 155 0016 03F00103 	 and r3,r3,#1
 343:C:/Workspaces/DAVE-4.4.2-64Bit/_PKDS_TSTS06_STAND/Libraries/XMCLib/inc\xmc_gpio.h **** }
 156              	 .loc 1 343 1
 157 001a 1846     	 mov r0,r3
 158 001c 0C37     	 adds r7,r7,#12
 159              	.LCFI15:
 160              	 .cfi_def_cfa_offset 4
 161 001e BD46     	 mov sp,r7
 162              	.LCFI16:
 163              	 .cfi_def_cfa_register 13
 164              	 
 165 0020 5DF8047B 	 ldr r7,[sp],#4
 166              	.LCFI17:
 167              	 .cfi_restore 7
 168              	 .cfi_def_cfa_offset 0
 169 0024 7047     	 bx lr
 170              	 .cfi_endproc
 171              	.LFE138:
 173              	 .section .text.DIGITAL_IO_SetOutputHigh,"ax",%progbits
 174              	 .align 1
 175              	 .syntax unified
 176              	 .thumb
 177              	 .thumb_func
 178              	 .fpu fpv4-sp-d16
 180              	DIGITAL_IO_SetOutputHigh:
 181              	.LFB143:
 182              	 .file 2 "C:/Workspaces/DAVE-4.4.2-64Bit/_PKDS_TSTS06_STAND/Dave/Generated/DIGITAL_IO/digital_io.h"
   1:C:/Workspaces/DAVE-4.4.2-64Bit/_PKDS_TSTS06_STAND/Dave/Generated/DIGITAL_IO\digital_io.h **** /*
   2:C:/Workspaces/DAVE-4.4.2-64Bit/_PKDS_TSTS06_STAND/Dave/Generated/DIGITAL_IO\digital_io.h ****  *
   3:C:/Workspaces/DAVE-4.4.2-64Bit/_PKDS_TSTS06_STAND/Dave/Generated/DIGITAL_IO\digital_io.h ****  * @file digital_io.h
   4:C:/Workspaces/DAVE-4.4.2-64Bit/_PKDS_TSTS06_STAND/Dave/Generated/DIGITAL_IO\digital_io.h ****  * @date 2021-01-08
   5:C:/Workspaces/DAVE-4.4.2-64Bit/_PKDS_TSTS06_STAND/Dave/Generated/DIGITAL_IO\digital_io.h ****  *
   6:C:/Workspaces/DAVE-4.4.2-64Bit/_PKDS_TSTS06_STAND/Dave/Generated/DIGITAL_IO\digital_io.h ****  * NOTE:
   7:C:/Workspaces/DAVE-4.4.2-64Bit/_PKDS_TSTS06_STAND/Dave/Generated/DIGITAL_IO\digital_io.h ****  * This file is generated by DAVE. Any manual modification done to this file will be lost when the 
   8:C:/Workspaces/DAVE-4.4.2-64Bit/_PKDS_TSTS06_STAND/Dave/Generated/DIGITAL_IO\digital_io.h ****  *
   9:C:/Workspaces/DAVE-4.4.2-64Bit/_PKDS_TSTS06_STAND/Dave/Generated/DIGITAL_IO\digital_io.h ****  * @cond
  10:C:/Workspaces/DAVE-4.4.2-64Bit/_PKDS_TSTS06_STAND/Dave/Generated/DIGITAL_IO\digital_io.h ****  **************************************************************************************************
  11:C:/Workspaces/DAVE-4.4.2-64Bit/_PKDS_TSTS06_STAND/Dave/Generated/DIGITAL_IO\digital_io.h ****  * DIGITAL_IO v4.0.18 - The DIGITAL_IO APP is used to configure a port pin as digital Input/Output.
  12:C:/Workspaces/DAVE-4.4.2-64Bit/_PKDS_TSTS06_STAND/Dave/Generated/DIGITAL_IO\digital_io.h ****  *
  13:C:/Workspaces/DAVE-4.4.2-64Bit/_PKDS_TSTS06_STAND/Dave/Generated/DIGITAL_IO\digital_io.h ****  * Copyright (c) 2015-2020, Infineon Technologies AG
  14:C:/Workspaces/DAVE-4.4.2-64Bit/_PKDS_TSTS06_STAND/Dave/Generated/DIGITAL_IO\digital_io.h ****  * All rights reserved.
  15:C:/Workspaces/DAVE-4.4.2-64Bit/_PKDS_TSTS06_STAND/Dave/Generated/DIGITAL_IO\digital_io.h ****  *
  16:C:/Workspaces/DAVE-4.4.2-64Bit/_PKDS_TSTS06_STAND/Dave/Generated/DIGITAL_IO\digital_io.h ****  * Redistribution and use in source and binary forms, with or without modification,are permitted pr
  17:C:/Workspaces/DAVE-4.4.2-64Bit/_PKDS_TSTS06_STAND/Dave/Generated/DIGITAL_IO\digital_io.h ****  * following conditions are met:
  18:C:/Workspaces/DAVE-4.4.2-64Bit/_PKDS_TSTS06_STAND/Dave/Generated/DIGITAL_IO\digital_io.h ****  *
  19:C:/Workspaces/DAVE-4.4.2-64Bit/_PKDS_TSTS06_STAND/Dave/Generated/DIGITAL_IO\digital_io.h ****  *   Redistributions of source code must retain the above copyright notice, this list of conditions
  20:C:/Workspaces/DAVE-4.4.2-64Bit/_PKDS_TSTS06_STAND/Dave/Generated/DIGITAL_IO\digital_io.h ****  *   disclaimer.
  21:C:/Workspaces/DAVE-4.4.2-64Bit/_PKDS_TSTS06_STAND/Dave/Generated/DIGITAL_IO\digital_io.h ****  *
  22:C:/Workspaces/DAVE-4.4.2-64Bit/_PKDS_TSTS06_STAND/Dave/Generated/DIGITAL_IO\digital_io.h ****  *   Redistributions in binary form must reproduce the above copyright notice, this list of conditi
  23:C:/Workspaces/DAVE-4.4.2-64Bit/_PKDS_TSTS06_STAND/Dave/Generated/DIGITAL_IO\digital_io.h ****  *   following disclaimer in the documentation and/or other materials provided with the distributio
  24:C:/Workspaces/DAVE-4.4.2-64Bit/_PKDS_TSTS06_STAND/Dave/Generated/DIGITAL_IO\digital_io.h ****  *
  25:C:/Workspaces/DAVE-4.4.2-64Bit/_PKDS_TSTS06_STAND/Dave/Generated/DIGITAL_IO\digital_io.h ****  *   Neither the name of the copyright holders nor the names of its contributors may be used to end
  26:C:/Workspaces/DAVE-4.4.2-64Bit/_PKDS_TSTS06_STAND/Dave/Generated/DIGITAL_IO\digital_io.h ****  *   products derived from this software without specific prior written permission.
  27:C:/Workspaces/DAVE-4.4.2-64Bit/_PKDS_TSTS06_STAND/Dave/Generated/DIGITAL_IO\digital_io.h ****  *
  28:C:/Workspaces/DAVE-4.4.2-64Bit/_PKDS_TSTS06_STAND/Dave/Generated/DIGITAL_IO\digital_io.h ****  * THIS SOFTWARE IS PROVIDED BY THE COPYRIGHT HOLDERS AND CONTRIBUTORS "AS IS" AND ANY EXPRESS OR I
  29:C:/Workspaces/DAVE-4.4.2-64Bit/_PKDS_TSTS06_STAND/Dave/Generated/DIGITAL_IO\digital_io.h ****  * INCLUDING, BUT NOT LIMITED TO, THE IMPLIED WARRANTIES OF MERCHANTABILITY AND FITNESS FOR A PARTI
  30:C:/Workspaces/DAVE-4.4.2-64Bit/_PKDS_TSTS06_STAND/Dave/Generated/DIGITAL_IO\digital_io.h ****  * DISCLAIMED. IN NO EVENT SHALL THE COPYRIGHT HOLDER OR CONTRIBUTORS BE LIABLE  FOR ANY DIRECT, IN
  31:C:/Workspaces/DAVE-4.4.2-64Bit/_PKDS_TSTS06_STAND/Dave/Generated/DIGITAL_IO\digital_io.h ****  * SPECIAL, EXEMPLARY, OR CONSEQUENTIAL DAMAGES (INCLUDING, BUT NOT LIMITED TO, PROCUREMENT OF SUBS
  32:C:/Workspaces/DAVE-4.4.2-64Bit/_PKDS_TSTS06_STAND/Dave/Generated/DIGITAL_IO\digital_io.h ****  * SERVICES; LOSS OF USE, DATA, OR PROFITS; OR BUSINESS INTERRUPTION) HOWEVER CAUSED AND ON ANY THE
  33:C:/Workspaces/DAVE-4.4.2-64Bit/_PKDS_TSTS06_STAND/Dave/Generated/DIGITAL_IO\digital_io.h ****  * WHETHER IN CONTRACT, STRICT LIABILITY,OR TORT (INCLUDING NEGLIGENCE OR OTHERWISE) ARISING IN ANY
  34:C:/Workspaces/DAVE-4.4.2-64Bit/_PKDS_TSTS06_STAND/Dave/Generated/DIGITAL_IO\digital_io.h ****  * USE OF THIS SOFTWARE, EVEN IF ADVISED OF THE POSSIBILITY OF SUCH DAMAGE.
  35:C:/Workspaces/DAVE-4.4.2-64Bit/_PKDS_TSTS06_STAND/Dave/Generated/DIGITAL_IO\digital_io.h ****  *
  36:C:/Workspaces/DAVE-4.4.2-64Bit/_PKDS_TSTS06_STAND/Dave/Generated/DIGITAL_IO\digital_io.h ****  * To improve the quality of the software, users are encouraged to share modifications, enhancement
  37:C:/Workspaces/DAVE-4.4.2-64Bit/_PKDS_TSTS06_STAND/Dave/Generated/DIGITAL_IO\digital_io.h ****  * with Infineon Technologies AG (dave@infineon.com).
  38:C:/Workspaces/DAVE-4.4.2-64Bit/_PKDS_TSTS06_STAND/Dave/Generated/DIGITAL_IO\digital_io.h ****  **************************************************************************************************
  39:C:/Workspaces/DAVE-4.4.2-64Bit/_PKDS_TSTS06_STAND/Dave/Generated/DIGITAL_IO\digital_io.h ****  *
  40:C:/Workspaces/DAVE-4.4.2-64Bit/_PKDS_TSTS06_STAND/Dave/Generated/DIGITAL_IO\digital_io.h ****  * Change History
  41:C:/Workspaces/DAVE-4.4.2-64Bit/_PKDS_TSTS06_STAND/Dave/Generated/DIGITAL_IO\digital_io.h ****  * --------------
  42:C:/Workspaces/DAVE-4.4.2-64Bit/_PKDS_TSTS06_STAND/Dave/Generated/DIGITAL_IO\digital_io.h ****  *
  43:C:/Workspaces/DAVE-4.4.2-64Bit/_PKDS_TSTS06_STAND/Dave/Generated/DIGITAL_IO\digital_io.h ****  * 2015-02-16
  44:C:/Workspaces/DAVE-4.4.2-64Bit/_PKDS_TSTS06_STAND/Dave/Generated/DIGITAL_IO\digital_io.h ****  *     - Initial version
  45:C:/Workspaces/DAVE-4.4.2-64Bit/_PKDS_TSTS06_STAND/Dave/Generated/DIGITAL_IO\digital_io.h ****  *
  46:C:/Workspaces/DAVE-4.4.2-64Bit/_PKDS_TSTS06_STAND/Dave/Generated/DIGITAL_IO\digital_io.h ****  * 2015-04-22
  47:C:/Workspaces/DAVE-4.4.2-64Bit/_PKDS_TSTS06_STAND/Dave/Generated/DIGITAL_IO\digital_io.h ****  *     - XMC_ASSERT is added in static inline functions.<br>
  48:C:/Workspaces/DAVE-4.4.2-64Bit/_PKDS_TSTS06_STAND/Dave/Generated/DIGITAL_IO\digital_io.h ****  *
  49:C:/Workspaces/DAVE-4.4.2-64Bit/_PKDS_TSTS06_STAND/Dave/Generated/DIGITAL_IO\digital_io.h ****  * 2015-06-20
  50:C:/Workspaces/DAVE-4.4.2-64Bit/_PKDS_TSTS06_STAND/Dave/Generated/DIGITAL_IO\digital_io.h ****  *     - Version check added for XMCLib dependency.<br>
  51:C:/Workspaces/DAVE-4.4.2-64Bit/_PKDS_TSTS06_STAND/Dave/Generated/DIGITAL_IO\digital_io.h ****  *
  52:C:/Workspaces/DAVE-4.4.2-64Bit/_PKDS_TSTS06_STAND/Dave/Generated/DIGITAL_IO\digital_io.h ****  * 2015-12-22
  53:C:/Workspaces/DAVE-4.4.2-64Bit/_PKDS_TSTS06_STAND/Dave/Generated/DIGITAL_IO\digital_io.h ****  *     - Added hardware controlled IO feature.
  54:C:/Workspaces/DAVE-4.4.2-64Bit/_PKDS_TSTS06_STAND/Dave/Generated/DIGITAL_IO\digital_io.h ****  * 2016-07-08:
  55:C:/Workspaces/DAVE-4.4.2-64Bit/_PKDS_TSTS06_STAND/Dave/Generated/DIGITAL_IO\digital_io.h ****  *     - Fixed incorrect case for an included header.<br>
  56:C:/Workspaces/DAVE-4.4.2-64Bit/_PKDS_TSTS06_STAND/Dave/Generated/DIGITAL_IO\digital_io.h ****  * 2021-01-08:
  57:C:/Workspaces/DAVE-4.4.2-64Bit/_PKDS_TSTS06_STAND/Dave/Generated/DIGITAL_IO\digital_io.h ****  *     - Modified check for minimum XMCLib version
  58:C:/Workspaces/DAVE-4.4.2-64Bit/_PKDS_TSTS06_STAND/Dave/Generated/DIGITAL_IO\digital_io.h ****  *
  59:C:/Workspaces/DAVE-4.4.2-64Bit/_PKDS_TSTS06_STAND/Dave/Generated/DIGITAL_IO\digital_io.h ****  * @endcond
  60:C:/Workspaces/DAVE-4.4.2-64Bit/_PKDS_TSTS06_STAND/Dave/Generated/DIGITAL_IO\digital_io.h ****  *
  61:C:/Workspaces/DAVE-4.4.2-64Bit/_PKDS_TSTS06_STAND/Dave/Generated/DIGITAL_IO\digital_io.h ****  */
  62:C:/Workspaces/DAVE-4.4.2-64Bit/_PKDS_TSTS06_STAND/Dave/Generated/DIGITAL_IO\digital_io.h **** 
  63:C:/Workspaces/DAVE-4.4.2-64Bit/_PKDS_TSTS06_STAND/Dave/Generated/DIGITAL_IO\digital_io.h **** /**************************************************************************************************
  64:C:/Workspaces/DAVE-4.4.2-64Bit/_PKDS_TSTS06_STAND/Dave/Generated/DIGITAL_IO\digital_io.h ****  * HEADER FILES
  65:C:/Workspaces/DAVE-4.4.2-64Bit/_PKDS_TSTS06_STAND/Dave/Generated/DIGITAL_IO\digital_io.h ****  **************************************************************************************************
  66:C:/Workspaces/DAVE-4.4.2-64Bit/_PKDS_TSTS06_STAND/Dave/Generated/DIGITAL_IO\digital_io.h **** 
  67:C:/Workspaces/DAVE-4.4.2-64Bit/_PKDS_TSTS06_STAND/Dave/Generated/DIGITAL_IO\digital_io.h **** #ifndef DIGITAL_IO_H
  68:C:/Workspaces/DAVE-4.4.2-64Bit/_PKDS_TSTS06_STAND/Dave/Generated/DIGITAL_IO\digital_io.h **** #define DIGITAL_IO_H
  69:C:/Workspaces/DAVE-4.4.2-64Bit/_PKDS_TSTS06_STAND/Dave/Generated/DIGITAL_IO\digital_io.h **** 
  70:C:/Workspaces/DAVE-4.4.2-64Bit/_PKDS_TSTS06_STAND/Dave/Generated/DIGITAL_IO\digital_io.h **** #include "xmc_gpio.h"
  71:C:/Workspaces/DAVE-4.4.2-64Bit/_PKDS_TSTS06_STAND/Dave/Generated/DIGITAL_IO\digital_io.h **** #include "DAVE_Common.h"
  72:C:/Workspaces/DAVE-4.4.2-64Bit/_PKDS_TSTS06_STAND/Dave/Generated/DIGITAL_IO\digital_io.h **** #include "digital_io_conf.h"
  73:C:/Workspaces/DAVE-4.4.2-64Bit/_PKDS_TSTS06_STAND/Dave/Generated/DIGITAL_IO\digital_io.h **** 
  74:C:/Workspaces/DAVE-4.4.2-64Bit/_PKDS_TSTS06_STAND/Dave/Generated/DIGITAL_IO\digital_io.h **** /**************************************************************************************************
  75:C:/Workspaces/DAVE-4.4.2-64Bit/_PKDS_TSTS06_STAND/Dave/Generated/DIGITAL_IO\digital_io.h ****  * MACROS
  76:C:/Workspaces/DAVE-4.4.2-64Bit/_PKDS_TSTS06_STAND/Dave/Generated/DIGITAL_IO\digital_io.h ****  **************************************************************************************************
  77:C:/Workspaces/DAVE-4.4.2-64Bit/_PKDS_TSTS06_STAND/Dave/Generated/DIGITAL_IO\digital_io.h **** #define DIGITAL_IO_XMC_LIB_MAJOR_VERSION 2
  78:C:/Workspaces/DAVE-4.4.2-64Bit/_PKDS_TSTS06_STAND/Dave/Generated/DIGITAL_IO\digital_io.h **** #define DIGITAL_IO_XMC_LIB_MINOR_VERSION 0
  79:C:/Workspaces/DAVE-4.4.2-64Bit/_PKDS_TSTS06_STAND/Dave/Generated/DIGITAL_IO\digital_io.h **** #define DIGITAL_IO_XMC_LIB_PATCH_VERSION 0
  80:C:/Workspaces/DAVE-4.4.2-64Bit/_PKDS_TSTS06_STAND/Dave/Generated/DIGITAL_IO\digital_io.h **** 
  81:C:/Workspaces/DAVE-4.4.2-64Bit/_PKDS_TSTS06_STAND/Dave/Generated/DIGITAL_IO\digital_io.h **** #if !((XMC_LIB_MAJOR_VERSION > DIGITAL_IO_XMC_LIB_MAJOR_VERSION) ||\
  82:C:/Workspaces/DAVE-4.4.2-64Bit/_PKDS_TSTS06_STAND/Dave/Generated/DIGITAL_IO\digital_io.h ****       ((XMC_LIB_MAJOR_VERSION == DIGITAL_IO_XMC_LIB_MAJOR_VERSION) && (XMC_LIB_MINOR_VERSION > DIGI
  83:C:/Workspaces/DAVE-4.4.2-64Bit/_PKDS_TSTS06_STAND/Dave/Generated/DIGITAL_IO\digital_io.h ****       ((XMC_LIB_MAJOR_VERSION == DIGITAL_IO_XMC_LIB_MAJOR_VERSION) && (XMC_LIB_MINOR_VERSION == DIG
  84:C:/Workspaces/DAVE-4.4.2-64Bit/_PKDS_TSTS06_STAND/Dave/Generated/DIGITAL_IO\digital_io.h **** #error "DIGITAL_IO requires XMC Peripheral Library v2.0.0 or higher"
  85:C:/Workspaces/DAVE-4.4.2-64Bit/_PKDS_TSTS06_STAND/Dave/Generated/DIGITAL_IO\digital_io.h **** #endif
  86:C:/Workspaces/DAVE-4.4.2-64Bit/_PKDS_TSTS06_STAND/Dave/Generated/DIGITAL_IO\digital_io.h **** 
  87:C:/Workspaces/DAVE-4.4.2-64Bit/_PKDS_TSTS06_STAND/Dave/Generated/DIGITAL_IO\digital_io.h ****  /*************************************************************************************************
  88:C:/Workspaces/DAVE-4.4.2-64Bit/_PKDS_TSTS06_STAND/Dave/Generated/DIGITAL_IO\digital_io.h ****  * ENUMS
  89:C:/Workspaces/DAVE-4.4.2-64Bit/_PKDS_TSTS06_STAND/Dave/Generated/DIGITAL_IO\digital_io.h ****  **************************************************************************************************
  90:C:/Workspaces/DAVE-4.4.2-64Bit/_PKDS_TSTS06_STAND/Dave/Generated/DIGITAL_IO\digital_io.h **** 
  91:C:/Workspaces/DAVE-4.4.2-64Bit/_PKDS_TSTS06_STAND/Dave/Generated/DIGITAL_IO\digital_io.h **** /**
  92:C:/Workspaces/DAVE-4.4.2-64Bit/_PKDS_TSTS06_STAND/Dave/Generated/DIGITAL_IO\digital_io.h **** * @ingroup DIGITAL_IO_enumerations
  93:C:/Workspaces/DAVE-4.4.2-64Bit/_PKDS_TSTS06_STAND/Dave/Generated/DIGITAL_IO\digital_io.h **** * @{
  94:C:/Workspaces/DAVE-4.4.2-64Bit/_PKDS_TSTS06_STAND/Dave/Generated/DIGITAL_IO\digital_io.h **** */
  95:C:/Workspaces/DAVE-4.4.2-64Bit/_PKDS_TSTS06_STAND/Dave/Generated/DIGITAL_IO\digital_io.h **** 
  96:C:/Workspaces/DAVE-4.4.2-64Bit/_PKDS_TSTS06_STAND/Dave/Generated/DIGITAL_IO\digital_io.h **** /**
  97:C:/Workspaces/DAVE-4.4.2-64Bit/_PKDS_TSTS06_STAND/Dave/Generated/DIGITAL_IO\digital_io.h **** * @brief Initialization status of DIGITAL_IO APP.
  98:C:/Workspaces/DAVE-4.4.2-64Bit/_PKDS_TSTS06_STAND/Dave/Generated/DIGITAL_IO\digital_io.h **** */
  99:C:/Workspaces/DAVE-4.4.2-64Bit/_PKDS_TSTS06_STAND/Dave/Generated/DIGITAL_IO\digital_io.h **** typedef enum DIGITAL_IO_STATUS
 100:C:/Workspaces/DAVE-4.4.2-64Bit/_PKDS_TSTS06_STAND/Dave/Generated/DIGITAL_IO\digital_io.h **** {
 101:C:/Workspaces/DAVE-4.4.2-64Bit/_PKDS_TSTS06_STAND/Dave/Generated/DIGITAL_IO\digital_io.h ****   DIGITAL_IO_STATUS_OK = 0U,/**< 0=Status OK */
 102:C:/Workspaces/DAVE-4.4.2-64Bit/_PKDS_TSTS06_STAND/Dave/Generated/DIGITAL_IO\digital_io.h ****   DIGITAL_IO_STATUS_FAILURE = 1U/**< 1=Status Failed */
 103:C:/Workspaces/DAVE-4.4.2-64Bit/_PKDS_TSTS06_STAND/Dave/Generated/DIGITAL_IO\digital_io.h **** } DIGITAL_IO_STATUS_t;
 104:C:/Workspaces/DAVE-4.4.2-64Bit/_PKDS_TSTS06_STAND/Dave/Generated/DIGITAL_IO\digital_io.h **** 
 105:C:/Workspaces/DAVE-4.4.2-64Bit/_PKDS_TSTS06_STAND/Dave/Generated/DIGITAL_IO\digital_io.h **** /**
 106:C:/Workspaces/DAVE-4.4.2-64Bit/_PKDS_TSTS06_STAND/Dave/Generated/DIGITAL_IO\digital_io.h **** * @}
 107:C:/Workspaces/DAVE-4.4.2-64Bit/_PKDS_TSTS06_STAND/Dave/Generated/DIGITAL_IO\digital_io.h **** */
 108:C:/Workspaces/DAVE-4.4.2-64Bit/_PKDS_TSTS06_STAND/Dave/Generated/DIGITAL_IO\digital_io.h **** 
 109:C:/Workspaces/DAVE-4.4.2-64Bit/_PKDS_TSTS06_STAND/Dave/Generated/DIGITAL_IO\digital_io.h **** /**************************************************************************************************
 110:C:/Workspaces/DAVE-4.4.2-64Bit/_PKDS_TSTS06_STAND/Dave/Generated/DIGITAL_IO\digital_io.h ****  * DATA STRUCTURES
 111:C:/Workspaces/DAVE-4.4.2-64Bit/_PKDS_TSTS06_STAND/Dave/Generated/DIGITAL_IO\digital_io.h ****  **************************************************************************************************
 112:C:/Workspaces/DAVE-4.4.2-64Bit/_PKDS_TSTS06_STAND/Dave/Generated/DIGITAL_IO\digital_io.h **** /**
 113:C:/Workspaces/DAVE-4.4.2-64Bit/_PKDS_TSTS06_STAND/Dave/Generated/DIGITAL_IO\digital_io.h **** * @ingroup DIGITAL_IO_datastructures
 114:C:/Workspaces/DAVE-4.4.2-64Bit/_PKDS_TSTS06_STAND/Dave/Generated/DIGITAL_IO\digital_io.h **** * @{
 115:C:/Workspaces/DAVE-4.4.2-64Bit/_PKDS_TSTS06_STAND/Dave/Generated/DIGITAL_IO\digital_io.h **** */
 116:C:/Workspaces/DAVE-4.4.2-64Bit/_PKDS_TSTS06_STAND/Dave/Generated/DIGITAL_IO\digital_io.h **** 
 117:C:/Workspaces/DAVE-4.4.2-64Bit/_PKDS_TSTS06_STAND/Dave/Generated/DIGITAL_IO\digital_io.h **** /**
 118:C:/Workspaces/DAVE-4.4.2-64Bit/_PKDS_TSTS06_STAND/Dave/Generated/DIGITAL_IO\digital_io.h **** * @brief Initialization data structure of DIGITAL_IO APP
 119:C:/Workspaces/DAVE-4.4.2-64Bit/_PKDS_TSTS06_STAND/Dave/Generated/DIGITAL_IO\digital_io.h **** */
 120:C:/Workspaces/DAVE-4.4.2-64Bit/_PKDS_TSTS06_STAND/Dave/Generated/DIGITAL_IO\digital_io.h **** typedef struct DIGITAL_IO
 121:C:/Workspaces/DAVE-4.4.2-64Bit/_PKDS_TSTS06_STAND/Dave/Generated/DIGITAL_IO\digital_io.h **** {
 122:C:/Workspaces/DAVE-4.4.2-64Bit/_PKDS_TSTS06_STAND/Dave/Generated/DIGITAL_IO\digital_io.h ****   XMC_GPIO_PORT_t *const gpio_port;             /**< port number */
 123:C:/Workspaces/DAVE-4.4.2-64Bit/_PKDS_TSTS06_STAND/Dave/Generated/DIGITAL_IO\digital_io.h ****   const XMC_GPIO_CONFIG_t gpio_config;          /**< mode, initial output level and pad driver stre
 124:C:/Workspaces/DAVE-4.4.2-64Bit/_PKDS_TSTS06_STAND/Dave/Generated/DIGITAL_IO\digital_io.h ****   const uint8_t gpio_pin;                       /**< pin number */
 125:C:/Workspaces/DAVE-4.4.2-64Bit/_PKDS_TSTS06_STAND/Dave/Generated/DIGITAL_IO\digital_io.h ****   const XMC_GPIO_HWCTRL_t hwctrl;               /**< Hardware port control */
 126:C:/Workspaces/DAVE-4.4.2-64Bit/_PKDS_TSTS06_STAND/Dave/Generated/DIGITAL_IO\digital_io.h **** } DIGITAL_IO_t;
 127:C:/Workspaces/DAVE-4.4.2-64Bit/_PKDS_TSTS06_STAND/Dave/Generated/DIGITAL_IO\digital_io.h **** 
 128:C:/Workspaces/DAVE-4.4.2-64Bit/_PKDS_TSTS06_STAND/Dave/Generated/DIGITAL_IO\digital_io.h **** 
 129:C:/Workspaces/DAVE-4.4.2-64Bit/_PKDS_TSTS06_STAND/Dave/Generated/DIGITAL_IO\digital_io.h **** /**
 130:C:/Workspaces/DAVE-4.4.2-64Bit/_PKDS_TSTS06_STAND/Dave/Generated/DIGITAL_IO\digital_io.h **** * @}
 131:C:/Workspaces/DAVE-4.4.2-64Bit/_PKDS_TSTS06_STAND/Dave/Generated/DIGITAL_IO\digital_io.h **** */
 132:C:/Workspaces/DAVE-4.4.2-64Bit/_PKDS_TSTS06_STAND/Dave/Generated/DIGITAL_IO\digital_io.h **** 
 133:C:/Workspaces/DAVE-4.4.2-64Bit/_PKDS_TSTS06_STAND/Dave/Generated/DIGITAL_IO\digital_io.h **** 
 134:C:/Workspaces/DAVE-4.4.2-64Bit/_PKDS_TSTS06_STAND/Dave/Generated/DIGITAL_IO\digital_io.h **** /**************************************************************************************************
 135:C:/Workspaces/DAVE-4.4.2-64Bit/_PKDS_TSTS06_STAND/Dave/Generated/DIGITAL_IO\digital_io.h ****  * API Prototypes
 136:C:/Workspaces/DAVE-4.4.2-64Bit/_PKDS_TSTS06_STAND/Dave/Generated/DIGITAL_IO\digital_io.h ****  **************************************************************************************************
 137:C:/Workspaces/DAVE-4.4.2-64Bit/_PKDS_TSTS06_STAND/Dave/Generated/DIGITAL_IO\digital_io.h **** 
 138:C:/Workspaces/DAVE-4.4.2-64Bit/_PKDS_TSTS06_STAND/Dave/Generated/DIGITAL_IO\digital_io.h **** 
 139:C:/Workspaces/DAVE-4.4.2-64Bit/_PKDS_TSTS06_STAND/Dave/Generated/DIGITAL_IO\digital_io.h **** #ifdef __cplusplus
 140:C:/Workspaces/DAVE-4.4.2-64Bit/_PKDS_TSTS06_STAND/Dave/Generated/DIGITAL_IO\digital_io.h **** extern "C" {
 141:C:/Workspaces/DAVE-4.4.2-64Bit/_PKDS_TSTS06_STAND/Dave/Generated/DIGITAL_IO\digital_io.h **** #endif
 142:C:/Workspaces/DAVE-4.4.2-64Bit/_PKDS_TSTS06_STAND/Dave/Generated/DIGITAL_IO\digital_io.h **** 
 143:C:/Workspaces/DAVE-4.4.2-64Bit/_PKDS_TSTS06_STAND/Dave/Generated/DIGITAL_IO\digital_io.h **** /**
 144:C:/Workspaces/DAVE-4.4.2-64Bit/_PKDS_TSTS06_STAND/Dave/Generated/DIGITAL_IO\digital_io.h **** * @ingroup DIGITAL_IO_apidoc
 145:C:/Workspaces/DAVE-4.4.2-64Bit/_PKDS_TSTS06_STAND/Dave/Generated/DIGITAL_IO\digital_io.h **** * @{
 146:C:/Workspaces/DAVE-4.4.2-64Bit/_PKDS_TSTS06_STAND/Dave/Generated/DIGITAL_IO\digital_io.h **** */
 147:C:/Workspaces/DAVE-4.4.2-64Bit/_PKDS_TSTS06_STAND/Dave/Generated/DIGITAL_IO\digital_io.h **** 
 148:C:/Workspaces/DAVE-4.4.2-64Bit/_PKDS_TSTS06_STAND/Dave/Generated/DIGITAL_IO\digital_io.h **** 
 149:C:/Workspaces/DAVE-4.4.2-64Bit/_PKDS_TSTS06_STAND/Dave/Generated/DIGITAL_IO\digital_io.h **** 
 150:C:/Workspaces/DAVE-4.4.2-64Bit/_PKDS_TSTS06_STAND/Dave/Generated/DIGITAL_IO\digital_io.h **** /**
 151:C:/Workspaces/DAVE-4.4.2-64Bit/_PKDS_TSTS06_STAND/Dave/Generated/DIGITAL_IO\digital_io.h **** * @brief Get DIGITAL_IO APP version
 152:C:/Workspaces/DAVE-4.4.2-64Bit/_PKDS_TSTS06_STAND/Dave/Generated/DIGITAL_IO\digital_io.h **** * @return DAVE_APP_VERSION_t APP version information (major, minor and patch number)
 153:C:/Workspaces/DAVE-4.4.2-64Bit/_PKDS_TSTS06_STAND/Dave/Generated/DIGITAL_IO\digital_io.h **** *
 154:C:/Workspaces/DAVE-4.4.2-64Bit/_PKDS_TSTS06_STAND/Dave/Generated/DIGITAL_IO\digital_io.h **** * \par<b>Description: </b><br>
 155:C:/Workspaces/DAVE-4.4.2-64Bit/_PKDS_TSTS06_STAND/Dave/Generated/DIGITAL_IO\digital_io.h **** * The function can be used to check application software compatibility with a
 156:C:/Workspaces/DAVE-4.4.2-64Bit/_PKDS_TSTS06_STAND/Dave/Generated/DIGITAL_IO\digital_io.h **** * specific version of the APP.
 157:C:/Workspaces/DAVE-4.4.2-64Bit/_PKDS_TSTS06_STAND/Dave/Generated/DIGITAL_IO\digital_io.h **** *
 158:C:/Workspaces/DAVE-4.4.2-64Bit/_PKDS_TSTS06_STAND/Dave/Generated/DIGITAL_IO\digital_io.h **** * Example Usage:
 159:C:/Workspaces/DAVE-4.4.2-64Bit/_PKDS_TSTS06_STAND/Dave/Generated/DIGITAL_IO\digital_io.h **** *
 160:C:/Workspaces/DAVE-4.4.2-64Bit/_PKDS_TSTS06_STAND/Dave/Generated/DIGITAL_IO\digital_io.h **** * @code
 161:C:/Workspaces/DAVE-4.4.2-64Bit/_PKDS_TSTS06_STAND/Dave/Generated/DIGITAL_IO\digital_io.h **** * #include "DAVE.h"
 162:C:/Workspaces/DAVE-4.4.2-64Bit/_PKDS_TSTS06_STAND/Dave/Generated/DIGITAL_IO\digital_io.h **** *
 163:C:/Workspaces/DAVE-4.4.2-64Bit/_PKDS_TSTS06_STAND/Dave/Generated/DIGITAL_IO\digital_io.h **** * int main(void)
 164:C:/Workspaces/DAVE-4.4.2-64Bit/_PKDS_TSTS06_STAND/Dave/Generated/DIGITAL_IO\digital_io.h **** * {
 165:C:/Workspaces/DAVE-4.4.2-64Bit/_PKDS_TSTS06_STAND/Dave/Generated/DIGITAL_IO\digital_io.h **** *   DAVE_STATUS_t init_status;
 166:C:/Workspaces/DAVE-4.4.2-64Bit/_PKDS_TSTS06_STAND/Dave/Generated/DIGITAL_IO\digital_io.h **** *   DAVE_APP_VERSION_t version;
 167:C:/Workspaces/DAVE-4.4.2-64Bit/_PKDS_TSTS06_STAND/Dave/Generated/DIGITAL_IO\digital_io.h **** *
 168:C:/Workspaces/DAVE-4.4.2-64Bit/_PKDS_TSTS06_STAND/Dave/Generated/DIGITAL_IO\digital_io.h **** *   // Initialize DIGITAL_IO APP:
 169:C:/Workspaces/DAVE-4.4.2-64Bit/_PKDS_TSTS06_STAND/Dave/Generated/DIGITAL_IO\digital_io.h **** *   // DIGITAL_IO_Init() is called from within DAVE_Init().
 170:C:/Workspaces/DAVE-4.4.2-64Bit/_PKDS_TSTS06_STAND/Dave/Generated/DIGITAL_IO\digital_io.h **** *   init_status = DAVE_Init();
 171:C:/Workspaces/DAVE-4.4.2-64Bit/_PKDS_TSTS06_STAND/Dave/Generated/DIGITAL_IO\digital_io.h **** *   if(init_status == DAVE_STATUS_SUCCESS)
 172:C:/Workspaces/DAVE-4.4.2-64Bit/_PKDS_TSTS06_STAND/Dave/Generated/DIGITAL_IO\digital_io.h **** *   {
 173:C:/Workspaces/DAVE-4.4.2-64Bit/_PKDS_TSTS06_STAND/Dave/Generated/DIGITAL_IO\digital_io.h **** *     version = DIGITAL_IO_GetAppVersion();
 174:C:/Workspaces/DAVE-4.4.2-64Bit/_PKDS_TSTS06_STAND/Dave/Generated/DIGITAL_IO\digital_io.h **** *     if (version.major != 4U) {
 175:C:/Workspaces/DAVE-4.4.2-64Bit/_PKDS_TSTS06_STAND/Dave/Generated/DIGITAL_IO\digital_io.h **** *     // Probably, not the right version.
 176:C:/Workspaces/DAVE-4.4.2-64Bit/_PKDS_TSTS06_STAND/Dave/Generated/DIGITAL_IO\digital_io.h **** *     }
 177:C:/Workspaces/DAVE-4.4.2-64Bit/_PKDS_TSTS06_STAND/Dave/Generated/DIGITAL_IO\digital_io.h **** *   }
 178:C:/Workspaces/DAVE-4.4.2-64Bit/_PKDS_TSTS06_STAND/Dave/Generated/DIGITAL_IO\digital_io.h **** *
 179:C:/Workspaces/DAVE-4.4.2-64Bit/_PKDS_TSTS06_STAND/Dave/Generated/DIGITAL_IO\digital_io.h **** *     // More code here
 180:C:/Workspaces/DAVE-4.4.2-64Bit/_PKDS_TSTS06_STAND/Dave/Generated/DIGITAL_IO\digital_io.h **** *     while(1) {
 181:C:/Workspaces/DAVE-4.4.2-64Bit/_PKDS_TSTS06_STAND/Dave/Generated/DIGITAL_IO\digital_io.h **** *
 182:C:/Workspaces/DAVE-4.4.2-64Bit/_PKDS_TSTS06_STAND/Dave/Generated/DIGITAL_IO\digital_io.h **** *     }
 183:C:/Workspaces/DAVE-4.4.2-64Bit/_PKDS_TSTS06_STAND/Dave/Generated/DIGITAL_IO\digital_io.h **** *     return (1);
 184:C:/Workspaces/DAVE-4.4.2-64Bit/_PKDS_TSTS06_STAND/Dave/Generated/DIGITAL_IO\digital_io.h **** *  }
 185:C:/Workspaces/DAVE-4.4.2-64Bit/_PKDS_TSTS06_STAND/Dave/Generated/DIGITAL_IO\digital_io.h **** * @endcode<BR>
 186:C:/Workspaces/DAVE-4.4.2-64Bit/_PKDS_TSTS06_STAND/Dave/Generated/DIGITAL_IO\digital_io.h **** */
 187:C:/Workspaces/DAVE-4.4.2-64Bit/_PKDS_TSTS06_STAND/Dave/Generated/DIGITAL_IO\digital_io.h **** 
 188:C:/Workspaces/DAVE-4.4.2-64Bit/_PKDS_TSTS06_STAND/Dave/Generated/DIGITAL_IO\digital_io.h **** DAVE_APP_VERSION_t DIGITAL_IO_GetAppVersion(void);
 189:C:/Workspaces/DAVE-4.4.2-64Bit/_PKDS_TSTS06_STAND/Dave/Generated/DIGITAL_IO\digital_io.h **** 
 190:C:/Workspaces/DAVE-4.4.2-64Bit/_PKDS_TSTS06_STAND/Dave/Generated/DIGITAL_IO\digital_io.h **** /**
 191:C:/Workspaces/DAVE-4.4.2-64Bit/_PKDS_TSTS06_STAND/Dave/Generated/DIGITAL_IO\digital_io.h **** *
 192:C:/Workspaces/DAVE-4.4.2-64Bit/_PKDS_TSTS06_STAND/Dave/Generated/DIGITAL_IO\digital_io.h **** * @brief Function to initialize the port pin as per UI settings.
 193:C:/Workspaces/DAVE-4.4.2-64Bit/_PKDS_TSTS06_STAND/Dave/Generated/DIGITAL_IO\digital_io.h **** * @param handler Pointer pointing to APP data structure. Refer @ref DIGITAL_IO_t for details.
 194:C:/Workspaces/DAVE-4.4.2-64Bit/_PKDS_TSTS06_STAND/Dave/Generated/DIGITAL_IO\digital_io.h **** * @return DIGITAL_IO_STATUS_t DIGITAL_IO APP status. Refer @ref DIGITAL_IO_STATUS_t structure for d
 195:C:/Workspaces/DAVE-4.4.2-64Bit/_PKDS_TSTS06_STAND/Dave/Generated/DIGITAL_IO\digital_io.h **** *
 196:C:/Workspaces/DAVE-4.4.2-64Bit/_PKDS_TSTS06_STAND/Dave/Generated/DIGITAL_IO\digital_io.h **** * \par<b>Description:</b><br>
 197:C:/Workspaces/DAVE-4.4.2-64Bit/_PKDS_TSTS06_STAND/Dave/Generated/DIGITAL_IO\digital_io.h **** * This function initializes GPIO port registers IOCR,PDISC,OMR,PDR/PHCR to configure pin direction,
 198:C:/Workspaces/DAVE-4.4.2-64Bit/_PKDS_TSTS06_STAND/Dave/Generated/DIGITAL_IO\digital_io.h **** * and pad driver strength/hysteresis.
 199:C:/Workspaces/DAVE-4.4.2-64Bit/_PKDS_TSTS06_STAND/Dave/Generated/DIGITAL_IO\digital_io.h **** *
 200:C:/Workspaces/DAVE-4.4.2-64Bit/_PKDS_TSTS06_STAND/Dave/Generated/DIGITAL_IO\digital_io.h **** * \par<b>Related APIs:</b><BR>
 201:C:/Workspaces/DAVE-4.4.2-64Bit/_PKDS_TSTS06_STAND/Dave/Generated/DIGITAL_IO\digital_io.h **** * None
 202:C:/Workspaces/DAVE-4.4.2-64Bit/_PKDS_TSTS06_STAND/Dave/Generated/DIGITAL_IO\digital_io.h **** *
 203:C:/Workspaces/DAVE-4.4.2-64Bit/_PKDS_TSTS06_STAND/Dave/Generated/DIGITAL_IO\digital_io.h **** * Example Usage:
 204:C:/Workspaces/DAVE-4.4.2-64Bit/_PKDS_TSTS06_STAND/Dave/Generated/DIGITAL_IO\digital_io.h **** * @code
 205:C:/Workspaces/DAVE-4.4.2-64Bit/_PKDS_TSTS06_STAND/Dave/Generated/DIGITAL_IO\digital_io.h **** * #include "DAVE.h" //Declarations from DAVE Code Generation (includes SFR declaration)
 206:C:/Workspaces/DAVE-4.4.2-64Bit/_PKDS_TSTS06_STAND/Dave/Generated/DIGITAL_IO\digital_io.h **** *
 207:C:/Workspaces/DAVE-4.4.2-64Bit/_PKDS_TSTS06_STAND/Dave/Generated/DIGITAL_IO\digital_io.h **** * int main(void)
 208:C:/Workspaces/DAVE-4.4.2-64Bit/_PKDS_TSTS06_STAND/Dave/Generated/DIGITAL_IO\digital_io.h **** * {
 209:C:/Workspaces/DAVE-4.4.2-64Bit/_PKDS_TSTS06_STAND/Dave/Generated/DIGITAL_IO\digital_io.h **** *   DAVE_STATUS_t status;
 210:C:/Workspaces/DAVE-4.4.2-64Bit/_PKDS_TSTS06_STAND/Dave/Generated/DIGITAL_IO\digital_io.h **** *   status = DAVE_Init();  //(DAVE_STATUS_t)DIGITAL_IO_Init(&DIGITAL_IO_0) is called within DAVE_In
 211:C:/Workspaces/DAVE-4.4.2-64Bit/_PKDS_TSTS06_STAND/Dave/Generated/DIGITAL_IO\digital_io.h **** *   if(status == DAVE_STATUS_SUCCESS)
 212:C:/Workspaces/DAVE-4.4.2-64Bit/_PKDS_TSTS06_STAND/Dave/Generated/DIGITAL_IO\digital_io.h **** *   {
 213:C:/Workspaces/DAVE-4.4.2-64Bit/_PKDS_TSTS06_STAND/Dave/Generated/DIGITAL_IO\digital_io.h **** *     XMC_DEBUG("DAVE Apps initialization success\n");
 214:C:/Workspaces/DAVE-4.4.2-64Bit/_PKDS_TSTS06_STAND/Dave/Generated/DIGITAL_IO\digital_io.h **** *   }
 215:C:/Workspaces/DAVE-4.4.2-64Bit/_PKDS_TSTS06_STAND/Dave/Generated/DIGITAL_IO\digital_io.h **** *   else
 216:C:/Workspaces/DAVE-4.4.2-64Bit/_PKDS_TSTS06_STAND/Dave/Generated/DIGITAL_IO\digital_io.h **** *   {
 217:C:/Workspaces/DAVE-4.4.2-64Bit/_PKDS_TSTS06_STAND/Dave/Generated/DIGITAL_IO\digital_io.h **** *     XMC_DEBUG(("DAVE Apps initialization failed with status %d\n", status));
 218:C:/Workspaces/DAVE-4.4.2-64Bit/_PKDS_TSTS06_STAND/Dave/Generated/DIGITAL_IO\digital_io.h **** *     while(1U)
 219:C:/Workspaces/DAVE-4.4.2-64Bit/_PKDS_TSTS06_STAND/Dave/Generated/DIGITAL_IO\digital_io.h **** *     {
 220:C:/Workspaces/DAVE-4.4.2-64Bit/_PKDS_TSTS06_STAND/Dave/Generated/DIGITAL_IO\digital_io.h **** *     }
 221:C:/Workspaces/DAVE-4.4.2-64Bit/_PKDS_TSTS06_STAND/Dave/Generated/DIGITAL_IO\digital_io.h **** *   }
 222:C:/Workspaces/DAVE-4.4.2-64Bit/_PKDS_TSTS06_STAND/Dave/Generated/DIGITAL_IO\digital_io.h **** *   //Placeholder for user application code. The while loop below can be replaced with user applica
 223:C:/Workspaces/DAVE-4.4.2-64Bit/_PKDS_TSTS06_STAND/Dave/Generated/DIGITAL_IO\digital_io.h **** *   while(1U)
 224:C:/Workspaces/DAVE-4.4.2-64Bit/_PKDS_TSTS06_STAND/Dave/Generated/DIGITAL_IO\digital_io.h **** *   {
 225:C:/Workspaces/DAVE-4.4.2-64Bit/_PKDS_TSTS06_STAND/Dave/Generated/DIGITAL_IO\digital_io.h **** *   }
 226:C:/Workspaces/DAVE-4.4.2-64Bit/_PKDS_TSTS06_STAND/Dave/Generated/DIGITAL_IO\digital_io.h **** *   return 1U;
 227:C:/Workspaces/DAVE-4.4.2-64Bit/_PKDS_TSTS06_STAND/Dave/Generated/DIGITAL_IO\digital_io.h **** *  }
 228:C:/Workspaces/DAVE-4.4.2-64Bit/_PKDS_TSTS06_STAND/Dave/Generated/DIGITAL_IO\digital_io.h **** *  @endcode
 229:C:/Workspaces/DAVE-4.4.2-64Bit/_PKDS_TSTS06_STAND/Dave/Generated/DIGITAL_IO\digital_io.h **** */
 230:C:/Workspaces/DAVE-4.4.2-64Bit/_PKDS_TSTS06_STAND/Dave/Generated/DIGITAL_IO\digital_io.h **** 
 231:C:/Workspaces/DAVE-4.4.2-64Bit/_PKDS_TSTS06_STAND/Dave/Generated/DIGITAL_IO\digital_io.h **** DIGITAL_IO_STATUS_t DIGITAL_IO_Init(const DIGITAL_IO_t *const handler);
 232:C:/Workspaces/DAVE-4.4.2-64Bit/_PKDS_TSTS06_STAND/Dave/Generated/DIGITAL_IO\digital_io.h **** 
 233:C:/Workspaces/DAVE-4.4.2-64Bit/_PKDS_TSTS06_STAND/Dave/Generated/DIGITAL_IO\digital_io.h **** /**
 234:C:/Workspaces/DAVE-4.4.2-64Bit/_PKDS_TSTS06_STAND/Dave/Generated/DIGITAL_IO\digital_io.h **** *
 235:C:/Workspaces/DAVE-4.4.2-64Bit/_PKDS_TSTS06_STAND/Dave/Generated/DIGITAL_IO\digital_io.h **** * @brief Function to set port pin high.
 236:C:/Workspaces/DAVE-4.4.2-64Bit/_PKDS_TSTS06_STAND/Dave/Generated/DIGITAL_IO\digital_io.h **** * @param handler Pointer pointing to APP data structure. Refer @ref DIGITAL_IO_t for details.
 237:C:/Workspaces/DAVE-4.4.2-64Bit/_PKDS_TSTS06_STAND/Dave/Generated/DIGITAL_IO\digital_io.h **** * @return None
 238:C:/Workspaces/DAVE-4.4.2-64Bit/_PKDS_TSTS06_STAND/Dave/Generated/DIGITAL_IO\digital_io.h **** *
 239:C:/Workspaces/DAVE-4.4.2-64Bit/_PKDS_TSTS06_STAND/Dave/Generated/DIGITAL_IO\digital_io.h **** * \par<b>Description:</b><br>
 240:C:/Workspaces/DAVE-4.4.2-64Bit/_PKDS_TSTS06_STAND/Dave/Generated/DIGITAL_IO\digital_io.h **** * This function configures port output modification register Pn_OMR, to make port pin to high level
 241:C:/Workspaces/DAVE-4.4.2-64Bit/_PKDS_TSTS06_STAND/Dave/Generated/DIGITAL_IO\digital_io.h **** *
 242:C:/Workspaces/DAVE-4.4.2-64Bit/_PKDS_TSTS06_STAND/Dave/Generated/DIGITAL_IO\digital_io.h **** * \par<b>Related APIs:</b><BR>
 243:C:/Workspaces/DAVE-4.4.2-64Bit/_PKDS_TSTS06_STAND/Dave/Generated/DIGITAL_IO\digital_io.h **** *  DIGITAL_IO_SetOutputLow()
 244:C:/Workspaces/DAVE-4.4.2-64Bit/_PKDS_TSTS06_STAND/Dave/Generated/DIGITAL_IO\digital_io.h **** *
 245:C:/Workspaces/DAVE-4.4.2-64Bit/_PKDS_TSTS06_STAND/Dave/Generated/DIGITAL_IO\digital_io.h **** * Example Usage:
 246:C:/Workspaces/DAVE-4.4.2-64Bit/_PKDS_TSTS06_STAND/Dave/Generated/DIGITAL_IO\digital_io.h **** * @code
 247:C:/Workspaces/DAVE-4.4.2-64Bit/_PKDS_TSTS06_STAND/Dave/Generated/DIGITAL_IO\digital_io.h **** * #include "DAVE.h" //Declarations from DAVE Code Generation (includes SFR declaration)
 248:C:/Workspaces/DAVE-4.4.2-64Bit/_PKDS_TSTS06_STAND/Dave/Generated/DIGITAL_IO\digital_io.h **** *
 249:C:/Workspaces/DAVE-4.4.2-64Bit/_PKDS_TSTS06_STAND/Dave/Generated/DIGITAL_IO\digital_io.h **** * int main(void)
 250:C:/Workspaces/DAVE-4.4.2-64Bit/_PKDS_TSTS06_STAND/Dave/Generated/DIGITAL_IO\digital_io.h **** * {
 251:C:/Workspaces/DAVE-4.4.2-64Bit/_PKDS_TSTS06_STAND/Dave/Generated/DIGITAL_IO\digital_io.h **** *   DAVE_STATUS_t status;
 252:C:/Workspaces/DAVE-4.4.2-64Bit/_PKDS_TSTS06_STAND/Dave/Generated/DIGITAL_IO\digital_io.h **** *   status = DAVE_Init();  //(DAVE_STATUS_t)DIGITAL_IO_Init(&DIGITAL_IO_0) is called within DAVE_In
 253:C:/Workspaces/DAVE-4.4.2-64Bit/_PKDS_TSTS06_STAND/Dave/Generated/DIGITAL_IO\digital_io.h **** *   if(status == DAVE_STATUS_SUCCESS)
 254:C:/Workspaces/DAVE-4.4.2-64Bit/_PKDS_TSTS06_STAND/Dave/Generated/DIGITAL_IO\digital_io.h **** *   {
 255:C:/Workspaces/DAVE-4.4.2-64Bit/_PKDS_TSTS06_STAND/Dave/Generated/DIGITAL_IO\digital_io.h **** *     XMC_DEBUG("DAVE Apps initialization success\n");
 256:C:/Workspaces/DAVE-4.4.2-64Bit/_PKDS_TSTS06_STAND/Dave/Generated/DIGITAL_IO\digital_io.h **** *   }
 257:C:/Workspaces/DAVE-4.4.2-64Bit/_PKDS_TSTS06_STAND/Dave/Generated/DIGITAL_IO\digital_io.h **** *   else
 258:C:/Workspaces/DAVE-4.4.2-64Bit/_PKDS_TSTS06_STAND/Dave/Generated/DIGITAL_IO\digital_io.h **** *   {
 259:C:/Workspaces/DAVE-4.4.2-64Bit/_PKDS_TSTS06_STAND/Dave/Generated/DIGITAL_IO\digital_io.h **** *     XMC_DEBUG(("DAVE Apps initialization failed with status %d\n", status));
 260:C:/Workspaces/DAVE-4.4.2-64Bit/_PKDS_TSTS06_STAND/Dave/Generated/DIGITAL_IO\digital_io.h **** *     while(1U)
 261:C:/Workspaces/DAVE-4.4.2-64Bit/_PKDS_TSTS06_STAND/Dave/Generated/DIGITAL_IO\digital_io.h **** *     {
 262:C:/Workspaces/DAVE-4.4.2-64Bit/_PKDS_TSTS06_STAND/Dave/Generated/DIGITAL_IO\digital_io.h **** *     }
 263:C:/Workspaces/DAVE-4.4.2-64Bit/_PKDS_TSTS06_STAND/Dave/Generated/DIGITAL_IO\digital_io.h **** *   }
 264:C:/Workspaces/DAVE-4.4.2-64Bit/_PKDS_TSTS06_STAND/Dave/Generated/DIGITAL_IO\digital_io.h **** *   //Placeholder for user application code. The while loop below can be replaced with user applica
 265:C:/Workspaces/DAVE-4.4.2-64Bit/_PKDS_TSTS06_STAND/Dave/Generated/DIGITAL_IO\digital_io.h **** *   DIGITAL_IO_SetOutputHigh(&DIGITAL_IO_0);
 266:C:/Workspaces/DAVE-4.4.2-64Bit/_PKDS_TSTS06_STAND/Dave/Generated/DIGITAL_IO\digital_io.h **** *   while(1U)
 267:C:/Workspaces/DAVE-4.4.2-64Bit/_PKDS_TSTS06_STAND/Dave/Generated/DIGITAL_IO\digital_io.h **** *   {
 268:C:/Workspaces/DAVE-4.4.2-64Bit/_PKDS_TSTS06_STAND/Dave/Generated/DIGITAL_IO\digital_io.h **** *     // Add application code here
 269:C:/Workspaces/DAVE-4.4.2-64Bit/_PKDS_TSTS06_STAND/Dave/Generated/DIGITAL_IO\digital_io.h **** *   }
 270:C:/Workspaces/DAVE-4.4.2-64Bit/_PKDS_TSTS06_STAND/Dave/Generated/DIGITAL_IO\digital_io.h **** *
 271:C:/Workspaces/DAVE-4.4.2-64Bit/_PKDS_TSTS06_STAND/Dave/Generated/DIGITAL_IO\digital_io.h **** *   return (1);
 272:C:/Workspaces/DAVE-4.4.2-64Bit/_PKDS_TSTS06_STAND/Dave/Generated/DIGITAL_IO\digital_io.h **** * }
 273:C:/Workspaces/DAVE-4.4.2-64Bit/_PKDS_TSTS06_STAND/Dave/Generated/DIGITAL_IO\digital_io.h **** *  @endcode
 274:C:/Workspaces/DAVE-4.4.2-64Bit/_PKDS_TSTS06_STAND/Dave/Generated/DIGITAL_IO\digital_io.h **** */
 275:C:/Workspaces/DAVE-4.4.2-64Bit/_PKDS_TSTS06_STAND/Dave/Generated/DIGITAL_IO\digital_io.h **** 
 276:C:/Workspaces/DAVE-4.4.2-64Bit/_PKDS_TSTS06_STAND/Dave/Generated/DIGITAL_IO\digital_io.h **** __STATIC_INLINE void DIGITAL_IO_SetOutputHigh(const DIGITAL_IO_t *const handler)
 277:C:/Workspaces/DAVE-4.4.2-64Bit/_PKDS_TSTS06_STAND/Dave/Generated/DIGITAL_IO\digital_io.h **** {
 183              	 .loc 2 277 1
 184              	 .cfi_startproc
 185              	 
 186              	 
 187 0000 80B5     	 push {r7,lr}
 188              	.LCFI18:
 189              	 .cfi_def_cfa_offset 8
 190              	 .cfi_offset 7,-8
 191              	 .cfi_offset 14,-4
 192 0002 82B0     	 sub sp,sp,#8
 193              	.LCFI19:
 194              	 .cfi_def_cfa_offset 16
 195 0004 00AF     	 add r7,sp,#0
 196              	.LCFI20:
 197              	 .cfi_def_cfa_register 7
 198 0006 7860     	 str r0,[r7,#4]
 278:C:/Workspaces/DAVE-4.4.2-64Bit/_PKDS_TSTS06_STAND/Dave/Generated/DIGITAL_IO\digital_io.h ****   XMC_ASSERT("DIGITAL_IO_SetOutputHigh: handler null pointer", handler != NULL);
 279:C:/Workspaces/DAVE-4.4.2-64Bit/_PKDS_TSTS06_STAND/Dave/Generated/DIGITAL_IO\digital_io.h ****   XMC_GPIO_SetOutputHigh(handler->gpio_port, handler->gpio_pin);
 199              	 .loc 2 279 3
 200 0008 7B68     	 ldr r3,[r7,#4]
 201 000a 1A68     	 ldr r2,[r3]
 202 000c 7B68     	 ldr r3,[r7,#4]
 203 000e 1B7C     	 ldrb r3,[r3,#16]
 204 0010 1946     	 mov r1,r3
 205 0012 1046     	 mov r0,r2
 206 0014 FFF7FEFF 	 bl XMC_GPIO_SetOutputHigh
 280:C:/Workspaces/DAVE-4.4.2-64Bit/_PKDS_TSTS06_STAND/Dave/Generated/DIGITAL_IO\digital_io.h **** }
 207              	 .loc 2 280 1
 208 0018 00BF     	 nop
 209 001a 0837     	 adds r7,r7,#8
 210              	.LCFI21:
 211              	 .cfi_def_cfa_offset 8
 212 001c BD46     	 mov sp,r7
 213              	.LCFI22:
 214              	 .cfi_def_cfa_register 13
 215              	 
 216 001e 80BD     	 pop {r7,pc}
 217              	 .cfi_endproc
 218              	.LFE143:
 220              	 .section .text.DIGITAL_IO_SetOutputLow,"ax",%progbits
 221              	 .align 1
 222              	 .syntax unified
 223              	 .thumb
 224              	 .thumb_func
 225              	 .fpu fpv4-sp-d16
 227              	DIGITAL_IO_SetOutputLow:
 228              	.LFB144:
 281:C:/Workspaces/DAVE-4.4.2-64Bit/_PKDS_TSTS06_STAND/Dave/Generated/DIGITAL_IO\digital_io.h **** 
 282:C:/Workspaces/DAVE-4.4.2-64Bit/_PKDS_TSTS06_STAND/Dave/Generated/DIGITAL_IO\digital_io.h **** /**
 283:C:/Workspaces/DAVE-4.4.2-64Bit/_PKDS_TSTS06_STAND/Dave/Generated/DIGITAL_IO\digital_io.h **** * @brief Function to reset port pin.
 284:C:/Workspaces/DAVE-4.4.2-64Bit/_PKDS_TSTS06_STAND/Dave/Generated/DIGITAL_IO\digital_io.h **** * @param handler Pointer pointing to APP data structure. Refer @ref DIGITAL_IO_t for details.
 285:C:/Workspaces/DAVE-4.4.2-64Bit/_PKDS_TSTS06_STAND/Dave/Generated/DIGITAL_IO\digital_io.h **** * @return None
 286:C:/Workspaces/DAVE-4.4.2-64Bit/_PKDS_TSTS06_STAND/Dave/Generated/DIGITAL_IO\digital_io.h **** *
 287:C:/Workspaces/DAVE-4.4.2-64Bit/_PKDS_TSTS06_STAND/Dave/Generated/DIGITAL_IO\digital_io.h **** * \par<b>Description:</b><br>
 288:C:/Workspaces/DAVE-4.4.2-64Bit/_PKDS_TSTS06_STAND/Dave/Generated/DIGITAL_IO\digital_io.h **** * This function configures port output modification register Pn_OMR, to make port pin to low level.
 289:C:/Workspaces/DAVE-4.4.2-64Bit/_PKDS_TSTS06_STAND/Dave/Generated/DIGITAL_IO\digital_io.h **** *
 290:C:/Workspaces/DAVE-4.4.2-64Bit/_PKDS_TSTS06_STAND/Dave/Generated/DIGITAL_IO\digital_io.h **** * \par<b>Related APIs:</b><BR>
 291:C:/Workspaces/DAVE-4.4.2-64Bit/_PKDS_TSTS06_STAND/Dave/Generated/DIGITAL_IO\digital_io.h **** * DIGITAL_IO_SetOutputHigh()
 292:C:/Workspaces/DAVE-4.4.2-64Bit/_PKDS_TSTS06_STAND/Dave/Generated/DIGITAL_IO\digital_io.h **** *
 293:C:/Workspaces/DAVE-4.4.2-64Bit/_PKDS_TSTS06_STAND/Dave/Generated/DIGITAL_IO\digital_io.h **** * Example Usage:
 294:C:/Workspaces/DAVE-4.4.2-64Bit/_PKDS_TSTS06_STAND/Dave/Generated/DIGITAL_IO\digital_io.h **** * @code
 295:C:/Workspaces/DAVE-4.4.2-64Bit/_PKDS_TSTS06_STAND/Dave/Generated/DIGITAL_IO\digital_io.h **** *  #include "DAVE.h" //Declarations from DAVE Code Generation (includes SFR declaration)
 296:C:/Workspaces/DAVE-4.4.2-64Bit/_PKDS_TSTS06_STAND/Dave/Generated/DIGITAL_IO\digital_io.h **** *
 297:C:/Workspaces/DAVE-4.4.2-64Bit/_PKDS_TSTS06_STAND/Dave/Generated/DIGITAL_IO\digital_io.h **** *  int main(void)
 298:C:/Workspaces/DAVE-4.4.2-64Bit/_PKDS_TSTS06_STAND/Dave/Generated/DIGITAL_IO\digital_io.h **** *  {
 299:C:/Workspaces/DAVE-4.4.2-64Bit/_PKDS_TSTS06_STAND/Dave/Generated/DIGITAL_IO\digital_io.h **** *    DAVE_STATUS_t status;
 300:C:/Workspaces/DAVE-4.4.2-64Bit/_PKDS_TSTS06_STAND/Dave/Generated/DIGITAL_IO\digital_io.h **** *    status = DAVE_Init();  //(DAVE_STATUS_t)DIGITAL_IO_Init(&DIGITAL_IO_0) is called within DAVE_I
 301:C:/Workspaces/DAVE-4.4.2-64Bit/_PKDS_TSTS06_STAND/Dave/Generated/DIGITAL_IO\digital_io.h **** *    if(status == DAVE_STATUS_SUCCESS)
 302:C:/Workspaces/DAVE-4.4.2-64Bit/_PKDS_TSTS06_STAND/Dave/Generated/DIGITAL_IO\digital_io.h **** *    {
 303:C:/Workspaces/DAVE-4.4.2-64Bit/_PKDS_TSTS06_STAND/Dave/Generated/DIGITAL_IO\digital_io.h **** *      XMC_DEBUG("DAVE Apps initialization success\n");
 304:C:/Workspaces/DAVE-4.4.2-64Bit/_PKDS_TSTS06_STAND/Dave/Generated/DIGITAL_IO\digital_io.h **** *    }
 305:C:/Workspaces/DAVE-4.4.2-64Bit/_PKDS_TSTS06_STAND/Dave/Generated/DIGITAL_IO\digital_io.h **** *    else
 306:C:/Workspaces/DAVE-4.4.2-64Bit/_PKDS_TSTS06_STAND/Dave/Generated/DIGITAL_IO\digital_io.h **** *    {
 307:C:/Workspaces/DAVE-4.4.2-64Bit/_PKDS_TSTS06_STAND/Dave/Generated/DIGITAL_IO\digital_io.h **** *      XMC_DEBUG(("DAVE Apps initialization failed with status %d\n", status));
 308:C:/Workspaces/DAVE-4.4.2-64Bit/_PKDS_TSTS06_STAND/Dave/Generated/DIGITAL_IO\digital_io.h **** *      while(1U)
 309:C:/Workspaces/DAVE-4.4.2-64Bit/_PKDS_TSTS06_STAND/Dave/Generated/DIGITAL_IO\digital_io.h **** *      {
 310:C:/Workspaces/DAVE-4.4.2-64Bit/_PKDS_TSTS06_STAND/Dave/Generated/DIGITAL_IO\digital_io.h **** *      }
 311:C:/Workspaces/DAVE-4.4.2-64Bit/_PKDS_TSTS06_STAND/Dave/Generated/DIGITAL_IO\digital_io.h **** *    }
 312:C:/Workspaces/DAVE-4.4.2-64Bit/_PKDS_TSTS06_STAND/Dave/Generated/DIGITAL_IO\digital_io.h **** *    //Placeholder for user application code. The while loop below can be replaced with user applic
 313:C:/Workspaces/DAVE-4.4.2-64Bit/_PKDS_TSTS06_STAND/Dave/Generated/DIGITAL_IO\digital_io.h **** *    DIGITAL_IO_SetOutputLow(&DIGITAL_IO_0);
 314:C:/Workspaces/DAVE-4.4.2-64Bit/_PKDS_TSTS06_STAND/Dave/Generated/DIGITAL_IO\digital_io.h **** *    while(1U)
 315:C:/Workspaces/DAVE-4.4.2-64Bit/_PKDS_TSTS06_STAND/Dave/Generated/DIGITAL_IO\digital_io.h **** *    {
 316:C:/Workspaces/DAVE-4.4.2-64Bit/_PKDS_TSTS06_STAND/Dave/Generated/DIGITAL_IO\digital_io.h **** *      // Add application code here
 317:C:/Workspaces/DAVE-4.4.2-64Bit/_PKDS_TSTS06_STAND/Dave/Generated/DIGITAL_IO\digital_io.h **** *    }
 318:C:/Workspaces/DAVE-4.4.2-64Bit/_PKDS_TSTS06_STAND/Dave/Generated/DIGITAL_IO\digital_io.h **** *
 319:C:/Workspaces/DAVE-4.4.2-64Bit/_PKDS_TSTS06_STAND/Dave/Generated/DIGITAL_IO\digital_io.h **** *   return (1);
 320:C:/Workspaces/DAVE-4.4.2-64Bit/_PKDS_TSTS06_STAND/Dave/Generated/DIGITAL_IO\digital_io.h **** * }
 321:C:/Workspaces/DAVE-4.4.2-64Bit/_PKDS_TSTS06_STAND/Dave/Generated/DIGITAL_IO\digital_io.h **** *  @endcode
 322:C:/Workspaces/DAVE-4.4.2-64Bit/_PKDS_TSTS06_STAND/Dave/Generated/DIGITAL_IO\digital_io.h **** */
 323:C:/Workspaces/DAVE-4.4.2-64Bit/_PKDS_TSTS06_STAND/Dave/Generated/DIGITAL_IO\digital_io.h **** 
 324:C:/Workspaces/DAVE-4.4.2-64Bit/_PKDS_TSTS06_STAND/Dave/Generated/DIGITAL_IO\digital_io.h **** __STATIC_INLINE void DIGITAL_IO_SetOutputLow(const DIGITAL_IO_t *const handler)
 325:C:/Workspaces/DAVE-4.4.2-64Bit/_PKDS_TSTS06_STAND/Dave/Generated/DIGITAL_IO\digital_io.h **** {
 229              	 .loc 2 325 1
 230              	 .cfi_startproc
 231              	 
 232              	 
 233 0000 80B5     	 push {r7,lr}
 234              	.LCFI23:
 235              	 .cfi_def_cfa_offset 8
 236              	 .cfi_offset 7,-8
 237              	 .cfi_offset 14,-4
 238 0002 82B0     	 sub sp,sp,#8
 239              	.LCFI24:
 240              	 .cfi_def_cfa_offset 16
 241 0004 00AF     	 add r7,sp,#0
 242              	.LCFI25:
 243              	 .cfi_def_cfa_register 7
 244 0006 7860     	 str r0,[r7,#4]
 326:C:/Workspaces/DAVE-4.4.2-64Bit/_PKDS_TSTS06_STAND/Dave/Generated/DIGITAL_IO\digital_io.h ****   XMC_ASSERT("DIGITAL_IO_SetOutputLow: handler null pointer", handler != NULL);
 327:C:/Workspaces/DAVE-4.4.2-64Bit/_PKDS_TSTS06_STAND/Dave/Generated/DIGITAL_IO\digital_io.h ****   XMC_GPIO_SetOutputLow(handler->gpio_port,handler->gpio_pin);
 245              	 .loc 2 327 3
 246 0008 7B68     	 ldr r3,[r7,#4]
 247 000a 1A68     	 ldr r2,[r3]
 248 000c 7B68     	 ldr r3,[r7,#4]
 249 000e 1B7C     	 ldrb r3,[r3,#16]
 250 0010 1946     	 mov r1,r3
 251 0012 1046     	 mov r0,r2
 252 0014 FFF7FEFF 	 bl XMC_GPIO_SetOutputLow
 328:C:/Workspaces/DAVE-4.4.2-64Bit/_PKDS_TSTS06_STAND/Dave/Generated/DIGITAL_IO\digital_io.h **** }
 253              	 .loc 2 328 1
 254 0018 00BF     	 nop
 255 001a 0837     	 adds r7,r7,#8
 256              	.LCFI26:
 257              	 .cfi_def_cfa_offset 8
 258 001c BD46     	 mov sp,r7
 259              	.LCFI27:
 260              	 .cfi_def_cfa_register 13
 261              	 
 262 001e 80BD     	 pop {r7,pc}
 263              	 .cfi_endproc
 264              	.LFE144:
 266              	 .section .text.DIGITAL_IO_GetInput,"ax",%progbits
 267              	 .align 1
 268              	 .syntax unified
 269              	 .thumb
 270              	 .thumb_func
 271              	 .fpu fpv4-sp-d16
 273              	DIGITAL_IO_GetInput:
 274              	.LFB146:
 329:C:/Workspaces/DAVE-4.4.2-64Bit/_PKDS_TSTS06_STAND/Dave/Generated/DIGITAL_IO\digital_io.h **** 
 330:C:/Workspaces/DAVE-4.4.2-64Bit/_PKDS_TSTS06_STAND/Dave/Generated/DIGITAL_IO\digital_io.h **** /**
 331:C:/Workspaces/DAVE-4.4.2-64Bit/_PKDS_TSTS06_STAND/Dave/Generated/DIGITAL_IO\digital_io.h **** * @brief Function to Toggle port pin.
 332:C:/Workspaces/DAVE-4.4.2-64Bit/_PKDS_TSTS06_STAND/Dave/Generated/DIGITAL_IO\digital_io.h **** * @param handler Pointer pointing to APP data structure. Refer @ref DIGITAL_IO_t for details.
 333:C:/Workspaces/DAVE-4.4.2-64Bit/_PKDS_TSTS06_STAND/Dave/Generated/DIGITAL_IO\digital_io.h **** * @return None
 334:C:/Workspaces/DAVE-4.4.2-64Bit/_PKDS_TSTS06_STAND/Dave/Generated/DIGITAL_IO\digital_io.h **** *
 335:C:/Workspaces/DAVE-4.4.2-64Bit/_PKDS_TSTS06_STAND/Dave/Generated/DIGITAL_IO\digital_io.h **** * \par<b>Description:</b><br>
 336:C:/Workspaces/DAVE-4.4.2-64Bit/_PKDS_TSTS06_STAND/Dave/Generated/DIGITAL_IO\digital_io.h **** * This function configures port output modification register Pn_OMR, to toggle port pin.
 337:C:/Workspaces/DAVE-4.4.2-64Bit/_PKDS_TSTS06_STAND/Dave/Generated/DIGITAL_IO\digital_io.h **** *
 338:C:/Workspaces/DAVE-4.4.2-64Bit/_PKDS_TSTS06_STAND/Dave/Generated/DIGITAL_IO\digital_io.h **** * \par<b>Related APIs:</b><BR>
 339:C:/Workspaces/DAVE-4.4.2-64Bit/_PKDS_TSTS06_STAND/Dave/Generated/DIGITAL_IO\digital_io.h **** * DIGITAL_IO_SetOutputLow(), DIGITAL_IO_SetOutputHigh()
 340:C:/Workspaces/DAVE-4.4.2-64Bit/_PKDS_TSTS06_STAND/Dave/Generated/DIGITAL_IO\digital_io.h **** *
 341:C:/Workspaces/DAVE-4.4.2-64Bit/_PKDS_TSTS06_STAND/Dave/Generated/DIGITAL_IO\digital_io.h **** * Example Usage:
 342:C:/Workspaces/DAVE-4.4.2-64Bit/_PKDS_TSTS06_STAND/Dave/Generated/DIGITAL_IO\digital_io.h **** *
 343:C:/Workspaces/DAVE-4.4.2-64Bit/_PKDS_TSTS06_STAND/Dave/Generated/DIGITAL_IO\digital_io.h **** * @code
 344:C:/Workspaces/DAVE-4.4.2-64Bit/_PKDS_TSTS06_STAND/Dave/Generated/DIGITAL_IO\digital_io.h **** * #include "DAVE.h" //Declarations from DAVE Code Generation (includes SFR declaration)
 345:C:/Workspaces/DAVE-4.4.2-64Bit/_PKDS_TSTS06_STAND/Dave/Generated/DIGITAL_IO\digital_io.h **** *
 346:C:/Workspaces/DAVE-4.4.2-64Bit/_PKDS_TSTS06_STAND/Dave/Generated/DIGITAL_IO\digital_io.h **** * int main(void)
 347:C:/Workspaces/DAVE-4.4.2-64Bit/_PKDS_TSTS06_STAND/Dave/Generated/DIGITAL_IO\digital_io.h **** * {
 348:C:/Workspaces/DAVE-4.4.2-64Bit/_PKDS_TSTS06_STAND/Dave/Generated/DIGITAL_IO\digital_io.h **** *   DAVE_STATUS_t status;
 349:C:/Workspaces/DAVE-4.4.2-64Bit/_PKDS_TSTS06_STAND/Dave/Generated/DIGITAL_IO\digital_io.h **** *   uint32_t delay_count;;
 350:C:/Workspaces/DAVE-4.4.2-64Bit/_PKDS_TSTS06_STAND/Dave/Generated/DIGITAL_IO\digital_io.h **** *   status = DAVE_Init();  //(DAVE_STATUS_t)DIGITAL_IO_Init(&DIGITAL_IO_0) is called within DAVE_In
 351:C:/Workspaces/DAVE-4.4.2-64Bit/_PKDS_TSTS06_STAND/Dave/Generated/DIGITAL_IO\digital_io.h **** *   if(status == DAVE_STATUS_SUCCESS)
 352:C:/Workspaces/DAVE-4.4.2-64Bit/_PKDS_TSTS06_STAND/Dave/Generated/DIGITAL_IO\digital_io.h **** *   {
 353:C:/Workspaces/DAVE-4.4.2-64Bit/_PKDS_TSTS06_STAND/Dave/Generated/DIGITAL_IO\digital_io.h **** *     XMC_DEBUG("DAVE Apps initialization success\n");
 354:C:/Workspaces/DAVE-4.4.2-64Bit/_PKDS_TSTS06_STAND/Dave/Generated/DIGITAL_IO\digital_io.h **** *   }
 355:C:/Workspaces/DAVE-4.4.2-64Bit/_PKDS_TSTS06_STAND/Dave/Generated/DIGITAL_IO\digital_io.h **** *   else
 356:C:/Workspaces/DAVE-4.4.2-64Bit/_PKDS_TSTS06_STAND/Dave/Generated/DIGITAL_IO\digital_io.h **** *   {
 357:C:/Workspaces/DAVE-4.4.2-64Bit/_PKDS_TSTS06_STAND/Dave/Generated/DIGITAL_IO\digital_io.h **** *      XMC_DEBUG(("DAVE Apps initialization failed with status %d\n", status));
 358:C:/Workspaces/DAVE-4.4.2-64Bit/_PKDS_TSTS06_STAND/Dave/Generated/DIGITAL_IO\digital_io.h **** *      while(1U)
 359:C:/Workspaces/DAVE-4.4.2-64Bit/_PKDS_TSTS06_STAND/Dave/Generated/DIGITAL_IO\digital_io.h **** *      {
 360:C:/Workspaces/DAVE-4.4.2-64Bit/_PKDS_TSTS06_STAND/Dave/Generated/DIGITAL_IO\digital_io.h **** *      }
 361:C:/Workspaces/DAVE-4.4.2-64Bit/_PKDS_TSTS06_STAND/Dave/Generated/DIGITAL_IO\digital_io.h **** *   }
 362:C:/Workspaces/DAVE-4.4.2-64Bit/_PKDS_TSTS06_STAND/Dave/Generated/DIGITAL_IO\digital_io.h **** *   //Placeholder for user application code. The while loop below can be replaced with user applica
 363:C:/Workspaces/DAVE-4.4.2-64Bit/_PKDS_TSTS06_STAND/Dave/Generated/DIGITAL_IO\digital_io.h **** *   while(1U)
 364:C:/Workspaces/DAVE-4.4.2-64Bit/_PKDS_TSTS06_STAND/Dave/Generated/DIGITAL_IO\digital_io.h **** *   {
 365:C:/Workspaces/DAVE-4.4.2-64Bit/_PKDS_TSTS06_STAND/Dave/Generated/DIGITAL_IO\digital_io.h **** *      DIGITAL_IO_ToggleOutput(&DIGITAL_IO_0); //toggles : 1 -> 0 (if initial output level is logic
 366:C:/Workspaces/DAVE-4.4.2-64Bit/_PKDS_TSTS06_STAND/Dave/Generated/DIGITAL_IO\digital_io.h **** *      //Add application code here
 367:C:/Workspaces/DAVE-4.4.2-64Bit/_PKDS_TSTS06_STAND/Dave/Generated/DIGITAL_IO\digital_io.h **** *      for(delay_count = 0;delay_count<0xfffff;delay_count++);
 368:C:/Workspaces/DAVE-4.4.2-64Bit/_PKDS_TSTS06_STAND/Dave/Generated/DIGITAL_IO\digital_io.h **** *      DIGITAL_IO_ToggleOutput(&DIGITAL_IO_0); //toggles : 0 -> 1
 369:C:/Workspaces/DAVE-4.4.2-64Bit/_PKDS_TSTS06_STAND/Dave/Generated/DIGITAL_IO\digital_io.h **** *      //Add application code here
 370:C:/Workspaces/DAVE-4.4.2-64Bit/_PKDS_TSTS06_STAND/Dave/Generated/DIGITAL_IO\digital_io.h **** *      for(delay_count = 0;delay_count<0xfffff;delay_count++);
 371:C:/Workspaces/DAVE-4.4.2-64Bit/_PKDS_TSTS06_STAND/Dave/Generated/DIGITAL_IO\digital_io.h **** *   }
 372:C:/Workspaces/DAVE-4.4.2-64Bit/_PKDS_TSTS06_STAND/Dave/Generated/DIGITAL_IO\digital_io.h **** *   return (1);
 373:C:/Workspaces/DAVE-4.4.2-64Bit/_PKDS_TSTS06_STAND/Dave/Generated/DIGITAL_IO\digital_io.h **** * }
 374:C:/Workspaces/DAVE-4.4.2-64Bit/_PKDS_TSTS06_STAND/Dave/Generated/DIGITAL_IO\digital_io.h **** *  @endcode
 375:C:/Workspaces/DAVE-4.4.2-64Bit/_PKDS_TSTS06_STAND/Dave/Generated/DIGITAL_IO\digital_io.h **** */
 376:C:/Workspaces/DAVE-4.4.2-64Bit/_PKDS_TSTS06_STAND/Dave/Generated/DIGITAL_IO\digital_io.h **** 
 377:C:/Workspaces/DAVE-4.4.2-64Bit/_PKDS_TSTS06_STAND/Dave/Generated/DIGITAL_IO\digital_io.h **** __STATIC_INLINE void DIGITAL_IO_ToggleOutput(const DIGITAL_IO_t *const handler)
 378:C:/Workspaces/DAVE-4.4.2-64Bit/_PKDS_TSTS06_STAND/Dave/Generated/DIGITAL_IO\digital_io.h **** {
 379:C:/Workspaces/DAVE-4.4.2-64Bit/_PKDS_TSTS06_STAND/Dave/Generated/DIGITAL_IO\digital_io.h ****   XMC_ASSERT("DIGITAL_IO_ToggleOutput: handler null pointer", handler != NULL);
 380:C:/Workspaces/DAVE-4.4.2-64Bit/_PKDS_TSTS06_STAND/Dave/Generated/DIGITAL_IO\digital_io.h ****   XMC_GPIO_ToggleOutput(handler->gpio_port, handler->gpio_pin);
 381:C:/Workspaces/DAVE-4.4.2-64Bit/_PKDS_TSTS06_STAND/Dave/Generated/DIGITAL_IO\digital_io.h **** }
 382:C:/Workspaces/DAVE-4.4.2-64Bit/_PKDS_TSTS06_STAND/Dave/Generated/DIGITAL_IO\digital_io.h **** 
 383:C:/Workspaces/DAVE-4.4.2-64Bit/_PKDS_TSTS06_STAND/Dave/Generated/DIGITAL_IO\digital_io.h **** /**
 384:C:/Workspaces/DAVE-4.4.2-64Bit/_PKDS_TSTS06_STAND/Dave/Generated/DIGITAL_IO\digital_io.h **** * @brief Function to read input level of port pin.
 385:C:/Workspaces/DAVE-4.4.2-64Bit/_PKDS_TSTS06_STAND/Dave/Generated/DIGITAL_IO\digital_io.h **** * @param handler Pointer pointing to APP data structure. Refer @ref DIGITAL_IO_t for details.
 386:C:/Workspaces/DAVE-4.4.2-64Bit/_PKDS_TSTS06_STAND/Dave/Generated/DIGITAL_IO\digital_io.h **** * @return uint32_t input logic level. Range:0-1
 387:C:/Workspaces/DAVE-4.4.2-64Bit/_PKDS_TSTS06_STAND/Dave/Generated/DIGITAL_IO\digital_io.h **** *
 388:C:/Workspaces/DAVE-4.4.2-64Bit/_PKDS_TSTS06_STAND/Dave/Generated/DIGITAL_IO\digital_io.h **** * \par<b>Description:</b><br>
 389:C:/Workspaces/DAVE-4.4.2-64Bit/_PKDS_TSTS06_STAND/Dave/Generated/DIGITAL_IO\digital_io.h **** * This function reads the Pn_IN register and returns the current logical value at the GPIO pin.
 390:C:/Workspaces/DAVE-4.4.2-64Bit/_PKDS_TSTS06_STAND/Dave/Generated/DIGITAL_IO\digital_io.h **** *
 391:C:/Workspaces/DAVE-4.4.2-64Bit/_PKDS_TSTS06_STAND/Dave/Generated/DIGITAL_IO\digital_io.h **** * \par<b>Related APIs:</b><BR>
 392:C:/Workspaces/DAVE-4.4.2-64Bit/_PKDS_TSTS06_STAND/Dave/Generated/DIGITAL_IO\digital_io.h **** *  None
 393:C:/Workspaces/DAVE-4.4.2-64Bit/_PKDS_TSTS06_STAND/Dave/Generated/DIGITAL_IO\digital_io.h **** *
 394:C:/Workspaces/DAVE-4.4.2-64Bit/_PKDS_TSTS06_STAND/Dave/Generated/DIGITAL_IO\digital_io.h **** * Example Usage:
 395:C:/Workspaces/DAVE-4.4.2-64Bit/_PKDS_TSTS06_STAND/Dave/Generated/DIGITAL_IO\digital_io.h **** * @code
 396:C:/Workspaces/DAVE-4.4.2-64Bit/_PKDS_TSTS06_STAND/Dave/Generated/DIGITAL_IO\digital_io.h **** * #include "DAVE.h" //Declarations from DAVE Code Generation (includes SFR declaration)
 397:C:/Workspaces/DAVE-4.4.2-64Bit/_PKDS_TSTS06_STAND/Dave/Generated/DIGITAL_IO\digital_io.h **** *
 398:C:/Workspaces/DAVE-4.4.2-64Bit/_PKDS_TSTS06_STAND/Dave/Generated/DIGITAL_IO\digital_io.h **** * int main(void)
 399:C:/Workspaces/DAVE-4.4.2-64Bit/_PKDS_TSTS06_STAND/Dave/Generated/DIGITAL_IO\digital_io.h **** * {
 400:C:/Workspaces/DAVE-4.4.2-64Bit/_PKDS_TSTS06_STAND/Dave/Generated/DIGITAL_IO\digital_io.h **** *   DAVE_STATUS_t status;
 401:C:/Workspaces/DAVE-4.4.2-64Bit/_PKDS_TSTS06_STAND/Dave/Generated/DIGITAL_IO\digital_io.h **** *   uint32_t pin_status;
 402:C:/Workspaces/DAVE-4.4.2-64Bit/_PKDS_TSTS06_STAND/Dave/Generated/DIGITAL_IO\digital_io.h **** *   status = DAVE_Init();   // (DAVE_STATUS_t)DIGITAL_IO_Init(&DIGITAL_IO_0) is called within DAVE_
 403:C:/Workspaces/DAVE-4.4.2-64Bit/_PKDS_TSTS06_STAND/Dave/Generated/DIGITAL_IO\digital_io.h **** *   if(status == DAVE_STATUS_SUCCESS)
 404:C:/Workspaces/DAVE-4.4.2-64Bit/_PKDS_TSTS06_STAND/Dave/Generated/DIGITAL_IO\digital_io.h **** *   {
 405:C:/Workspaces/DAVE-4.4.2-64Bit/_PKDS_TSTS06_STAND/Dave/Generated/DIGITAL_IO\digital_io.h **** *     XMC_DEBUG("DAVE Apps initialization success\n");
 406:C:/Workspaces/DAVE-4.4.2-64Bit/_PKDS_TSTS06_STAND/Dave/Generated/DIGITAL_IO\digital_io.h **** *   }
 407:C:/Workspaces/DAVE-4.4.2-64Bit/_PKDS_TSTS06_STAND/Dave/Generated/DIGITAL_IO\digital_io.h **** *   else
 408:C:/Workspaces/DAVE-4.4.2-64Bit/_PKDS_TSTS06_STAND/Dave/Generated/DIGITAL_IO\digital_io.h **** *   {
 409:C:/Workspaces/DAVE-4.4.2-64Bit/_PKDS_TSTS06_STAND/Dave/Generated/DIGITAL_IO\digital_io.h **** *     XMC_DEBUG(("DAVE Apps initialization failed with status %d\n", status));
 410:C:/Workspaces/DAVE-4.4.2-64Bit/_PKDS_TSTS06_STAND/Dave/Generated/DIGITAL_IO\digital_io.h **** *     while(1U)
 411:C:/Workspaces/DAVE-4.4.2-64Bit/_PKDS_TSTS06_STAND/Dave/Generated/DIGITAL_IO\digital_io.h **** *     {
 412:C:/Workspaces/DAVE-4.4.2-64Bit/_PKDS_TSTS06_STAND/Dave/Generated/DIGITAL_IO\digital_io.h **** *     }
 413:C:/Workspaces/DAVE-4.4.2-64Bit/_PKDS_TSTS06_STAND/Dave/Generated/DIGITAL_IO\digital_io.h **** *   }
 414:C:/Workspaces/DAVE-4.4.2-64Bit/_PKDS_TSTS06_STAND/Dave/Generated/DIGITAL_IO\digital_io.h **** *   //Placeholder for user application code. The while loop below can be replaced with user applica
 415:C:/Workspaces/DAVE-4.4.2-64Bit/_PKDS_TSTS06_STAND/Dave/Generated/DIGITAL_IO\digital_io.h **** *   while(1U)
 416:C:/Workspaces/DAVE-4.4.2-64Bit/_PKDS_TSTS06_STAND/Dave/Generated/DIGITAL_IO\digital_io.h **** *   {
 417:C:/Workspaces/DAVE-4.4.2-64Bit/_PKDS_TSTS06_STAND/Dave/Generated/DIGITAL_IO\digital_io.h **** *     pin_status = DIGITAL_IO_GetInput(&DIGITAL_IO_0);
 418:C:/Workspaces/DAVE-4.4.2-64Bit/_PKDS_TSTS06_STAND/Dave/Generated/DIGITAL_IO\digital_io.h **** *     if(pin_status == 1)
 419:C:/Workspaces/DAVE-4.4.2-64Bit/_PKDS_TSTS06_STAND/Dave/Generated/DIGITAL_IO\digital_io.h **** *     {
 420:C:/Workspaces/DAVE-4.4.2-64Bit/_PKDS_TSTS06_STAND/Dave/Generated/DIGITAL_IO\digital_io.h **** *       // Add application code here
 421:C:/Workspaces/DAVE-4.4.2-64Bit/_PKDS_TSTS06_STAND/Dave/Generated/DIGITAL_IO\digital_io.h **** *     }
 422:C:/Workspaces/DAVE-4.4.2-64Bit/_PKDS_TSTS06_STAND/Dave/Generated/DIGITAL_IO\digital_io.h **** *     else
 423:C:/Workspaces/DAVE-4.4.2-64Bit/_PKDS_TSTS06_STAND/Dave/Generated/DIGITAL_IO\digital_io.h **** *     {
 424:C:/Workspaces/DAVE-4.4.2-64Bit/_PKDS_TSTS06_STAND/Dave/Generated/DIGITAL_IO\digital_io.h **** *       // Add application code here
 425:C:/Workspaces/DAVE-4.4.2-64Bit/_PKDS_TSTS06_STAND/Dave/Generated/DIGITAL_IO\digital_io.h **** *     }
 426:C:/Workspaces/DAVE-4.4.2-64Bit/_PKDS_TSTS06_STAND/Dave/Generated/DIGITAL_IO\digital_io.h **** *   }
 427:C:/Workspaces/DAVE-4.4.2-64Bit/_PKDS_TSTS06_STAND/Dave/Generated/DIGITAL_IO\digital_io.h **** *   return (1);
 428:C:/Workspaces/DAVE-4.4.2-64Bit/_PKDS_TSTS06_STAND/Dave/Generated/DIGITAL_IO\digital_io.h **** * }
 429:C:/Workspaces/DAVE-4.4.2-64Bit/_PKDS_TSTS06_STAND/Dave/Generated/DIGITAL_IO\digital_io.h **** *  @endcode
 430:C:/Workspaces/DAVE-4.4.2-64Bit/_PKDS_TSTS06_STAND/Dave/Generated/DIGITAL_IO\digital_io.h **** */
 431:C:/Workspaces/DAVE-4.4.2-64Bit/_PKDS_TSTS06_STAND/Dave/Generated/DIGITAL_IO\digital_io.h **** 
 432:C:/Workspaces/DAVE-4.4.2-64Bit/_PKDS_TSTS06_STAND/Dave/Generated/DIGITAL_IO\digital_io.h **** __STATIC_INLINE uint32_t DIGITAL_IO_GetInput(const DIGITAL_IO_t *const handler)
 433:C:/Workspaces/DAVE-4.4.2-64Bit/_PKDS_TSTS06_STAND/Dave/Generated/DIGITAL_IO\digital_io.h **** {
 275              	 .loc 2 433 1
 276              	 .cfi_startproc
 277              	 
 278              	 
 279 0000 80B5     	 push {r7,lr}
 280              	.LCFI28:
 281              	 .cfi_def_cfa_offset 8
 282              	 .cfi_offset 7,-8
 283              	 .cfi_offset 14,-4
 284 0002 82B0     	 sub sp,sp,#8
 285              	.LCFI29:
 286              	 .cfi_def_cfa_offset 16
 287 0004 00AF     	 add r7,sp,#0
 288              	.LCFI30:
 289              	 .cfi_def_cfa_register 7
 290 0006 7860     	 str r0,[r7,#4]
 434:C:/Workspaces/DAVE-4.4.2-64Bit/_PKDS_TSTS06_STAND/Dave/Generated/DIGITAL_IO\digital_io.h ****   XMC_ASSERT("DIGITAL_IO_GetInput: handler null pointer", handler != NULL);
 435:C:/Workspaces/DAVE-4.4.2-64Bit/_PKDS_TSTS06_STAND/Dave/Generated/DIGITAL_IO\digital_io.h ****   return XMC_GPIO_GetInput(handler->gpio_port, handler->gpio_pin);
 291              	 .loc 2 435 10
 292 0008 7B68     	 ldr r3,[r7,#4]
 293 000a 1A68     	 ldr r2,[r3]
 294 000c 7B68     	 ldr r3,[r7,#4]
 295 000e 1B7C     	 ldrb r3,[r3,#16]
 296 0010 1946     	 mov r1,r3
 297 0012 1046     	 mov r0,r2
 298 0014 FFF7FEFF 	 bl XMC_GPIO_GetInput
 299 0018 0346     	 mov r3,r0
 436:C:/Workspaces/DAVE-4.4.2-64Bit/_PKDS_TSTS06_STAND/Dave/Generated/DIGITAL_IO\digital_io.h **** }
 300              	 .loc 2 436 1
 301 001a 1846     	 mov r0,r3
 302 001c 0837     	 adds r7,r7,#8
 303              	.LCFI31:
 304              	 .cfi_def_cfa_offset 8
 305 001e BD46     	 mov sp,r7
 306              	.LCFI32:
 307              	 .cfi_def_cfa_register 13
 308              	 
 309 0020 80BD     	 pop {r7,pc}
 310              	 .cfi_endproc
 311              	.LFE146:
 313              	 .global RAWPosition
 314              	 .section .bss.RAWPosition,"aw",%nobits
 315              	 .align 2
 318              	RAWPosition:
 319 0000 00000000 	 .space 4
 320              	 .global Position
 321              	 .section .bss.Position,"aw",%nobits
 322              	 .align 2
 325              	Position:
 326 0000 00000000 	 .space 4
 327              	 .global VPower
 328              	 .section .bss.VPower,"aw",%nobits
 329              	 .align 2
 332              	VPower:
 333 0000 00000000 	 .space 4
 334              	 .global ActiveRubberL
 335              	 .section .bss.ActiveRubberL,"aw",%nobits
 336              	 .align 2
 339              	ActiveRubberL:
 340 0000 00000000 	 .space 4
 341              	 .global ActiveRubberR
 342              	 .section .bss.ActiveRubberR,"aw",%nobits
 343              	 .align 2
 346              	ActiveRubberR:
 347 0000 00000000 	 .space 4
 348              	 .global CloseSensor
 349              	 .section .bss.CloseSensor,"aw",%nobits
 350              	 .align 2
 353              	CloseSensor:
 354 0000 00000000 	 .space 4
 355              	 .global PassengerButton
 356              	 .section .bss.PassengerButton,"aw",%nobits
 357              	 .align 2
 360              	PassengerButton:
 361 0000 00000000 	 .space 4
 362              	 .global DisabledButton
 363              	 .section .bss.DisabledButton,"aw",%nobits
 364              	 .align 2
 367              	DisabledButton:
 368 0000 00000000 	 .space 4
 369              	 .global ServiceButton
 370              	 .section .bss.ServiceButton,"aw",%nobits
 371              	 .align 2
 374              	ServiceButton:
 375 0000 00000000 	 .space 4
 376              	 .global ServiceButtonFront
 377              	 .section .bss.ServiceButtonFront,"aw",%nobits
 378              	 .align 2
 381              	ServiceButtonFront:
 382 0000 00000000 	 .space 4
 383              	 .global PhotoSensor
 384              	 .section .bss.PhotoSensor,"aw",%nobits
 385              	 .align 2
 388              	PhotoSensor:
 389 0000 00000000 	 .space 4
 390              	 .global StopButton
 391              	 .section .bss.StopButton,"aw",%nobits
 392              	 .align 2
 395              	StopButton:
 396 0000 00000000 	 .space 4
 397              	 .global TrapSensor
 398              	 .section .bss.TrapSensor,"aw",%nobits
 399              	 .align 2
 402              	TrapSensor:
 403 0000 00000000 	 .space 4
 404              	 .global Open1DoorBut
 405              	 .section .bss.Open1DoorBut,"aw",%nobits
 406              	 .align 2
 409              	Open1DoorBut:
 410 0000 00000000 	 .space 4
 411              	 .global LedPwmTimer
 412              	 .section .bss.LedPwmTimer,"aw",%nobits
 413              	 .align 2
 416              	LedPwmTimer:
 417 0000 00000000 	 .space 4
 418              	 .global led_rubber
 419              	 .section .bss.led_rubber,"aw",%nobits
 420              	 .align 2
 423              	led_rubber:
 424 0000 00000000 	 .space 24
 424      00000000 
 424      00000000 
 424      00000000 
 424      00000000 
 425              	 .global Inputs
 426              	 .section .bss.Inputs,"aw",%nobits
 427              	 .align 2
 430              	Inputs:
 431 0000 00000000 	 .space 16
 431      00000000 
 431      00000000 
 431      00000000 
 432              	 .section .text.DoorPeriphInit,"ax",%progbits
 433              	 .align 1
 434              	 .global DoorPeriphInit
 435              	 .syntax unified
 436              	 .thumb
 437              	 .thumb_func
 438              	 .fpu fpv4-sp-d16
 440              	DoorPeriphInit:
 441              	.LFB555:
 442              	 .file 3 "../MainAlg/door_periph.c"
   1:../MainAlg/door_periph.c **** /*
   2:../MainAlg/door_periph.c ****  * door_periph.c
   3:../MainAlg/door_periph.c ****  *
   4:../MainAlg/door_periph.c ****  *  Created on: Mar 3, 2021
   5:../MainAlg/door_periph.c ****  *      Author: kendor
   6:../MainAlg/door_periph.c ****  */
   7:../MainAlg/door_periph.c **** 
   8:../MainAlg/door_periph.c **** #include <DAVE.h>                 //Declarations from DAVE Code Generation (includes SFR declaratio
   9:../MainAlg/door_periph.c **** #include "xmc_common.h"
  10:../MainAlg/door_periph.c **** #include "MainAlg/door_periph.h"
  11:../MainAlg/door_periph.c **** #include "MotorLib/bldc_scalar_user_interface.h"
  12:../MainAlg/door_periph.c **** #include "MainAlg/main_alg.h"
  13:../MainAlg/door_periph.c **** #include "stdlib.h"
  14:../MainAlg/door_periph.c **** #include <MainAlg/ext_can.h>
  15:../MainAlg/door_periph.c **** #include "MainAlg/moving.h"
  16:../MainAlg/door_periph.c **** #include "MainAlg/presets.h"
  17:../MainAlg/door_periph.c **** 
  18:../MainAlg/door_periph.c **** 
  19:../MainAlg/door_periph.c **** #define CL_RED_OUT 		0x09
  20:../MainAlg/door_periph.c **** #define CL_GREEN_OUT 	0x12
  21:../MainAlg/door_periph.c **** #define CL_YELLOW_OUT   0x1B
  22:../MainAlg/door_periph.c **** #define CL_BLACK_OUT 	0x00
  23:../MainAlg/door_periph.c **** 
  24:../MainAlg/door_periph.c **** #define INTER_RUBBER_PERCENT 20
  25:../MainAlg/door_periph.c **** #define OUTER_RUBBER_PERCENT 60
  26:../MainAlg/door_periph.c **** 
  27:../MainAlg/door_periph.c **** int32_t RAWPosition = 0;
  28:../MainAlg/door_periph.c **** int32_t Position = 0;
  29:../MainAlg/door_periph.c **** int32_t VPower = 0;
  30:../MainAlg/door_periph.c **** int32_t ActiveRubberL =0;
  31:../MainAlg/door_periph.c **** int32_t ActiveRubberR =0;
  32:../MainAlg/door_periph.c **** 
  33:../MainAlg/door_periph.c **** 
  34:../MainAlg/door_periph.c **** int32_t CloseSensor = 0;
  35:../MainAlg/door_periph.c **** int32_t PassengerButton = 0;
  36:../MainAlg/door_periph.c **** int32_t DisabledButton = 0;
  37:../MainAlg/door_periph.c **** int32_t ServiceButton = 0;
  38:../MainAlg/door_periph.c **** int32_t ServiceButtonFront = 0;
  39:../MainAlg/door_periph.c **** int32_t PhotoSensor = 0;
  40:../MainAlg/door_periph.c **** int32_t StopButton = 0;
  41:../MainAlg/door_periph.c **** int32_t TrapSensor = 0;
  42:../MainAlg/door_periph.c **** int32_t Open1DoorBut = 0;
  43:../MainAlg/door_periph.c **** 
  44:../MainAlg/door_periph.c **** int32_t LedPwmTimer = 0;
  45:../MainAlg/door_periph.c **** 
  46:../MainAlg/door_periph.c **** 
  47:../MainAlg/door_periph.c **** LED_RUBBER_LIGHT_t led_rubber;
  48:../MainAlg/door_periph.c **** INPUT_SIGNALS_t Inputs;
  49:../MainAlg/door_periph.c **** 
  50:../MainAlg/door_periph.c **** 
  51:../MainAlg/door_periph.c **** void DoorPeriphInit(void)
  52:../MainAlg/door_periph.c **** {
 443              	 .loc 3 52 1
 444              	 .cfi_startproc
 445              	 
 446              	 
 447 0000 80B5     	 push {r7,lr}
 448              	.LCFI33:
 449              	 .cfi_def_cfa_offset 8
 450              	 .cfi_offset 7,-8
 451              	 .cfi_offset 14,-4
 452 0002 00AF     	 add r7,sp,#0
 453              	.LCFI34:
 454              	 .cfi_def_cfa_register 7
  53:../MainAlg/door_periph.c **** 	  LedPwmTimer = SYSTIMER_CreateTimer(100, SYSTIMER_MODE_PERIODIC, LedPwmTimerProc, NULL );
 455              	 .loc 3 53 18
 456 0004 0023     	 movs r3,#0
 457 0006 1A4A     	 ldr r2,.L10
 458 0008 0121     	 movs r1,#1
 459 000a 6420     	 movs r0,#100
 460 000c FFF7FEFF 	 bl SYSTIMER_CreateTimer
 461 0010 0346     	 mov r3,r0
 462 0012 1A46     	 mov r2,r3
 463              	 .loc 3 53 16
 464 0014 174B     	 ldr r3,.L10+4
 465 0016 1A60     	 str r2,[r3]
  54:../MainAlg/door_periph.c **** 	  SYSTIMER_StartTimer(LedPwmTimer);
 466              	 .loc 3 54 4
 467 0018 164B     	 ldr r3,.L10+4
 468 001a 1B68     	 ldr r3,[r3]
 469 001c 1846     	 mov r0,r3
 470 001e FFF7FEFF 	 bl SYSTIMER_StartTimer
  55:../MainAlg/door_periph.c **** 
  56:../MainAlg/door_periph.c **** 
  57:../MainAlg/door_periph.c **** 	  DIGITAL_IO_SetOutputHigh(&LED_SW_NRES);
 471              	 .loc 3 57 4
 472 0022 1548     	 ldr r0,.L10+8
 473 0024 FFF7FEFF 	 bl DIGITAL_IO_SetOutputHigh
  58:../MainAlg/door_periph.c **** 	  DIGITAL_IO_SetOutputHigh(&LS_SW_NRES);
 474              	 .loc 3 58 4
 475 0028 1448     	 ldr r0,.L10+12
 476 002a FFF7FEFF 	 bl DIGITAL_IO_SetOutputHigh
  59:../MainAlg/door_periph.c **** 	  DIGITAL_IO_SetOutputLow(&DI_PNP_EN);
 477              	 .loc 3 59 4
 478 002e 1448     	 ldr r0,.L10+16
 479 0030 FFF7FEFF 	 bl DIGITAL_IO_SetOutputLow
  60:../MainAlg/door_periph.c **** 	  DIGITAL_IO_SetOutputLow(&DI_NPN_EN);
 480              	 .loc 3 60 4
 481 0034 1348     	 ldr r0,.L10+20
 482 0036 FFF7FEFF 	 bl DIGITAL_IO_SetOutputLow
  61:../MainAlg/door_periph.c **** 	  DIGITAL_IO_SetOutputLow(&GROUP_IN_EN);
 483              	 .loc 3 61 4
 484 003a 1348     	 ldr r0,.L10+24
 485 003c FFF7FEFF 	 bl DIGITAL_IO_SetOutputLow
  62:../MainAlg/door_periph.c **** 	  DIGITAL_IO_SetOutputHigh(&POWER_SWITCH);
 486              	 .loc 3 62 4
 487 0040 1248     	 ldr r0,.L10+28
 488 0042 FFF7FEFF 	 bl DIGITAL_IO_SetOutputHigh
  63:../MainAlg/door_periph.c **** 
  64:../MainAlg/door_periph.c **** 	  DIGITAL_IO_SetOutputHigh(&LED_POWER_EN2);
 489              	 .loc 3 64 4
 490 0046 1248     	 ldr r0,.L10+32
 491 0048 FFF7FEFF 	 bl DIGITAL_IO_SetOutputHigh
  65:../MainAlg/door_periph.c **** 	  DIGITAL_IO_SetOutputHigh(&LED_POWER_EN1);
 492              	 .loc 3 65 4
 493 004c 1148     	 ldr r0,.L10+36
 494 004e FFF7FEFF 	 bl DIGITAL_IO_SetOutputHigh
  66:../MainAlg/door_periph.c **** 
  67:../MainAlg/door_periph.c **** 	  PWM_CCU4_SetFreqAndDutyCycle(&CLUTCH_PWM, 2000, 6000); //5200///5600
 495              	 .loc 3 67 4
 496 0052 41F27072 	 movw r2,#6000
 497 0056 4FF4FA61 	 mov r1,#2000
 498 005a 0F48     	 ldr r0,.L10+40
 499 005c FFF7FEFF 	 bl PWM_CCU4_SetFreqAndDutyCycle
  68:../MainAlg/door_periph.c **** 	  //PWM_CCU4_SetFreqAndDutyCycle(&BUZZ_PWM, 440, 1000);
  69:../MainAlg/door_periph.c **** 	  DIGITAL_IO_SetOutputHigh(&TRANS_OUT);
 500              	 .loc 3 69 4
 501 0060 0E48     	 ldr r0,.L10+44
 502 0062 FFF7FEFF 	 bl DIGITAL_IO_SetOutputHigh
  70:../MainAlg/door_periph.c **** 	  DIGITAL_IO_SetOutputLow(&HS_SW_8);
 503              	 .loc 3 70 4
 504 0066 0E48     	 ldr r0,.L10+48
 505 0068 FFF7FEFF 	 bl DIGITAL_IO_SetOutputLow
  71:../MainAlg/door_periph.c **** }
 506              	 .loc 3 71 1
 507 006c 00BF     	 nop
 508 006e 80BD     	 pop {r7,pc}
 509              	.L11:
 510              	 .align 2
 511              	.L10:
 512 0070 00000000 	 .word LedPwmTimerProc
 513 0074 00000000 	 .word LedPwmTimer
 514 0078 00000000 	 .word LED_SW_NRES
 515 007c 00000000 	 .word LS_SW_NRES
 516 0080 00000000 	 .word DI_PNP_EN
 517 0084 00000000 	 .word DI_NPN_EN
 518 0088 00000000 	 .word GROUP_IN_EN
 519 008c 00000000 	 .word POWER_SWITCH
 520 0090 00000000 	 .word LED_POWER_EN2
 521 0094 00000000 	 .word LED_POWER_EN1
 522 0098 00000000 	 .word CLUTCH_PWM
 523 009c 00000000 	 .word TRANS_OUT
 524 00a0 00000000 	 .word HS_SW_8
 525              	 .cfi_endproc
 526              	.LFE555:
 528              	 .section .text.ReadInputs,"ax",%progbits
 529              	 .align 1
 530              	 .global ReadInputs
 531              	 .syntax unified
 532              	 .thumb
 533              	 .thumb_func
 534              	 .fpu fpv4-sp-d16
 536              	ReadInputs:
 537              	.LFB556:
  72:../MainAlg/door_periph.c **** 
  73:../MainAlg/door_periph.c **** 
  74:../MainAlg/door_periph.c **** 
  75:../MainAlg/door_periph.c **** 
  76:../MainAlg/door_periph.c **** 
  77:../MainAlg/door_periph.c **** void ReadInputs(void)
  78:../MainAlg/door_periph.c **** {
 538              	 .loc 3 78 1
 539              	 .cfi_startproc
 540              	 
 541              	 
 542 0000 80B5     	 push {r7,lr}
 543              	.LCFI35:
 544              	 .cfi_def_cfa_offset 8
 545              	 .cfi_offset 7,-8
 546              	 .cfi_offset 14,-4
 547 0002 00AF     	 add r7,sp,#0
 548              	.LCFI36:
 549              	 .cfi_def_cfa_register 7
  79:../MainAlg/door_periph.c **** 	Inputs.PNP = BUS_IO_Read(&DI_PNP);
 550              	 .loc 3 79 15
 551 0004 1348     	 ldr r0,.L15
 552 0006 FFF7FEFF 	 bl BUS_IO_Read
 553 000a 0346     	 mov r3,r0
 554 000c 1A46     	 mov r2,r3
 555              	 .loc 3 79 13
 556 000e 124B     	 ldr r3,.L15+4
 557 0010 1A80     	 strh r2,[r3]
  80:../MainAlg/door_periph.c **** 	Inputs.NPN = BUS_IO_Read(&DI_NPN);
 558              	 .loc 3 80 15
 559 0012 1248     	 ldr r0,.L15+8
 560 0014 FFF7FEFF 	 bl BUS_IO_Read
 561 0018 0346     	 mov r3,r0
 562 001a 1A46     	 mov r2,r3
 563              	 .loc 3 80 13
 564 001c 0E4B     	 ldr r3,.L15+4
 565 001e 5A80     	 strh r2,[r3,#2]
  81:../MainAlg/door_periph.c **** 	Inputs.GIO =  BUS_IO_Read(&GROUP_IN);
 566              	 .loc 3 81 16
 567 0020 0F48     	 ldr r0,.L15+12
 568 0022 FFF7FEFF 	 bl BUS_IO_Read
 569 0026 0346     	 mov r3,r0
 570 0028 1A46     	 mov r2,r3
 571              	 .loc 3 81 13
 572 002a 0B4B     	 ldr r3,.L15+4
 573 002c 9A80     	 strh r2,[r3,#4]
  82:../MainAlg/door_periph.c **** 
  83:../MainAlg/door_periph.c **** 	if (DIGITAL_IO_GetInput(&SERVICE_BUT))
 574              	 .loc 3 83 6
 575 002e 0D48     	 ldr r0,.L15+16
 576 0030 FFF7FEFF 	 bl DIGITAL_IO_GetInput
 577 0034 0346     	 mov r3,r0
 578              	 .loc 3 83 5
 579 0036 002B     	 cmp r3,#0
 580 0038 03D0     	 beq .L13
  84:../MainAlg/door_periph.c **** 	{
  85:../MainAlg/door_periph.c **** 		Inputs.SB = 0;
 581              	 .loc 3 85 13
 582 003a 074B     	 ldr r3,.L15+4
 583 003c 0022     	 movs r2,#0
 584 003e DA80     	 strh r2,[r3,#6]
 585 0040 02E0     	 b .L14
 586              	.L13:
  86:../MainAlg/door_periph.c **** 	}
  87:../MainAlg/door_periph.c **** 	else
  88:../MainAlg/door_periph.c **** 	{
  89:../MainAlg/door_periph.c **** 		Inputs.SB = 1;
 587              	 .loc 3 89 13
 588 0042 054B     	 ldr r3,.L15+4
 589 0044 0122     	 movs r2,#1
 590 0046 DA80     	 strh r2,[r3,#6]
 591              	.L14:
  90:../MainAlg/door_periph.c **** 	}
  91:../MainAlg/door_periph.c **** 
  92:../MainAlg/door_periph.c **** 	ADC_MEASUREMENT_StartConversion(&ADC_MEASUREMENT_0);
 592              	 .loc 3 92 2
 593 0048 0748     	 ldr r0,.L15+20
 594 004a FFF7FEFF 	 bl ADC_MEASUREMENT_StartConversion
  93:../MainAlg/door_periph.c **** }
 595              	 .loc 3 93 1
 596 004e 00BF     	 nop
 597 0050 80BD     	 pop {r7,pc}
 598              	.L16:
 599 0052 00BF     	 .align 2
 600              	.L15:
 601 0054 00000000 	 .word DI_PNP
 602 0058 00000000 	 .word Inputs
 603 005c 00000000 	 .word DI_NPN
 604 0060 00000000 	 .word GROUP_IN
 605 0064 00000000 	 .word SERVICE_BUT
 606 0068 00000000 	 .word ADC_MEASUREMENT_0
 607              	 .cfi_endproc
 608              	.LFE556:
 610              	 .section .text.ReadOpen1DoorButton,"ax",%progbits
 611              	 .align 1
 612              	 .global ReadOpen1DoorButton
 613              	 .syntax unified
 614              	 .thumb
 615              	 .thumb_func
 616              	 .fpu fpv4-sp-d16
 618              	ReadOpen1DoorButton:
 619              	.LFB557:
  94:../MainAlg/door_periph.c **** 
  95:../MainAlg/door_periph.c **** void ReadOpen1DoorButton(void)
  96:../MainAlg/door_periph.c **** {
 620              	 .loc 3 96 1
 621              	 .cfi_startproc
 622              	 
 623              	 
 624              	 
 625 0000 80B4     	 push {r7}
 626              	.LCFI37:
 627              	 .cfi_def_cfa_offset 4
 628              	 .cfi_offset 7,-4
 629 0002 00AF     	 add r7,sp,#0
 630              	.LCFI38:
 631              	 .cfi_def_cfa_register 7
  97:../MainAlg/door_periph.c **** 	if (Inputs.PNP & 0x0004)
 632              	 .loc 3 97 12
 633 0004 084B     	 ldr r3,.L21
 634 0006 1B88     	 ldrh r3,[r3]
 635              	 .loc 3 97 17
 636 0008 03F00403 	 and r3,r3,#4
 637              	 .loc 3 97 5
 638 000c 002B     	 cmp r3,#0
 639 000e 03D0     	 beq .L18
  98:../MainAlg/door_periph.c **** 	{
  99:../MainAlg/door_periph.c **** 		Open1DoorBut = 1;
 640              	 .loc 3 99 16
 641 0010 064B     	 ldr r3,.L21+4
 642 0012 0122     	 movs r2,#1
 643 0014 1A60     	 str r2,[r3]
 100:../MainAlg/door_periph.c **** 	}
 101:../MainAlg/door_periph.c **** 	else
 102:../MainAlg/door_periph.c **** 	{
 103:../MainAlg/door_periph.c **** 		Open1DoorBut = 0;
 104:../MainAlg/door_periph.c **** 	}
 105:../MainAlg/door_periph.c **** }
 644              	 .loc 3 105 1
 645 0016 02E0     	 b .L20
 646              	.L18:
 103:../MainAlg/door_periph.c **** 	}
 647              	 .loc 3 103 16
 648 0018 044B     	 ldr r3,.L21+4
 649 001a 0022     	 movs r2,#0
 650 001c 1A60     	 str r2,[r3]
 651              	.L20:
 652              	 .loc 3 105 1
 653 001e 00BF     	 nop
 654 0020 BD46     	 mov sp,r7
 655              	.LCFI39:
 656              	 .cfi_def_cfa_register 13
 657              	 
 658 0022 5DF8047B 	 ldr r7,[sp],#4
 659              	.LCFI40:
 660              	 .cfi_restore 7
 661              	 .cfi_def_cfa_offset 0
 662 0026 7047     	 bx lr
 663              	.L22:
 664              	 .align 2
 665              	.L21:
 666 0028 00000000 	 .word Inputs
 667 002c 00000000 	 .word Open1DoorBut
 668              	 .cfi_endproc
 669              	.LFE557:
 671              	 .section .text.ReadCloseSensor,"ax",%progbits
 672              	 .align 1
 673              	 .global ReadCloseSensor
 674              	 .syntax unified
 675              	 .thumb
 676              	 .thumb_func
 677              	 .fpu fpv4-sp-d16
 679              	ReadCloseSensor:
 680              	.LFB558:
 106:../MainAlg/door_periph.c **** 
 107:../MainAlg/door_periph.c **** void ReadCloseSensor (void)
 108:../MainAlg/door_periph.c **** {
 681              	 .loc 3 108 1
 682              	 .cfi_startproc
 683              	 
 684              	 
 685              	 
 686 0000 80B4     	 push {r7}
 687              	.LCFI41:
 688              	 .cfi_def_cfa_offset 4
 689              	 .cfi_offset 7,-4
 690 0002 00AF     	 add r7,sp,#0
 691              	.LCFI42:
 692              	 .cfi_def_cfa_register 7
 109:../MainAlg/door_periph.c **** 
 110:../MainAlg/door_periph.c **** 	if (Presets.CLOSE_SENSOR_TYPE)
 693              	 .loc 3 110 13
 694 0004 114B     	 ldr r3,.L29
 695 0006 5B68     	 ldr r3,[r3,#4]
 696              	 .loc 3 110 5
 697 0008 002B     	 cmp r3,#0
 698 000a 0DD0     	 beq .L24
 111:../MainAlg/door_periph.c **** 	{
 112:../MainAlg/door_periph.c **** 		if (Inputs.PNP & 0x0008)
 699              	 .loc 3 112 13
 700 000c 104B     	 ldr r3,.L29+4
 701 000e 1B88     	 ldrh r3,[r3]
 702              	 .loc 3 112 18
 703 0010 03F00803 	 and r3,r3,#8
 704              	 .loc 3 112 6
 705 0014 002B     	 cmp r3,#0
 706 0016 03D0     	 beq .L25
 113:../MainAlg/door_periph.c **** 		{
 114:../MainAlg/door_periph.c **** 			CloseSensor = 0;
 707              	 .loc 3 114 16
 708 0018 0E4B     	 ldr r3,.L29+8
 709 001a 0022     	 movs r2,#0
 710 001c 1A60     	 str r2,[r3]
 115:../MainAlg/door_periph.c **** 		}
 116:../MainAlg/door_periph.c **** 		else
 117:../MainAlg/door_periph.c **** 		{
 118:../MainAlg/door_periph.c **** 			CloseSensor = 1;
 119:../MainAlg/door_periph.c **** 		}
 120:../MainAlg/door_periph.c **** 	}
 121:../MainAlg/door_periph.c **** 	else
 122:../MainAlg/door_periph.c **** 	{
 123:../MainAlg/door_periph.c **** 		if (Inputs.PNP & 0x0008)
 124:../MainAlg/door_periph.c **** 		{
 125:../MainAlg/door_periph.c **** 			CloseSensor = 1;
 126:../MainAlg/door_periph.c **** 		}
 127:../MainAlg/door_periph.c **** 		else
 128:../MainAlg/door_periph.c **** 		{
 129:../MainAlg/door_periph.c **** 			CloseSensor = 0;
 130:../MainAlg/door_periph.c **** 		}
 131:../MainAlg/door_periph.c **** 	}
 132:../MainAlg/door_periph.c **** }
 711              	 .loc 3 132 1
 712 001e 10E0     	 b .L28
 713              	.L25:
 118:../MainAlg/door_periph.c **** 		}
 714              	 .loc 3 118 16
 715 0020 0C4B     	 ldr r3,.L29+8
 716 0022 0122     	 movs r2,#1
 717 0024 1A60     	 str r2,[r3]
 718              	 .loc 3 132 1
 719 0026 0CE0     	 b .L28
 720              	.L24:
 123:../MainAlg/door_periph.c **** 		{
 721              	 .loc 3 123 13
 722 0028 094B     	 ldr r3,.L29+4
 723 002a 1B88     	 ldrh r3,[r3]
 123:../MainAlg/door_periph.c **** 		{
 724              	 .loc 3 123 18
 725 002c 03F00803 	 and r3,r3,#8
 123:../MainAlg/door_periph.c **** 		{
 726              	 .loc 3 123 6
 727 0030 002B     	 cmp r3,#0
 728 0032 03D0     	 beq .L27
 125:../MainAlg/door_periph.c **** 		}
 729              	 .loc 3 125 16
 730 0034 074B     	 ldr r3,.L29+8
 731 0036 0122     	 movs r2,#1
 732 0038 1A60     	 str r2,[r3]
 733              	 .loc 3 132 1
 734 003a 02E0     	 b .L28
 735              	.L27:
 129:../MainAlg/door_periph.c **** 		}
 736              	 .loc 3 129 16
 737 003c 054B     	 ldr r3,.L29+8
 738 003e 0022     	 movs r2,#0
 739 0040 1A60     	 str r2,[r3]
 740              	.L28:
 741              	 .loc 3 132 1
 742 0042 00BF     	 nop
 743 0044 BD46     	 mov sp,r7
 744              	.LCFI43:
 745              	 .cfi_def_cfa_register 13
 746              	 
 747 0046 5DF8047B 	 ldr r7,[sp],#4
 748              	.LCFI44:
 749              	 .cfi_restore 7
 750              	 .cfi_def_cfa_offset 0
 751 004a 7047     	 bx lr
 752              	.L30:
 753              	 .align 2
 754              	.L29:
 755 004c 00000000 	 .word Presets
 756 0050 00000000 	 .word Inputs
 757 0054 00000000 	 .word CloseSensor
 758              	 .cfi_endproc
 759              	.LFE558:
 761              	 .section .text.ReadPhotoSensor,"ax",%progbits
 762              	 .align 1
 763              	 .global ReadPhotoSensor
 764              	 .syntax unified
 765              	 .thumb
 766              	 .thumb_func
 767              	 .fpu fpv4-sp-d16
 769              	ReadPhotoSensor:
 770              	.LFB559:
 133:../MainAlg/door_periph.c **** 
 134:../MainAlg/door_periph.c **** void ReadPhotoSensor(void)
 135:../MainAlg/door_periph.c **** {
 771              	 .loc 3 135 1
 772              	 .cfi_startproc
 773              	 
 774              	 
 775              	 
 776 0000 80B4     	 push {r7}
 777              	.LCFI45:
 778              	 .cfi_def_cfa_offset 4
 779              	 .cfi_offset 7,-4
 780 0002 00AF     	 add r7,sp,#0
 781              	.LCFI46:
 782              	 .cfi_def_cfa_register 7
 136:../MainAlg/door_periph.c **** 	if (Inputs.NPN & 0x0004)
 783              	 .loc 3 136 12
 784 0004 084B     	 ldr r3,.L35
 785 0006 5B88     	 ldrh r3,[r3,#2]
 786              	 .loc 3 136 17
 787 0008 03F00403 	 and r3,r3,#4
 788              	 .loc 3 136 5
 789 000c 002B     	 cmp r3,#0
 790 000e 03D0     	 beq .L32
 137:../MainAlg/door_periph.c **** 	{
 138:../MainAlg/door_periph.c **** 		PhotoSensor = 0;
 791              	 .loc 3 138 15
 792 0010 064B     	 ldr r3,.L35+4
 793 0012 0022     	 movs r2,#0
 794 0014 1A60     	 str r2,[r3]
 139:../MainAlg/door_periph.c **** 	}
 140:../MainAlg/door_periph.c **** 	else
 141:../MainAlg/door_periph.c **** 	{
 142:../MainAlg/door_periph.c **** 		PhotoSensor = 1;
 143:../MainAlg/door_periph.c **** 	}
 144:../MainAlg/door_periph.c **** }
 795              	 .loc 3 144 1
 796 0016 02E0     	 b .L34
 797              	.L32:
 142:../MainAlg/door_periph.c **** 	}
 798              	 .loc 3 142 15
 799 0018 044B     	 ldr r3,.L35+4
 800 001a 0122     	 movs r2,#1
 801 001c 1A60     	 str r2,[r3]
 802              	.L34:
 803              	 .loc 3 144 1
 804 001e 00BF     	 nop
 805 0020 BD46     	 mov sp,r7
 806              	.LCFI47:
 807              	 .cfi_def_cfa_register 13
 808              	 
 809 0022 5DF8047B 	 ldr r7,[sp],#4
 810              	.LCFI48:
 811              	 .cfi_restore 7
 812              	 .cfi_def_cfa_offset 0
 813 0026 7047     	 bx lr
 814              	.L36:
 815              	 .align 2
 816              	.L35:
 817 0028 00000000 	 .word Inputs
 818 002c 00000000 	 .word PhotoSensor
 819              	 .cfi_endproc
 820              	.LFE559:
 822              	 .section .text.ReadServiceButton,"ax",%progbits
 823              	 .align 1
 824              	 .global ReadServiceButton
 825              	 .syntax unified
 826              	 .thumb
 827              	 .thumb_func
 828              	 .fpu fpv4-sp-d16
 830              	ReadServiceButton:
 831              	.LFB560:
 145:../MainAlg/door_periph.c **** 
 146:../MainAlg/door_periph.c **** void ReadServiceButton(void)
 147:../MainAlg/door_periph.c **** {
 832              	 .loc 3 147 1
 833              	 .cfi_startproc
 834              	 
 835              	 
 836 0000 80B5     	 push {r7,lr}
 837              	.LCFI49:
 838              	 .cfi_def_cfa_offset 8
 839              	 .cfi_offset 7,-8
 840              	 .cfi_offset 14,-4
 841 0002 00AF     	 add r7,sp,#0
 842              	.LCFI50:
 843              	 .cfi_def_cfa_register 7
 148:../MainAlg/door_periph.c **** 	static uint32_t previous_state;
 149:../MainAlg/door_periph.c **** 
 150:../MainAlg/door_periph.c **** 	if (DIGITAL_IO_GetInput(&SERVICE_BUT))
 844              	 .loc 3 150 6
 845 0004 1148     	 ldr r0,.L42
 846 0006 FFF7FEFF 	 bl DIGITAL_IO_GetInput
 847 000a 0346     	 mov r3,r0
 848              	 .loc 3 150 5
 849 000c 002B     	 cmp r3,#0
 850 000e 03D0     	 beq .L38
 151:../MainAlg/door_periph.c **** 	{
 152:../MainAlg/door_periph.c **** 		ServiceButton = 0;
 851              	 .loc 3 152 17
 852 0010 0F4B     	 ldr r3,.L42+4
 853 0012 0022     	 movs r2,#0
 854 0014 1A60     	 str r2,[r3]
 855 0016 02E0     	 b .L39
 856              	.L38:
 153:../MainAlg/door_periph.c **** 		//PassengerButton = 0;
 154:../MainAlg/door_periph.c **** 	}
 155:../MainAlg/door_periph.c **** 	else
 156:../MainAlg/door_periph.c **** 	{
 157:../MainAlg/door_periph.c **** 		ServiceButton = 1;
 857              	 .loc 3 157 17
 858 0018 0D4B     	 ldr r3,.L42+4
 859 001a 0122     	 movs r2,#1
 860 001c 1A60     	 str r2,[r3]
 861              	.L39:
 158:../MainAlg/door_periph.c **** 		//PassengerButton = 1;
 159:../MainAlg/door_periph.c **** 	}
 160:../MainAlg/door_periph.c **** 	if (ServiceButton && !previous_state)
 862              	 .loc 3 160 6
 863 001e 0C4B     	 ldr r3,.L42+4
 864 0020 1B68     	 ldr r3,[r3]
 865              	 .loc 3 160 5
 866 0022 002B     	 cmp r3,#0
 867 0024 07D0     	 beq .L40
 868              	 .loc 3 160 23 discriminator 1
 869 0026 0B4B     	 ldr r3,.L42+8
 870 0028 1B68     	 ldr r3,[r3]
 871              	 .loc 3 160 20 discriminator 1
 872 002a 002B     	 cmp r3,#0
 873 002c 03D1     	 bne .L40
 161:../MainAlg/door_periph.c **** 	{
 162:../MainAlg/door_periph.c **** 		ServiceButtonFront = 1;
 874              	 .loc 3 162 22
 875 002e 0A4B     	 ldr r3,.L42+12
 876 0030 0122     	 movs r2,#1
 877 0032 1A60     	 str r2,[r3]
 878 0034 02E0     	 b .L41
 879              	.L40:
 163:../MainAlg/door_periph.c **** 	}
 164:../MainAlg/door_periph.c **** 	else
 165:../MainAlg/door_periph.c **** 	{
 166:../MainAlg/door_periph.c **** 		ServiceButtonFront = 0;
 880              	 .loc 3 166 22
 881 0036 084B     	 ldr r3,.L42+12
 882 0038 0022     	 movs r2,#0
 883 003a 1A60     	 str r2,[r3]
 884              	.L41:
 167:../MainAlg/door_periph.c **** 	}
 168:../MainAlg/door_periph.c **** 
 169:../MainAlg/door_periph.c **** 	previous_state = ServiceButton;
 885              	 .loc 3 169 17
 886 003c 044B     	 ldr r3,.L42+4
 887 003e 1B68     	 ldr r3,[r3]
 888 0040 1A46     	 mov r2,r3
 889 0042 044B     	 ldr r3,.L42+8
 890 0044 1A60     	 str r2,[r3]
 170:../MainAlg/door_periph.c **** 
 171:../MainAlg/door_periph.c **** }
 891              	 .loc 3 171 1
 892 0046 00BF     	 nop
 893 0048 80BD     	 pop {r7,pc}
 894              	.L43:
 895 004a 00BF     	 .align 2
 896              	.L42:
 897 004c 00000000 	 .word SERVICE_BUT
 898 0050 00000000 	 .word ServiceButton
 899 0054 00000000 	 .word previous_state.8
 900 0058 00000000 	 .word ServiceButtonFront
 901              	 .cfi_endproc
 902              	.LFE560:
 904              	 .section .text.ReadPassengerButton,"ax",%progbits
 905              	 .align 1
 906              	 .global ReadPassengerButton
 907              	 .syntax unified
 908              	 .thumb
 909              	 .thumb_func
 910              	 .fpu fpv4-sp-d16
 912              	ReadPassengerButton:
 913              	.LFB561:
 172:../MainAlg/door_periph.c **** void ReadPassengerButton(void)
 173:../MainAlg/door_periph.c **** {
 914              	 .loc 3 173 1
 915              	 .cfi_startproc
 916              	 
 917              	 
 918 0000 80B5     	 push {r7,lr}
 919              	.LCFI51:
 920              	 .cfi_def_cfa_offset 8
 921              	 .cfi_offset 7,-8
 922              	 .cfi_offset 14,-4
 923 0002 82B0     	 sub sp,sp,#8
 924              	.LCFI52:
 925              	 .cfi_def_cfa_offset 16
 926 0004 00AF     	 add r7,sp,#0
 927              	.LCFI53:
 928              	 .cfi_def_cfa_register 7
 174:../MainAlg/door_periph.c **** 	uint16_t Group_inputs = 0;
 929              	 .loc 3 174 11
 930 0006 0023     	 movs r3,#0
 931 0008 FB80     	 strh r3,[r7,#6]
 175:../MainAlg/door_periph.c **** 
 176:../MainAlg/door_periph.c **** 	Group_inputs = BUS_IO_Read(&GROUP_IN);
 932              	 .loc 3 176 17
 933 000a 0A48     	 ldr r0,.L48
 934 000c FFF7FEFF 	 bl BUS_IO_Read
 935 0010 0346     	 mov r3,r0
 936 0012 FB80     	 strh r3,[r7,#6]
 177:../MainAlg/door_periph.c **** 
 178:../MainAlg/door_periph.c **** 	if ((Group_inputs & 0x0001))
 937              	 .loc 3 178 20
 938 0014 FB88     	 ldrh r3,[r7,#6]
 939 0016 03F00103 	 and r3,r3,#1
 940              	 .loc 3 178 5
 941 001a 002B     	 cmp r3,#0
 942 001c 03D0     	 beq .L45
 179:../MainAlg/door_periph.c **** 	{
 180:../MainAlg/door_periph.c **** 		 PassengerButton = 1;
 943              	 .loc 3 180 20
 944 001e 064B     	 ldr r3,.L48+4
 945 0020 0122     	 movs r2,#1
 946 0022 1A60     	 str r2,[r3]
 181:../MainAlg/door_periph.c **** 	}
 182:../MainAlg/door_periph.c **** 	else
 183:../MainAlg/door_periph.c **** 	{
 184:../MainAlg/door_periph.c **** 		 PassengerButton = 0;
 185:../MainAlg/door_periph.c **** 	}
 186:../MainAlg/door_periph.c **** 
 187:../MainAlg/door_periph.c **** }
 947              	 .loc 3 187 1
 948 0024 02E0     	 b .L47
 949              	.L45:
 184:../MainAlg/door_periph.c **** 	}
 950              	 .loc 3 184 20
 951 0026 044B     	 ldr r3,.L48+4
 952 0028 0022     	 movs r2,#0
 953 002a 1A60     	 str r2,[r3]
 954              	.L47:
 955              	 .loc 3 187 1
 956 002c 00BF     	 nop
 957 002e 0837     	 adds r7,r7,#8
 958              	.LCFI54:
 959              	 .cfi_def_cfa_offset 8
 960 0030 BD46     	 mov sp,r7
 961              	.LCFI55:
 962              	 .cfi_def_cfa_register 13
 963              	 
 964 0032 80BD     	 pop {r7,pc}
 965              	.L49:
 966              	 .align 2
 967              	.L48:
 968 0034 00000000 	 .word GROUP_IN
 969 0038 00000000 	 .word PassengerButton
 970              	 .cfi_endproc
 971              	.LFE561:
 973              	 .section .text.ReadDisabledButton,"ax",%progbits
 974              	 .align 1
 975              	 .global ReadDisabledButton
 976              	 .syntax unified
 977              	 .thumb
 978              	 .thumb_func
 979              	 .fpu fpv4-sp-d16
 981              	ReadDisabledButton:
 982              	.LFB562:
 188:../MainAlg/door_periph.c **** 
 189:../MainAlg/door_periph.c **** void ReadDisabledButton(void)
 190:../MainAlg/door_periph.c **** {
 983              	 .loc 3 190 1
 984              	 .cfi_startproc
 985              	 
 986              	 
 987 0000 80B5     	 push {r7,lr}
 988              	.LCFI56:
 989              	 .cfi_def_cfa_offset 8
 990              	 .cfi_offset 7,-8
 991              	 .cfi_offset 14,-4
 992 0002 82B0     	 sub sp,sp,#8
 993              	.LCFI57:
 994              	 .cfi_def_cfa_offset 16
 995 0004 00AF     	 add r7,sp,#0
 996              	.LCFI58:
 997              	 .cfi_def_cfa_register 7
 191:../MainAlg/door_periph.c **** 	uint16_t Group_inputs = 0;
 998              	 .loc 3 191 11
 999 0006 0023     	 movs r3,#0
 1000 0008 FB80     	 strh r3,[r7,#6]
 192:../MainAlg/door_periph.c **** 
 193:../MainAlg/door_periph.c **** 	Group_inputs = BUS_IO_Read(&GROUP_IN);
 1001              	 .loc 3 193 17
 1002 000a 0A48     	 ldr r0,.L54
 1003 000c FFF7FEFF 	 bl BUS_IO_Read
 1004 0010 0346     	 mov r3,r0
 1005 0012 FB80     	 strh r3,[r7,#6]
 194:../MainAlg/door_periph.c **** 
 195:../MainAlg/door_periph.c **** 	if ((Group_inputs & 0x0002))
 1006              	 .loc 3 195 20
 1007 0014 FB88     	 ldrh r3,[r7,#6]
 1008 0016 03F00203 	 and r3,r3,#2
 1009              	 .loc 3 195 5
 1010 001a 002B     	 cmp r3,#0
 1011 001c 03D0     	 beq .L51
 196:../MainAlg/door_periph.c **** 	{
 197:../MainAlg/door_periph.c **** 		 DisabledButton = 1;
 1012              	 .loc 3 197 19
 1013 001e 064B     	 ldr r3,.L54+4
 1014 0020 0122     	 movs r2,#1
 1015 0022 1A60     	 str r2,[r3]
 198:../MainAlg/door_periph.c **** 	}
 199:../MainAlg/door_periph.c **** 	else
 200:../MainAlg/door_periph.c **** 	{
 201:../MainAlg/door_periph.c **** 		 DisabledButton = 0;
 202:../MainAlg/door_periph.c **** 	}
 203:../MainAlg/door_periph.c **** }
 1016              	 .loc 3 203 1
 1017 0024 02E0     	 b .L53
 1018              	.L51:
 201:../MainAlg/door_periph.c **** 	}
 1019              	 .loc 3 201 19
 1020 0026 044B     	 ldr r3,.L54+4
 1021 0028 0022     	 movs r2,#0
 1022 002a 1A60     	 str r2,[r3]
 1023              	.L53:
 1024              	 .loc 3 203 1
 1025 002c 00BF     	 nop
 1026 002e 0837     	 adds r7,r7,#8
 1027              	.LCFI59:
 1028              	 .cfi_def_cfa_offset 8
 1029 0030 BD46     	 mov sp,r7
 1030              	.LCFI60:
 1031              	 .cfi_def_cfa_register 13
 1032              	 
 1033 0032 80BD     	 pop {r7,pc}
 1034              	.L55:
 1035              	 .align 2
 1036              	.L54:
 1037 0034 00000000 	 .word GROUP_IN
 1038 0038 00000000 	 .word DisabledButton
 1039              	 .cfi_endproc
 1040              	.LFE562:
 1042              	 .section .text.ReadActiveRubber,"ax",%progbits
 1043              	 .align 1
 1044              	 .global ReadActiveRubber
 1045              	 .syntax unified
 1046              	 .thumb
 1047              	 .thumb_func
 1048              	 .fpu fpv4-sp-d16
 1050              	ReadActiveRubber:
 1051              	.LFB563:
 204:../MainAlg/door_periph.c **** 
 205:../MainAlg/door_periph.c **** void ReadActiveRubber(void)
 206:../MainAlg/door_periph.c **** {
 1052              	 .loc 3 206 1
 1053              	 .cfi_startproc
 1054              	 
 1055              	 
 1056              	 
 1057 0000 80B4     	 push {r7}
 1058              	.LCFI61:
 1059              	 .cfi_def_cfa_offset 4
 1060              	 .cfi_offset 7,-4
 1061 0002 00AF     	 add r7,sp,#0
 1062              	.LCFI62:
 1063              	 .cfi_def_cfa_register 7
 207:../MainAlg/door_periph.c **** 	if(Inputs.RIN1 >= 2000)
 1064              	 .loc 3 207 11
 1065 0004 084B     	 ldr r3,.L60
 1066 0006 1B89     	 ldrh r3,[r3,#8]
 1067              	 .loc 3 207 4
 1068 0008 B3F5FA6F 	 cmp r3,#2000
 1069 000c 03D3     	 bcc .L57
 208:../MainAlg/door_periph.c **** 	{
 209:../MainAlg/door_periph.c **** 		ActiveRubberL = 1;
 1070              	 .loc 3 209 17
 1071 000e 074B     	 ldr r3,.L60+4
 1072 0010 0122     	 movs r2,#1
 1073 0012 1A60     	 str r2,[r3]
 210:../MainAlg/door_periph.c **** 	}
 211:../MainAlg/door_periph.c **** 	else
 212:../MainAlg/door_periph.c **** 	{
 213:../MainAlg/door_periph.c **** 		ActiveRubberL = 0;
 214:../MainAlg/door_periph.c **** 	}
 215:../MainAlg/door_periph.c **** }
 1074              	 .loc 3 215 1
 1075 0014 02E0     	 b .L59
 1076              	.L57:
 213:../MainAlg/door_periph.c **** 	}
 1077              	 .loc 3 213 17
 1078 0016 054B     	 ldr r3,.L60+4
 1079 0018 0022     	 movs r2,#0
 1080 001a 1A60     	 str r2,[r3]
 1081              	.L59:
 1082              	 .loc 3 215 1
 1083 001c 00BF     	 nop
 1084 001e BD46     	 mov sp,r7
 1085              	.LCFI63:
 1086              	 .cfi_def_cfa_register 13
 1087              	 
 1088 0020 5DF8047B 	 ldr r7,[sp],#4
 1089              	.LCFI64:
 1090              	 .cfi_restore 7
 1091              	 .cfi_def_cfa_offset 0
 1092 0024 7047     	 bx lr
 1093              	.L61:
 1094 0026 00BF     	 .align 2
 1095              	.L60:
 1096 0028 00000000 	 .word Inputs
 1097 002c 00000000 	 .word ActiveRubberL
 1098              	 .cfi_endproc
 1099              	.LFE563:
 1101              	 .section .text.WriteClutch,"ax",%progbits
 1102              	 .align 1
 1103              	 .global WriteClutch
 1104              	 .syntax unified
 1105              	 .thumb
 1106              	 .thumb_func
 1107              	 .fpu fpv4-sp-d16
 1109              	WriteClutch:
 1110              	.LFB564:
 216:../MainAlg/door_periph.c **** 
 217:../MainAlg/door_periph.c **** 
 218:../MainAlg/door_periph.c **** void WriteClutch(int32_t cmd)
 219:../MainAlg/door_periph.c **** {
 1111              	 .loc 3 219 1
 1112              	 .cfi_startproc
 1113              	 
 1114              	 
 1115 0000 80B5     	 push {r7,lr}
 1116              	.LCFI65:
 1117              	 .cfi_def_cfa_offset 8
 1118              	 .cfi_offset 7,-8
 1119              	 .cfi_offset 14,-4
 1120 0002 82B0     	 sub sp,sp,#8
 1121              	.LCFI66:
 1122              	 .cfi_def_cfa_offset 16
 1123 0004 00AF     	 add r7,sp,#0
 1124              	.LCFI67:
 1125              	 .cfi_def_cfa_register 7
 1126 0006 7860     	 str r0,[r7,#4]
 220:../MainAlg/door_periph.c **** 	static int32_t cmd_prev = 0;
 221:../MainAlg/door_periph.c **** 	static int32_t timer = 0;
 222:../MainAlg/door_periph.c **** 	static int32_t count_en = 0;
 223:../MainAlg/door_periph.c **** 
 224:../MainAlg/door_periph.c **** 	if(cmd && !cmd_prev)
 1127              	 .loc 3 224 4
 1128 0008 7B68     	 ldr r3,[r7,#4]
 1129 000a 002B     	 cmp r3,#0
 1130 000c 10D0     	 beq .L63
 1131              	 .loc 3 224 12 discriminator 1
 1132 000e 254B     	 ldr r3,.L67
 1133 0010 1B68     	 ldr r3,[r3]
 1134              	 .loc 3 224 9 discriminator 1
 1135 0012 002B     	 cmp r3,#0
 1136 0014 0CD1     	 bne .L63
 225:../MainAlg/door_periph.c **** 	{
 226:../MainAlg/door_periph.c **** 		PWM_CCU4_SetFreqAndDutyCycle(&CLUTCH_PWM, 400,(10000 - 5000)); //12V
 1137              	 .loc 3 226 3
 1138 0016 41F28832 	 movw r2,#5000
 1139 001a 4FF4C871 	 mov r1,#400
 1140 001e 2248     	 ldr r0,.L67+4
 1141 0020 FFF7FEFF 	 bl PWM_CCU4_SetFreqAndDutyCycle
 227:../MainAlg/door_periph.c **** 		PWM_CCU4_Start(&CLUTCH_PWM);
 1142              	 .loc 3 227 3
 1143 0024 2048     	 ldr r0,.L67+4
 1144 0026 FFF7FEFF 	 bl PWM_CCU4_Start
 228:../MainAlg/door_periph.c **** 		count_en = 1;
 1145              	 .loc 3 228 12
 1146 002a 204B     	 ldr r3,.L67+8
 1147 002c 0122     	 movs r2,#1
 1148 002e 1A60     	 str r2,[r3]
 1149              	.L63:
 229:../MainAlg/door_periph.c **** 	}
 230:../MainAlg/door_periph.c **** 
 231:../MainAlg/door_periph.c **** 	if(count_en)
 1150              	 .loc 3 231 5
 1151 0030 1E4B     	 ldr r3,.L67+8
 1152 0032 1B68     	 ldr r3,[r3]
 1153              	 .loc 3 231 4
 1154 0034 002B     	 cmp r3,#0
 1155 0036 18D0     	 beq .L64
 232:../MainAlg/door_periph.c **** 	{
 233:../MainAlg/door_periph.c **** 		timer++;
 1156              	 .loc 3 233 8
 1157 0038 1D4B     	 ldr r3,.L67+12
 1158 003a 1B68     	 ldr r3,[r3]
 1159 003c 0133     	 adds r3,r3,#1
 1160 003e 1C4A     	 ldr r2,.L67+12
 1161 0040 1360     	 str r3,[r2]
 234:../MainAlg/door_periph.c **** 
 235:../MainAlg/door_periph.c **** 		if(timer >= 200)
 1162              	 .loc 3 235 12
 1163 0042 1B4B     	 ldr r3,.L67+12
 1164 0044 1B68     	 ldr r3,[r3]
 1165              	 .loc 3 235 5
 1166 0046 C72B     	 cmp r3,#199
 1167 0048 0FDD     	 ble .L64
 236:../MainAlg/door_periph.c **** 		{
 237:../MainAlg/door_periph.c **** 			count_en = 0;
 1168              	 .loc 3 237 13
 1169 004a 184B     	 ldr r3,.L67+8
 1170 004c 0022     	 movs r2,#0
 1171 004e 1A60     	 str r2,[r3]
 238:../MainAlg/door_periph.c **** 			timer = 0;
 1172              	 .loc 3 238 10
 1173 0050 174B     	 ldr r3,.L67+12
 1174 0052 0022     	 movs r2,#0
 1175 0054 1A60     	 str r2,[r3]
 239:../MainAlg/door_periph.c **** 			PWM_CCU4_SetFreqAndDutyCycle(&CLUTCH_PWM, 400, (10000 - 2500)); // <15V
 1176              	 .loc 3 239 4
 1177 0056 41F64C52 	 movw r2,#7500
 1178 005a 4FF4C871 	 mov r1,#400
 1179 005e 1248     	 ldr r0,.L67+4
 1180 0060 FFF7FEFF 	 bl PWM_CCU4_SetFreqAndDutyCycle
 240:../MainAlg/door_periph.c **** 			PWM_CCU4_Start(&CLUTCH_PWM);
 1181              	 .loc 3 240 4
 1182 0064 1048     	 ldr r0,.L67+4
 1183 0066 FFF7FEFF 	 bl PWM_CCU4_Start
 1184              	.L64:
 241:../MainAlg/door_periph.c **** 		}
 242:../MainAlg/door_periph.c **** 	}
 243:../MainAlg/door_periph.c **** 
 244:../MainAlg/door_periph.c **** 	if(cmd)
 1185              	 .loc 3 244 4
 1186 006a 7B68     	 ldr r3,[r7,#4]
 1187 006c 002B     	 cmp r3,#0
 1188 006e 03D0     	 beq .L65
 245:../MainAlg/door_periph.c **** 	{
 246:../MainAlg/door_periph.c **** 		PWM_CCU4_Start(&CLUTCH_PWM);
 1189              	 .loc 3 246 3
 1190 0070 0D48     	 ldr r0,.L67+4
 1191 0072 FFF7FEFF 	 bl PWM_CCU4_Start
 1192 0076 0EE0     	 b .L66
 1193              	.L65:
 247:../MainAlg/door_periph.c **** 	}
 248:../MainAlg/door_periph.c **** 	else
 249:../MainAlg/door_periph.c **** 	{
 250:../MainAlg/door_periph.c **** 		PWM_CCU4_Stop(&CLUTCH_PWM);
 1194              	 .loc 3 250 3
 1195 0078 0B48     	 ldr r0,.L67+4
 1196 007a FFF7FEFF 	 bl PWM_CCU4_Stop
 251:../MainAlg/door_periph.c **** 		DIGITAL_IO_SetOutputLow(&HS_SW_1);
 1197              	 .loc 3 251 3
 1198 007e 0D48     	 ldr r0,.L67+16
 1199 0080 FFF7FEFF 	 bl DIGITAL_IO_SetOutputLow
 252:../MainAlg/door_periph.c **** 		DIGITAL_IO_SetOutputLow(&HS_SW_2);
 1200              	 .loc 3 252 3
 1201 0084 0C48     	 ldr r0,.L67+20
 1202 0086 FFF7FEFF 	 bl DIGITAL_IO_SetOutputLow
 253:../MainAlg/door_periph.c **** 		count_en = 0;
 1203              	 .loc 3 253 12
 1204 008a 084B     	 ldr r3,.L67+8
 1205 008c 0022     	 movs r2,#0
 1206 008e 1A60     	 str r2,[r3]
 254:../MainAlg/door_periph.c **** 		timer = 0;
 1207              	 .loc 3 254 9
 1208 0090 074B     	 ldr r3,.L67+12
 1209 0092 0022     	 movs r2,#0
 1210 0094 1A60     	 str r2,[r3]
 1211              	.L66:
 255:../MainAlg/door_periph.c **** 	}
 256:../MainAlg/door_periph.c **** 	cmd_prev = cmd;
 1212              	 .loc 3 256 11
 1213 0096 034A     	 ldr r2,.L67
 1214 0098 7B68     	 ldr r3,[r7,#4]
 1215 009a 1360     	 str r3,[r2]
 257:../MainAlg/door_periph.c **** }
 1216              	 .loc 3 257 1
 1217 009c 00BF     	 nop
 1218 009e 0837     	 adds r7,r7,#8
 1219              	.LCFI68:
 1220              	 .cfi_def_cfa_offset 8
 1221 00a0 BD46     	 mov sp,r7
 1222              	.LCFI69:
 1223              	 .cfi_def_cfa_register 13
 1224              	 
 1225 00a2 80BD     	 pop {r7,pc}
 1226              	.L68:
 1227              	 .align 2
 1228              	.L67:
 1229 00a4 00000000 	 .word cmd_prev.7
 1230 00a8 00000000 	 .word CLUTCH_PWM
 1231 00ac 00000000 	 .word count_en.6
 1232 00b0 00000000 	 .word timer.5
 1233 00b4 00000000 	 .word HS_SW_1
 1234 00b8 00000000 	 .word HS_SW_2
 1235              	 .cfi_endproc
 1236              	.LFE564:
 1238              	 .section .text.WritePassengerButton,"ax",%progbits
 1239              	 .align 1
 1240              	 .global WritePassengerButton
 1241              	 .syntax unified
 1242              	 .thumb
 1243              	 .thumb_func
 1244              	 .fpu fpv4-sp-d16
 1246              	WritePassengerButton:
 1247              	.LFB565:
 258:../MainAlg/door_periph.c **** 
 259:../MainAlg/door_periph.c **** void WritePassengerButton(int32_t cmd)
 260:../MainAlg/door_periph.c **** {
 1248              	 .loc 3 260 1
 1249              	 .cfi_startproc
 1250              	 
 1251              	 
 1252 0000 80B5     	 push {r7,lr}
 1253              	.LCFI70:
 1254              	 .cfi_def_cfa_offset 8
 1255              	 .cfi_offset 7,-8
 1256              	 .cfi_offset 14,-4
 1257 0002 82B0     	 sub sp,sp,#8
 1258              	.LCFI71:
 1259              	 .cfi_def_cfa_offset 16
 1260 0004 00AF     	 add r7,sp,#0
 1261              	.LCFI72:
 1262              	 .cfi_def_cfa_register 7
 1263 0006 7860     	 str r0,[r7,#4]
 261:../MainAlg/door_periph.c **** 	if(cmd)
 1264              	 .loc 3 261 4
 1265 0008 7B68     	 ldr r3,[r7,#4]
 1266 000a 002B     	 cmp r3,#0
 1267 000c 04D0     	 beq .L70
 262:../MainAlg/door_periph.c **** 	{
 263:../MainAlg/door_periph.c **** 		BUS_IO_Write(&GROUP_OUT, 0xFF);
 1268              	 .loc 3 263 3
 1269 000e FF21     	 movs r1,#255
 1270 0010 0548     	 ldr r0,.L73
 1271 0012 FFF7FEFF 	 bl BUS_IO_Write
 264:../MainAlg/door_periph.c **** 	}
 265:../MainAlg/door_periph.c **** 	else
 266:../MainAlg/door_periph.c **** 	{
 267:../MainAlg/door_periph.c **** 		BUS_IO_Write(&GROUP_OUT, 0x00);
 268:../MainAlg/door_periph.c **** 	}
 269:../MainAlg/door_periph.c **** }
 1272              	 .loc 3 269 1
 1273 0016 03E0     	 b .L72
 1274              	.L70:
 267:../MainAlg/door_periph.c **** 	}
 1275              	 .loc 3 267 3
 1276 0018 0021     	 movs r1,#0
 1277 001a 0348     	 ldr r0,.L73
 1278 001c FFF7FEFF 	 bl BUS_IO_Write
 1279              	.L72:
 1280              	 .loc 3 269 1
 1281 0020 00BF     	 nop
 1282 0022 0837     	 adds r7,r7,#8
 1283              	.LCFI73:
 1284              	 .cfi_def_cfa_offset 8
 1285 0024 BD46     	 mov sp,r7
 1286              	.LCFI74:
 1287              	 .cfi_def_cfa_register 13
 1288              	 
 1289 0026 80BD     	 pop {r7,pc}
 1290              	.L74:
 1291              	 .align 2
 1292              	.L73:
 1293 0028 00000000 	 .word GROUP_OUT
 1294              	 .cfi_endproc
 1295              	.LFE565:
 1297              	 .section .text.Blockage,"ax",%progbits
 1298              	 .align 1
 1299              	 .global Blockage
 1300              	 .syntax unified
 1301              	 .thumb
 1302              	 .thumb_func
 1303              	 .fpu fpv4-sp-d16
 1305              	Blockage:
 1306              	.LFB566:
 270:../MainAlg/door_periph.c **** 
 271:../MainAlg/door_periph.c **** 
 272:../MainAlg/door_periph.c **** int32_t Blockage(int32_t cmd)
 273:../MainAlg/door_periph.c **** {
 1307              	 .loc 3 273 1
 1308              	 .cfi_startproc
 1309              	 
 1310              	 
 1311              	 
 1312 0000 80B4     	 push {r7}
 1313              	.LCFI75:
 1314              	 .cfi_def_cfa_offset 4
 1315              	 .cfi_offset 7,-4
 1316 0002 83B0     	 sub sp,sp,#12
 1317              	.LCFI76:
 1318              	 .cfi_def_cfa_offset 16
 1319 0004 00AF     	 add r7,sp,#0
 1320              	.LCFI77:
 1321              	 .cfi_def_cfa_register 7
 1322 0006 7860     	 str r0,[r7,#4]
 274:../MainAlg/door_periph.c **** 	static int32_t timer = 0;
 275:../MainAlg/door_periph.c **** 	static int32_t previous_position = 0;
 276:../MainAlg/door_periph.c **** 
 277:../MainAlg/door_periph.c **** 	if (cmd)
 1323              	 .loc 3 277 5
 1324 0008 7B68     	 ldr r3,[r7,#4]
 1325 000a 002B     	 cmp r3,#0
 1326 000c 1AD0     	 beq .L76
 278:../MainAlg/door_periph.c **** 	{
 279:../MainAlg/door_periph.c **** 		if (Position == previous_position)
 1327              	 .loc 3 279 16
 1328 000e 134B     	 ldr r3,.L80
 1329 0010 1A68     	 ldr r2,[r3]
 1330 0012 134B     	 ldr r3,.L80+4
 1331 0014 1B68     	 ldr r3,[r3]
 1332              	 .loc 3 279 6
 1333 0016 9A42     	 cmp r2,r3
 1334 0018 19D1     	 bne .L77
 280:../MainAlg/door_periph.c **** 		{
 281:../MainAlg/door_periph.c **** 			timer++;
 1335              	 .loc 3 281 9
 1336 001a 124B     	 ldr r3,.L80+8
 1337 001c 1B68     	 ldr r3,[r3]
 1338 001e 0133     	 adds r3,r3,#1
 1339 0020 104A     	 ldr r2,.L80+8
 1340 0022 1360     	 str r3,[r2]
 282:../MainAlg/door_periph.c **** 			if ((timer * MAIN_TIMER_TIME_MS) >= BLOCKAGE_TIME_MS)
 1341              	 .loc 3 282 15
 1342 0024 0F4B     	 ldr r3,.L80+8
 1343 0026 1A68     	 ldr r2,[r3]
 1344 0028 1346     	 mov r3,r2
 1345 002a 9B00     	 lsls r3,r3,#2
 1346 002c 1344     	 add r3,r3,r2
 1347 002e 5B00     	 lsls r3,r3,#1
 1348              	 .loc 3 282 7
 1349 0030 B3F5967F 	 cmp r3,#300
 1350 0034 01DB     	 blt .L78
 283:../MainAlg/door_periph.c **** 			{
 284:../MainAlg/door_periph.c **** 				return 1;
 1351              	 .loc 3 284 12
 1352 0036 0123     	 movs r3,#1
 1353 0038 09E0     	 b .L75
 1354              	.L78:
 285:../MainAlg/door_periph.c **** 			}
 286:../MainAlg/door_periph.c **** 			else
 287:../MainAlg/door_periph.c **** 			{
 288:../MainAlg/door_periph.c **** 				timer = 0;
 1355              	 .loc 3 288 11
 1356 003a 0A4B     	 ldr r3,.L80+8
 1357 003c 0022     	 movs r2,#0
 1358 003e 1A60     	 str r2,[r3]
 289:../MainAlg/door_periph.c **** 				return 0;
 1359              	 .loc 3 289 12
 1360 0040 0023     	 movs r3,#0
 1361 0042 04E0     	 b .L75
 1362              	.L76:
 290:../MainAlg/door_periph.c **** 			}
 291:../MainAlg/door_periph.c **** 		}
 292:../MainAlg/door_periph.c **** 	}
 293:../MainAlg/door_periph.c **** 	else
 294:../MainAlg/door_periph.c **** 	{
 295:../MainAlg/door_periph.c **** 		timer = 0;
 1363              	 .loc 3 295 9
 1364 0044 074B     	 ldr r3,.L80+8
 1365 0046 0022     	 movs r2,#0
 1366 0048 1A60     	 str r2,[r3]
 296:../MainAlg/door_periph.c **** 		return 0;
 1367              	 .loc 3 296 10
 1368 004a 0023     	 movs r3,#0
 1369 004c FFE7     	 b .L75
 1370              	.L77:
 1371              	.L75:
 297:../MainAlg/door_periph.c **** 	}
 298:../MainAlg/door_periph.c **** }
 1372              	 .loc 3 298 1
 1373 004e 1846     	 mov r0,r3
 1374 0050 0C37     	 adds r7,r7,#12
 1375              	.LCFI78:
 1376              	 .cfi_def_cfa_offset 4
 1377 0052 BD46     	 mov sp,r7
 1378              	.LCFI79:
 1379              	 .cfi_def_cfa_register 13
 1380              	 
 1381 0054 5DF8047B 	 ldr r7,[sp],#4
 1382              	.LCFI80:
 1383              	 .cfi_restore 7
 1384              	 .cfi_def_cfa_offset 0
 1385 0058 7047     	 bx lr
 1386              	.L81:
 1387 005a 00BF     	 .align 2
 1388              	.L80:
 1389 005c 00000000 	 .word Position
 1390 0060 00000000 	 .word previous_position.4
 1391 0064 00000000 	 .word timer.3
 1392              	 .cfi_endproc
 1393              	.LFE566:
 1395              	 .section .text.WriteRubberLights,"ax",%progbits
 1396              	 .align 1
 1397              	 .global WriteRubberLights
 1398              	 .syntax unified
 1399              	 .thumb
 1400              	 .thumb_func
 1401              	 .fpu fpv4-sp-d16
 1403              	WriteRubberLights:
 1404              	.LFB567:
 299:../MainAlg/door_periph.c **** 
 300:../MainAlg/door_periph.c **** 
 301:../MainAlg/door_periph.c **** void WriteRubberLights(uint32_t color, int32_t mode, int32_t time_ms)
 302:../MainAlg/door_periph.c **** {
 1405              	 .loc 3 302 1
 1406              	 .cfi_startproc
 1407              	 
 1408              	 
 1409              	 
 1410 0000 80B4     	 push {r7}
 1411              	.LCFI81:
 1412              	 .cfi_def_cfa_offset 4
 1413              	 .cfi_offset 7,-4
 1414 0002 85B0     	 sub sp,sp,#20
 1415              	.LCFI82:
 1416              	 .cfi_def_cfa_offset 24
 1417 0004 00AF     	 add r7,sp,#0
 1418              	.LCFI83:
 1419              	 .cfi_def_cfa_register 7
 1420 0006 F860     	 str r0,[r7,#12]
 1421 0008 B960     	 str r1,[r7,#8]
 1422 000a 7A60     	 str r2,[r7,#4]
 303:../MainAlg/door_periph.c **** static int32_t timer = 0;
 304:../MainAlg/door_periph.c **** static int32_t previous_mode = 0;
 305:../MainAlg/door_periph.c **** 
 306:../MainAlg/door_periph.c **** 	if ((mode == previous_mode)) //    
 1423              	 .loc 3 306 12
 1424 000c 124B     	 ldr r3,.L97
 1425 000e 1B68     	 ldr r3,[r3]
 1426              	 .loc 3 306 5
 1427 0010 BA68     	 ldr r2,[r7,#8]
 1428 0012 9A42     	 cmp r2,r3
 1429 0014 40F05181 	 bne .L83
 307:../MainAlg/door_periph.c **** 	{
 308:../MainAlg/door_periph.c **** 		if (mode == MODE_TIME_ON) //   time_ms,  
 1430              	 .loc 3 308 6
 1431 0018 BB68     	 ldr r3,[r7,#8]
 1432 001a 032B     	 cmp r3,#3
 1433 001c 69D1     	 bne .L84
 309:../MainAlg/door_periph.c **** 		{
 310:../MainAlg/door_periph.c **** 			if (timer * MAIN_TIMER_TIME_MS >= time_ms)
 1434              	 .loc 3 310 14
 1435 001e 0F4B     	 ldr r3,.L97+4
 1436 0020 1A68     	 ldr r2,[r3]
 1437 0022 1346     	 mov r3,r2
 1438 0024 9B00     	 lsls r3,r3,#2
 1439 0026 1344     	 add r3,r3,r2
 1440 0028 5B00     	 lsls r3,r3,#1
 1441 002a 1A46     	 mov r2,r3
 1442              	 .loc 3 310 7
 1443 002c 7B68     	 ldr r3,[r7,#4]
 1444 002e 9342     	 cmp r3,r2
 1445 0030 18DC     	 bgt .L85
 311:../MainAlg/door_periph.c **** 			{
 312:../MainAlg/door_periph.c **** 				led_rubber.red_outern = 0;
 1446              	 .loc 3 312 27
 1447 0032 0B4B     	 ldr r3,.L97+8
 1448 0034 0022     	 movs r2,#0
 1449 0036 1A60     	 str r2,[r3]
 313:../MainAlg/door_periph.c **** 				led_rubber.green_outern = 0;
 1450              	 .loc 3 313 29
 1451 0038 094B     	 ldr r3,.L97+8
 1452 003a 0022     	 movs r2,#0
 1453 003c 5A60     	 str r2,[r3,#4]
 314:../MainAlg/door_periph.c **** 				led_rubber.blue_outern = 0;
 1454              	 .loc 3 314 28
 1455 003e 084B     	 ldr r3,.L97+8
 1456 0040 0022     	 movs r2,#0
 1457 0042 9A60     	 str r2,[r3,#8]
 315:../MainAlg/door_periph.c **** 				led_rubber.red_intern = 0;
 1458              	 .loc 3 315 27
 1459 0044 064B     	 ldr r3,.L97+8
 1460 0046 0022     	 movs r2,#0
 1461 0048 DA60     	 str r2,[r3,#12]
 316:../MainAlg/door_periph.c **** 				led_rubber.green_intern = 0;
 1462              	 .loc 3 316 29
 1463 004a 054B     	 ldr r3,.L97+8
 1464 004c 0022     	 movs r2,#0
 1465 004e 1A61     	 str r2,[r3,#16]
 317:../MainAlg/door_periph.c **** 				led_rubber.blue_intern = 0;
 1466              	 .loc 3 317 28
 1467 0050 034B     	 ldr r3,.L97+8
 1468 0052 0022     	 movs r2,#0
 1469 0054 5A61     	 str r2,[r3,#20]
 1470 0056 4CE0     	 b .L84
 1471              	.L98:
 1472              	 .align 2
 1473              	.L97:
 1474 0058 00000000 	 .word previous_mode.2
 1475 005c 00000000 	 .word timer.1
 1476 0060 00000000 	 .word led_rubber
 1477              	.L85:
 318:../MainAlg/door_periph.c **** 			}
 319:../MainAlg/door_periph.c **** 			else
 320:../MainAlg/door_periph.c **** 			{
 321:../MainAlg/door_periph.c **** 				timer ++;
 1478              	 .loc 3 321 11
 1479 0064 984B     	 ldr r3,.L99
 1480 0066 1B68     	 ldr r3,[r3]
 1481 0068 0133     	 adds r3,r3,#1
 1482 006a 974A     	 ldr r2,.L99
 1483 006c 1360     	 str r3,[r2]
 322:../MainAlg/door_periph.c **** 				if (color == CL_RED)
 1484              	 .loc 3 322 8
 1485 006e FB68     	 ldr r3,[r7,#12]
 1486 0070 B3F17F4F 	 cmp r3,#-16777216
 1487 0074 11D1     	 bne .L86
 323:../MainAlg/door_periph.c **** 				{
 324:../MainAlg/door_periph.c **** 					led_rubber.red_outern = OUTER_RUBBER_PERCENT;
 1488              	 .loc 3 324 28
 1489 0076 954B     	 ldr r3,.L99+4
 1490 0078 3C22     	 movs r2,#60
 1491 007a 1A60     	 str r2,[r3]
 325:../MainAlg/door_periph.c **** 					led_rubber.green_outern = 0;
 1492              	 .loc 3 325 30
 1493 007c 934B     	 ldr r3,.L99+4
 1494 007e 0022     	 movs r2,#0
 1495 0080 5A60     	 str r2,[r3,#4]
 326:../MainAlg/door_periph.c **** 					led_rubber.blue_outern = 0;
 1496              	 .loc 3 326 29
 1497 0082 924B     	 ldr r3,.L99+4
 1498 0084 0022     	 movs r2,#0
 1499 0086 9A60     	 str r2,[r3,#8]
 327:../MainAlg/door_periph.c **** 					led_rubber.red_intern = INTER_RUBBER_PERCENT;
 1500              	 .loc 3 327 28
 1501 0088 904B     	 ldr r3,.L99+4
 1502 008a 1422     	 movs r2,#20
 1503 008c DA60     	 str r2,[r3,#12]
 328:../MainAlg/door_periph.c **** 					led_rubber.green_intern = 0;
 1504              	 .loc 3 328 30
 1505 008e 8F4B     	 ldr r3,.L99+4
 1506 0090 0022     	 movs r2,#0
 1507 0092 1A61     	 str r2,[r3,#16]
 329:../MainAlg/door_periph.c **** 					led_rubber.blue_intern = 0;
 1508              	 .loc 3 329 29
 1509 0094 8D4B     	 ldr r3,.L99+4
 1510 0096 0022     	 movs r2,#0
 1511 0098 5A61     	 str r2,[r3,#20]
 1512              	.L86:
 330:../MainAlg/door_periph.c **** 
 331:../MainAlg/door_periph.c **** 				}
 332:../MainAlg/door_periph.c **** 				if (color == CL_GREEN)
 1513              	 .loc 3 332 8
 1514 009a FB68     	 ldr r3,[r7,#12]
 1515 009c B3F57F0F 	 cmp r3,#16711680
 1516 00a0 11D1     	 bne .L87
 333:../MainAlg/door_periph.c **** 				{
 334:../MainAlg/door_periph.c **** 					led_rubber.red_outern = 0;
 1517              	 .loc 3 334 28
 1518 00a2 8A4B     	 ldr r3,.L99+4
 1519 00a4 0022     	 movs r2,#0
 1520 00a6 1A60     	 str r2,[r3]
 335:../MainAlg/door_periph.c **** 					led_rubber.green_outern = OUTER_RUBBER_PERCENT;
 1521              	 .loc 3 335 30
 1522 00a8 884B     	 ldr r3,.L99+4
 1523 00aa 3C22     	 movs r2,#60
 1524 00ac 5A60     	 str r2,[r3,#4]
 336:../MainAlg/door_periph.c **** 					led_rubber.blue_outern = 0;
 1525              	 .loc 3 336 29
 1526 00ae 874B     	 ldr r3,.L99+4
 1527 00b0 0022     	 movs r2,#0
 1528 00b2 9A60     	 str r2,[r3,#8]
 337:../MainAlg/door_periph.c **** 					led_rubber.red_intern = 0;
 1529              	 .loc 3 337 28
 1530 00b4 854B     	 ldr r3,.L99+4
 1531 00b6 0022     	 movs r2,#0
 1532 00b8 DA60     	 str r2,[r3,#12]
 338:../MainAlg/door_periph.c **** 					led_rubber.green_intern = INTER_RUBBER_PERCENT;
 1533              	 .loc 3 338 30
 1534 00ba 844B     	 ldr r3,.L99+4
 1535 00bc 1422     	 movs r2,#20
 1536 00be 1A61     	 str r2,[r3,#16]
 339:../MainAlg/door_periph.c **** 					led_rubber.blue_intern = 0;
 1537              	 .loc 3 339 29
 1538 00c0 824B     	 ldr r3,.L99+4
 1539 00c2 0022     	 movs r2,#0
 1540 00c4 5A61     	 str r2,[r3,#20]
 1541              	.L87:
 340:../MainAlg/door_periph.c **** 
 341:../MainAlg/door_periph.c **** 				}
 342:../MainAlg/door_periph.c **** 				if (color == CL_YELLOW)
 1542              	 .loc 3 342 8
 1543 00c6 FB68     	 ldr r3,[r7,#12]
 1544 00c8 13F5803F 	 cmn r3,#65536
 1545 00cc 11D1     	 bne .L84
 343:../MainAlg/door_periph.c **** 				{
 344:../MainAlg/door_periph.c **** 					led_rubber.red_outern = OUTER_RUBBER_PERCENT/2;
 1546              	 .loc 3 344 28
 1547 00ce 7F4B     	 ldr r3,.L99+4
 1548 00d0 1E22     	 movs r2,#30
 1549 00d2 1A60     	 str r2,[r3]
 345:../MainAlg/door_periph.c **** 					led_rubber.green_outern = OUTER_RUBBER_PERCENT/2;
 1550              	 .loc 3 345 30
 1551 00d4 7D4B     	 ldr r3,.L99+4
 1552 00d6 1E22     	 movs r2,#30
 1553 00d8 5A60     	 str r2,[r3,#4]
 346:../MainAlg/door_periph.c **** 					led_rubber.blue_outern = 0;
 1554              	 .loc 3 346 29
 1555 00da 7C4B     	 ldr r3,.L99+4
 1556 00dc 0022     	 movs r2,#0
 1557 00de 9A60     	 str r2,[r3,#8]
 347:../MainAlg/door_periph.c **** 					led_rubber.red_intern = INTER_RUBBER_PERCENT;
 1558              	 .loc 3 347 28
 1559 00e0 7A4B     	 ldr r3,.L99+4
 1560 00e2 1422     	 movs r2,#20
 1561 00e4 DA60     	 str r2,[r3,#12]
 348:../MainAlg/door_periph.c **** 					led_rubber.green_intern = INTER_RUBBER_PERCENT;
 1562              	 .loc 3 348 30
 1563 00e6 794B     	 ldr r3,.L99+4
 1564 00e8 1422     	 movs r2,#20
 1565 00ea 1A61     	 str r2,[r3,#16]
 349:../MainAlg/door_periph.c **** 					led_rubber.blue_intern = 0;
 1566              	 .loc 3 349 29
 1567 00ec 774B     	 ldr r3,.L99+4
 1568 00ee 0022     	 movs r2,#0
 1569 00f0 5A61     	 str r2,[r3,#20]
 1570              	.L84:
 350:../MainAlg/door_periph.c **** 
 351:../MainAlg/door_periph.c **** 				}
 352:../MainAlg/door_periph.c **** 			}
 353:../MainAlg/door_periph.c **** 		}// end mode time on
 354:../MainAlg/door_periph.c **** 
 355:../MainAlg/door_periph.c **** 		if (mode == MODE_BLINK)
 1571              	 .loc 3 355 6
 1572 00f2 BB68     	 ldr r3,[r7,#8]
 1573 00f4 022B     	 cmp r3,#2
 1574 00f6 40F08680 	 bne .L88
 356:../MainAlg/door_periph.c **** 		{
 357:../MainAlg/door_periph.c **** 			timer ++;
 1575              	 .loc 3 357 10
 1576 00fa 734B     	 ldr r3,.L99
 1577 00fc 1B68     	 ldr r3,[r3]
 1578 00fe 0133     	 adds r3,r3,#1
 1579 0100 714A     	 ldr r2,.L99
 1580 0102 1360     	 str r3,[r2]
 358:../MainAlg/door_periph.c **** 
 359:../MainAlg/door_periph.c **** 			if (timer*10 < time_ms) //   
 1581              	 .loc 3 359 13
 1582 0104 704B     	 ldr r3,.L99
 1583 0106 1A68     	 ldr r2,[r3]
 1584 0108 1346     	 mov r3,r2
 1585 010a 9B00     	 lsls r3,r3,#2
 1586 010c 1344     	 add r3,r3,r2
 1587 010e 5B00     	 lsls r3,r3,#1
 1588 0110 1A46     	 mov r2,r3
 1589              	 .loc 3 359 7
 1590 0112 7B68     	 ldr r3,[r7,#4]
 1591 0114 9342     	 cmp r3,r2
 1592 0116 41DD     	 ble .L89
 360:../MainAlg/door_periph.c **** 			{
 361:../MainAlg/door_periph.c **** 				if (color == CL_RED)
 1593              	 .loc 3 361 8
 1594 0118 FB68     	 ldr r3,[r7,#12]
 1595 011a B3F17F4F 	 cmp r3,#-16777216
 1596 011e 11D1     	 bne .L90
 362:../MainAlg/door_periph.c **** 				{
 363:../MainAlg/door_periph.c **** 					led_rubber.red_outern = OUTER_RUBBER_PERCENT;
 1597              	 .loc 3 363 28
 1598 0120 6A4B     	 ldr r3,.L99+4
 1599 0122 3C22     	 movs r2,#60
 1600 0124 1A60     	 str r2,[r3]
 364:../MainAlg/door_periph.c **** 					led_rubber.green_outern = 0;
 1601              	 .loc 3 364 30
 1602 0126 694B     	 ldr r3,.L99+4
 1603 0128 0022     	 movs r2,#0
 1604 012a 5A60     	 str r2,[r3,#4]
 365:../MainAlg/door_periph.c **** 					led_rubber.blue_outern = 0;
 1605              	 .loc 3 365 29
 1606 012c 674B     	 ldr r3,.L99+4
 1607 012e 0022     	 movs r2,#0
 1608 0130 9A60     	 str r2,[r3,#8]
 366:../MainAlg/door_periph.c **** 					led_rubber.red_intern = INTER_RUBBER_PERCENT;
 1609              	 .loc 3 366 28
 1610 0132 664B     	 ldr r3,.L99+4
 1611 0134 1422     	 movs r2,#20
 1612 0136 DA60     	 str r2,[r3,#12]
 367:../MainAlg/door_periph.c **** 					led_rubber.green_intern = 0;
 1613              	 .loc 3 367 30
 1614 0138 644B     	 ldr r3,.L99+4
 1615 013a 0022     	 movs r2,#0
 1616 013c 1A61     	 str r2,[r3,#16]
 368:../MainAlg/door_periph.c **** 					led_rubber.blue_intern = 0;
 1617              	 .loc 3 368 29
 1618 013e 634B     	 ldr r3,.L99+4
 1619 0140 0022     	 movs r2,#0
 1620 0142 5A61     	 str r2,[r3,#20]
 1621              	.L90:
 369:../MainAlg/door_periph.c **** 
 370:../MainAlg/door_periph.c **** 				}
 371:../MainAlg/door_periph.c **** 				if (color == CL_GREEN)
 1622              	 .loc 3 371 8
 1623 0144 FB68     	 ldr r3,[r7,#12]
 1624 0146 B3F57F0F 	 cmp r3,#16711680
 1625 014a 11D1     	 bne .L91
 372:../MainAlg/door_periph.c **** 				{
 373:../MainAlg/door_periph.c **** 					led_rubber.red_outern = 0;
 1626              	 .loc 3 373 28
 1627 014c 5F4B     	 ldr r3,.L99+4
 1628 014e 0022     	 movs r2,#0
 1629 0150 1A60     	 str r2,[r3]
 374:../MainAlg/door_periph.c **** 					led_rubber.green_outern = OUTER_RUBBER_PERCENT;
 1630              	 .loc 3 374 30
 1631 0152 5E4B     	 ldr r3,.L99+4
 1632 0154 3C22     	 movs r2,#60
 1633 0156 5A60     	 str r2,[r3,#4]
 375:../MainAlg/door_periph.c **** 					led_rubber.blue_outern = 0;
 1634              	 .loc 3 375 29
 1635 0158 5C4B     	 ldr r3,.L99+4
 1636 015a 0022     	 movs r2,#0
 1637 015c 9A60     	 str r2,[r3,#8]
 376:../MainAlg/door_periph.c **** 					led_rubber.red_intern = 0;
 1638              	 .loc 3 376 28
 1639 015e 5B4B     	 ldr r3,.L99+4
 1640 0160 0022     	 movs r2,#0
 1641 0162 DA60     	 str r2,[r3,#12]
 377:../MainAlg/door_periph.c **** 					led_rubber.green_intern = INTER_RUBBER_PERCENT;
 1642              	 .loc 3 377 30
 1643 0164 594B     	 ldr r3,.L99+4
 1644 0166 1422     	 movs r2,#20
 1645 0168 1A61     	 str r2,[r3,#16]
 378:../MainAlg/door_periph.c **** 					led_rubber.blue_intern = 0;
 1646              	 .loc 3 378 29
 1647 016a 584B     	 ldr r3,.L99+4
 1648 016c 0022     	 movs r2,#0
 1649 016e 5A61     	 str r2,[r3,#20]
 1650              	.L91:
 379:../MainAlg/door_periph.c **** 				}
 380:../MainAlg/door_periph.c **** 				if (color == CL_YELLOW)
 1651              	 .loc 3 380 8
 1652 0170 FB68     	 ldr r3,[r7,#12]
 1653 0172 13F5803F 	 cmn r3,#65536
 1654 0176 11D1     	 bne .L89
 381:../MainAlg/door_periph.c **** 				{
 382:../MainAlg/door_periph.c **** 					led_rubber.red_outern = OUTER_RUBBER_PERCENT/2;
 1655              	 .loc 3 382 28
 1656 0178 544B     	 ldr r3,.L99+4
 1657 017a 1E22     	 movs r2,#30
 1658 017c 1A60     	 str r2,[r3]
 383:../MainAlg/door_periph.c **** 					led_rubber.green_outern = OUTER_RUBBER_PERCENT/2;
 1659              	 .loc 3 383 30
 1660 017e 534B     	 ldr r3,.L99+4
 1661 0180 1E22     	 movs r2,#30
 1662 0182 5A60     	 str r2,[r3,#4]
 384:../MainAlg/door_periph.c **** 					led_rubber.blue_outern = 0;
 1663              	 .loc 3 384 29
 1664 0184 514B     	 ldr r3,.L99+4
 1665 0186 0022     	 movs r2,#0
 1666 0188 9A60     	 str r2,[r3,#8]
 385:../MainAlg/door_periph.c **** 					led_rubber.red_intern = INTER_RUBBER_PERCENT;
 1667              	 .loc 3 385 28
 1668 018a 504B     	 ldr r3,.L99+4
 1669 018c 1422     	 movs r2,#20
 1670 018e DA60     	 str r2,[r3,#12]
 386:../MainAlg/door_periph.c **** 					led_rubber.green_intern = INTER_RUBBER_PERCENT;
 1671              	 .loc 3 386 30
 1672 0190 4E4B     	 ldr r3,.L99+4
 1673 0192 1422     	 movs r2,#20
 1674 0194 1A61     	 str r2,[r3,#16]
 387:../MainAlg/door_periph.c **** 					led_rubber.blue_intern = 0;
 1675              	 .loc 3 387 29
 1676 0196 4D4B     	 ldr r3,.L99+4
 1677 0198 0022     	 movs r2,#0
 1678 019a 5A61     	 str r2,[r3,#20]
 1679              	.L89:
 388:../MainAlg/door_periph.c **** 
 389:../MainAlg/door_periph.c **** 				}
 390:../MainAlg/door_periph.c **** 			}
 391:../MainAlg/door_periph.c **** 			if ((timer*10 < time_ms*2) && (timer*10 >= time_ms)) //   
 1680              	 .loc 3 391 14
 1681 019c 4A4B     	 ldr r3,.L99
 1682 019e 1A68     	 ldr r2,[r3]
 1683 01a0 1346     	 mov r3,r2
 1684 01a2 9B00     	 lsls r3,r3,#2
 1685 01a4 1344     	 add r3,r3,r2
 1686 01a6 5B00     	 lsls r3,r3,#1
 1687 01a8 1A46     	 mov r2,r3
 1688              	 .loc 3 391 27
 1689 01aa 7B68     	 ldr r3,[r7,#4]
 1690 01ac 5B00     	 lsls r3,r3,#1
 1691              	 .loc 3 391 7
 1692 01ae 9A42     	 cmp r2,r3
 1693 01b0 1BDA     	 bge .L92
 1694              	 .loc 3 391 40 discriminator 1
 1695 01b2 454B     	 ldr r3,.L99
 1696 01b4 1A68     	 ldr r2,[r3]
 1697 01b6 1346     	 mov r3,r2
 1698 01b8 9B00     	 lsls r3,r3,#2
 1699 01ba 1344     	 add r3,r3,r2
 1700 01bc 5B00     	 lsls r3,r3,#1
 1701 01be 1A46     	 mov r2,r3
 1702              	 .loc 3 391 31 discriminator 1
 1703 01c0 7B68     	 ldr r3,[r7,#4]
 1704 01c2 9342     	 cmp r3,r2
 1705 01c4 11DC     	 bgt .L92
 392:../MainAlg/door_periph.c **** 			{
 393:../MainAlg/door_periph.c **** 				led_rubber.red_outern = 0;
 1706              	 .loc 3 393 27
 1707 01c6 414B     	 ldr r3,.L99+4
 1708 01c8 0022     	 movs r2,#0
 1709 01ca 1A60     	 str r2,[r3]
 394:../MainAlg/door_periph.c **** 				led_rubber.green_outern = 0;
 1710              	 .loc 3 394 29
 1711 01cc 3F4B     	 ldr r3,.L99+4
 1712 01ce 0022     	 movs r2,#0
 1713 01d0 5A60     	 str r2,[r3,#4]
 395:../MainAlg/door_periph.c **** 				led_rubber.blue_outern = 0;
 1714              	 .loc 3 395 28
 1715 01d2 3E4B     	 ldr r3,.L99+4
 1716 01d4 0022     	 movs r2,#0
 1717 01d6 9A60     	 str r2,[r3,#8]
 396:../MainAlg/door_periph.c **** 				led_rubber.red_intern = 0;
 1718              	 .loc 3 396 27
 1719 01d8 3C4B     	 ldr r3,.L99+4
 1720 01da 0022     	 movs r2,#0
 1721 01dc DA60     	 str r2,[r3,#12]
 397:../MainAlg/door_periph.c **** 				led_rubber.green_intern = 0;
 1722              	 .loc 3 397 29
 1723 01de 3B4B     	 ldr r3,.L99+4
 1724 01e0 0022     	 movs r2,#0
 1725 01e2 1A61     	 str r2,[r3,#16]
 398:../MainAlg/door_periph.c **** 				led_rubber.blue_intern = 0;
 1726              	 .loc 3 398 28
 1727 01e4 394B     	 ldr r3,.L99+4
 1728 01e6 0022     	 movs r2,#0
 1729 01e8 5A61     	 str r2,[r3,#20]
 1730              	.L92:
 399:../MainAlg/door_periph.c **** 			}
 400:../MainAlg/door_periph.c **** 			if (timer*10 >= time_ms*2)
 1731              	 .loc 3 400 13
 1732 01ea 374B     	 ldr r3,.L99
 1733 01ec 1A68     	 ldr r2,[r3]
 1734 01ee 1346     	 mov r3,r2
 1735 01f0 9B00     	 lsls r3,r3,#2
 1736 01f2 1344     	 add r3,r3,r2
 1737 01f4 5B00     	 lsls r3,r3,#1
 1738 01f6 1A46     	 mov r2,r3
 1739              	 .loc 3 400 27
 1740 01f8 7B68     	 ldr r3,[r7,#4]
 1741 01fa 5B00     	 lsls r3,r3,#1
 1742              	 .loc 3 400 7
 1743 01fc 9A42     	 cmp r2,r3
 1744 01fe 02DB     	 blt .L88
 401:../MainAlg/door_periph.c **** 			{
 402:../MainAlg/door_periph.c **** 				timer = 0;
 1745              	 .loc 3 402 11
 1746 0200 314B     	 ldr r3,.L99
 1747 0202 0022     	 movs r2,#0
 1748 0204 1A60     	 str r2,[r3]
 1749              	.L88:
 403:../MainAlg/door_periph.c **** 			}
 404:../MainAlg/door_periph.c **** 		}
 405:../MainAlg/door_periph.c **** 		if (mode == MODE_OFF)
 1750              	 .loc 3 405 6
 1751 0206 BB68     	 ldr r3,[r7,#8]
 1752 0208 002B     	 cmp r3,#0
 1753 020a 11D1     	 bne .L93
 406:../MainAlg/door_periph.c **** 		{
 407:../MainAlg/door_periph.c **** 			led_rubber.red_outern = 0;
 1754              	 .loc 3 407 26
 1755 020c 2F4B     	 ldr r3,.L99+4
 1756 020e 0022     	 movs r2,#0
 1757 0210 1A60     	 str r2,[r3]
 408:../MainAlg/door_periph.c **** 			led_rubber.green_outern = 0;
 1758              	 .loc 3 408 28
 1759 0212 2E4B     	 ldr r3,.L99+4
 1760 0214 0022     	 movs r2,#0
 1761 0216 5A60     	 str r2,[r3,#4]
 409:../MainAlg/door_periph.c **** 			led_rubber.blue_outern = 0;
 1762              	 .loc 3 409 27
 1763 0218 2C4B     	 ldr r3,.L99+4
 1764 021a 0022     	 movs r2,#0
 1765 021c 9A60     	 str r2,[r3,#8]
 410:../MainAlg/door_periph.c **** 			led_rubber.red_intern = 0;
 1766              	 .loc 3 410 26
 1767 021e 2B4B     	 ldr r3,.L99+4
 1768 0220 0022     	 movs r2,#0
 1769 0222 DA60     	 str r2,[r3,#12]
 411:../MainAlg/door_periph.c **** 			led_rubber.green_intern = 0;
 1770              	 .loc 3 411 28
 1771 0224 294B     	 ldr r3,.L99+4
 1772 0226 0022     	 movs r2,#0
 1773 0228 1A61     	 str r2,[r3,#16]
 412:../MainAlg/door_periph.c **** 			led_rubber.blue_intern = 0;
 1774              	 .loc 3 412 27
 1775 022a 284B     	 ldr r3,.L99+4
 1776 022c 0022     	 movs r2,#0
 1777 022e 5A61     	 str r2,[r3,#20]
 1778              	.L93:
 413:../MainAlg/door_periph.c **** 		}
 414:../MainAlg/door_periph.c **** 		if (mode == MODE_ON)
 1779              	 .loc 3 414 6
 1780 0230 BB68     	 ldr r3,[r7,#8]
 1781 0232 012B     	 cmp r3,#1
 1782 0234 41D1     	 bne .L83
 415:../MainAlg/door_periph.c **** 		{
 416:../MainAlg/door_periph.c **** 			if (color == CL_RED)
 1783              	 .loc 3 416 7
 1784 0236 FB68     	 ldr r3,[r7,#12]
 1785 0238 B3F17F4F 	 cmp r3,#-16777216
 1786 023c 11D1     	 bne .L94
 417:../MainAlg/door_periph.c **** 			{
 418:../MainAlg/door_periph.c **** 				led_rubber.red_outern = OUTER_RUBBER_PERCENT;
 1787              	 .loc 3 418 27
 1788 023e 234B     	 ldr r3,.L99+4
 1789 0240 3C22     	 movs r2,#60
 1790 0242 1A60     	 str r2,[r3]
 419:../MainAlg/door_periph.c **** 				led_rubber.green_outern = 0;
 1791              	 .loc 3 419 29
 1792 0244 214B     	 ldr r3,.L99+4
 1793 0246 0022     	 movs r2,#0
 1794 0248 5A60     	 str r2,[r3,#4]
 420:../MainAlg/door_periph.c **** 				led_rubber.blue_outern = 0;
 1795              	 .loc 3 420 28
 1796 024a 204B     	 ldr r3,.L99+4
 1797 024c 0022     	 movs r2,#0
 1798 024e 9A60     	 str r2,[r3,#8]
 421:../MainAlg/door_periph.c **** 				led_rubber.red_intern = INTER_RUBBER_PERCENT;
 1799              	 .loc 3 421 27
 1800 0250 1E4B     	 ldr r3,.L99+4
 1801 0252 1422     	 movs r2,#20
 1802 0254 DA60     	 str r2,[r3,#12]
 422:../MainAlg/door_periph.c **** 				led_rubber.green_intern = 0;
 1803              	 .loc 3 422 29
 1804 0256 1D4B     	 ldr r3,.L99+4
 1805 0258 0022     	 movs r2,#0
 1806 025a 1A61     	 str r2,[r3,#16]
 423:../MainAlg/door_periph.c **** 				led_rubber.blue_intern = 0;
 1807              	 .loc 3 423 28
 1808 025c 1B4B     	 ldr r3,.L99+4
 1809 025e 0022     	 movs r2,#0
 1810 0260 5A61     	 str r2,[r3,#20]
 1811              	.L94:
 424:../MainAlg/door_periph.c **** 
 425:../MainAlg/door_periph.c **** 			}
 426:../MainAlg/door_periph.c **** 			if (color == CL_GREEN)
 1812              	 .loc 3 426 7
 1813 0262 FB68     	 ldr r3,[r7,#12]
 1814 0264 B3F57F0F 	 cmp r3,#16711680
 1815 0268 11D1     	 bne .L95
 427:../MainAlg/door_periph.c **** 			{
 428:../MainAlg/door_periph.c **** 				led_rubber.red_outern = 0;
 1816              	 .loc 3 428 27
 1817 026a 184B     	 ldr r3,.L99+4
 1818 026c 0022     	 movs r2,#0
 1819 026e 1A60     	 str r2,[r3]
 429:../MainAlg/door_periph.c **** 				led_rubber.green_outern = OUTER_RUBBER_PERCENT;
 1820              	 .loc 3 429 29
 1821 0270 164B     	 ldr r3,.L99+4
 1822 0272 3C22     	 movs r2,#60
 1823 0274 5A60     	 str r2,[r3,#4]
 430:../MainAlg/door_periph.c **** 				led_rubber.blue_outern = 0;
 1824              	 .loc 3 430 28
 1825 0276 154B     	 ldr r3,.L99+4
 1826 0278 0022     	 movs r2,#0
 1827 027a 9A60     	 str r2,[r3,#8]
 431:../MainAlg/door_periph.c **** 				led_rubber.red_intern = 0;
 1828              	 .loc 3 431 27
 1829 027c 134B     	 ldr r3,.L99+4
 1830 027e 0022     	 movs r2,#0
 1831 0280 DA60     	 str r2,[r3,#12]
 432:../MainAlg/door_periph.c **** 				led_rubber.green_intern = INTER_RUBBER_PERCENT;
 1832              	 .loc 3 432 29
 1833 0282 124B     	 ldr r3,.L99+4
 1834 0284 1422     	 movs r2,#20
 1835 0286 1A61     	 str r2,[r3,#16]
 433:../MainAlg/door_periph.c **** 				led_rubber.blue_intern = 0;
 1836              	 .loc 3 433 28
 1837 0288 104B     	 ldr r3,.L99+4
 1838 028a 0022     	 movs r2,#0
 1839 028c 5A61     	 str r2,[r3,#20]
 1840              	.L95:
 434:../MainAlg/door_periph.c **** 
 435:../MainAlg/door_periph.c **** 			}
 436:../MainAlg/door_periph.c **** 			if (color == CL_YELLOW)
 1841              	 .loc 3 436 7
 1842 028e FB68     	 ldr r3,[r7,#12]
 1843 0290 13F5803F 	 cmn r3,#65536
 1844 0294 11D1     	 bne .L83
 437:../MainAlg/door_periph.c **** 			{
 438:../MainAlg/door_periph.c **** 				led_rubber.red_outern = OUTER_RUBBER_PERCENT/2;
 1845              	 .loc 3 438 27
 1846 0296 0D4B     	 ldr r3,.L99+4
 1847 0298 1E22     	 movs r2,#30
 1848 029a 1A60     	 str r2,[r3]
 439:../MainAlg/door_periph.c **** 				led_rubber.green_outern = OUTER_RUBBER_PERCENT/2;
 1849              	 .loc 3 439 29
 1850 029c 0B4B     	 ldr r3,.L99+4
 1851 029e 1E22     	 movs r2,#30
 1852 02a0 5A60     	 str r2,[r3,#4]
 440:../MainAlg/door_periph.c **** 				led_rubber.blue_outern = 0;
 1853              	 .loc 3 440 28
 1854 02a2 0A4B     	 ldr r3,.L99+4
 1855 02a4 0022     	 movs r2,#0
 1856 02a6 9A60     	 str r2,[r3,#8]
 441:../MainAlg/door_periph.c **** 				led_rubber.red_intern = INTER_RUBBER_PERCENT;
 1857              	 .loc 3 441 27
 1858 02a8 084B     	 ldr r3,.L99+4
 1859 02aa 1422     	 movs r2,#20
 1860 02ac DA60     	 str r2,[r3,#12]
 442:../MainAlg/door_periph.c **** 				led_rubber.green_intern = INTER_RUBBER_PERCENT;
 1861              	 .loc 3 442 29
 1862 02ae 074B     	 ldr r3,.L99+4
 1863 02b0 1422     	 movs r2,#20
 1864 02b2 1A61     	 str r2,[r3,#16]
 443:../MainAlg/door_periph.c **** 				led_rubber.blue_intern = 0;
 1865              	 .loc 3 443 28
 1866 02b4 054B     	 ldr r3,.L99+4
 1867 02b6 0022     	 movs r2,#0
 1868 02b8 5A61     	 str r2,[r3,#20]
 1869              	.L83:
 444:../MainAlg/door_periph.c **** 
 445:../MainAlg/door_periph.c **** 			}
 446:../MainAlg/door_periph.c **** 
 447:../MainAlg/door_periph.c **** 		}
 448:../MainAlg/door_periph.c **** 	} // end_of mode not changed
 449:../MainAlg/door_periph.c **** 
 450:../MainAlg/door_periph.c **** 	if (mode != previous_mode)
 1870              	 .loc 3 450 11
 1871 02ba 054B     	 ldr r3,.L99+8
 1872 02bc 1B68     	 ldr r3,[r3]
 1873              	 .loc 3 450 5
 1874 02be BA68     	 ldr r2,[r7,#8]
 1875 02c0 9A42     	 cmp r2,r3
 1876 02c2 0AD0     	 beq .L96
 1877 02c4 06E0     	 b .L100
 1878              	.L101:
 1879 02c6 00BF     	 .align 2
 1880              	.L99:
 1881 02c8 00000000 	 .word timer.1
 1882 02cc 00000000 	 .word led_rubber
 1883 02d0 00000000 	 .word previous_mode.2
 1884              	.L100:
 451:../MainAlg/door_periph.c **** 	{
 452:../MainAlg/door_periph.c **** 		timer = 0;
 1885              	 .loc 3 452 9
 1886 02d4 054B     	 ldr r3,.L102
 1887 02d6 0022     	 movs r2,#0
 1888 02d8 1A60     	 str r2,[r3]
 1889              	.L96:
 453:../MainAlg/door_periph.c **** 	}
 454:../MainAlg/door_periph.c **** 	previous_mode = mode;
 1890              	 .loc 3 454 16
 1891 02da 054A     	 ldr r2,.L102+4
 1892 02dc BB68     	 ldr r3,[r7,#8]
 1893 02de 1360     	 str r3,[r2]
 455:../MainAlg/door_periph.c **** 
 456:../MainAlg/door_periph.c **** }
 1894              	 .loc 3 456 1
 1895 02e0 00BF     	 nop
 1896 02e2 1437     	 adds r7,r7,#20
 1897              	.LCFI84:
 1898              	 .cfi_def_cfa_offset 4
 1899 02e4 BD46     	 mov sp,r7
 1900              	.LCFI85:
 1901              	 .cfi_def_cfa_register 13
 1902              	 
 1903 02e6 5DF8047B 	 ldr r7,[sp],#4
 1904              	.LCFI86:
 1905              	 .cfi_restore 7
 1906              	 .cfi_def_cfa_offset 0
 1907 02ea 7047     	 bx lr
 1908              	.L103:
 1909              	 .align 2
 1910              	.L102:
 1911 02ec 00000000 	 .word timer.1
 1912 02f0 00000000 	 .word previous_mode.2
 1913              	 .cfi_endproc
 1914              	.LFE567:
 1916              	 .section .text.LedPwmTimerProc,"ax",%progbits
 1917              	 .align 1
 1918              	 .global LedPwmTimerProc
 1919              	 .syntax unified
 1920              	 .thumb
 1921              	 .thumb_func
 1922              	 .fpu fpv4-sp-d16
 1924              	LedPwmTimerProc:
 1925              	.LFB568:
 457:../MainAlg/door_periph.c **** void LedPwmTimerProc(void *args)
 458:../MainAlg/door_periph.c **** {
 1926              	 .loc 3 458 1
 1927              	 .cfi_startproc
 1928              	 
 1929              	 
 1930 0000 80B5     	 push {r7,lr}
 1931              	.LCFI87:
 1932              	 .cfi_def_cfa_offset 8
 1933              	 .cfi_offset 7,-8
 1934              	 .cfi_offset 14,-4
 1935 0002 82B0     	 sub sp,sp,#8
 1936              	.LCFI88:
 1937              	 .cfi_def_cfa_offset 16
 1938 0004 00AF     	 add r7,sp,#0
 1939              	.LCFI89:
 1940              	 .cfi_def_cfa_register 7
 1941 0006 7860     	 str r0,[r7,#4]
 459:../MainAlg/door_periph.c **** 	static int32_t timer = 0;
 460:../MainAlg/door_periph.c **** 
 461:../MainAlg/door_periph.c **** 	if (timer >= 100)
 1942              	 .loc 3 461 12
 1943 0008 394B     	 ldr r3,.L118
 1944 000a 1B68     	 ldr r3,[r3]
 1945              	 .loc 3 461 5
 1946 000c 632B     	 cmp r3,#99
 1947 000e 02DD     	 ble .L105
 462:../MainAlg/door_periph.c **** 	{
 463:../MainAlg/door_periph.c **** 		timer = 0;
 1948              	 .loc 3 463 9
 1949 0010 374B     	 ldr r3,.L118
 1950 0012 0022     	 movs r2,#0
 1951 0014 1A60     	 str r2,[r3]
 1952              	.L105:
 464:../MainAlg/door_periph.c **** 	}
 465:../MainAlg/door_periph.c **** 	if(!timer)
 1953              	 .loc 3 465 5
 1954 0016 364B     	 ldr r3,.L118
 1955 0018 1B68     	 ldr r3,[r3]
 1956              	 .loc 3 465 4
 1957 001a 002B     	 cmp r3,#0
 1958 001c 29D1     	 bne .L106
 466:../MainAlg/door_periph.c **** 	{
 467:../MainAlg/door_periph.c **** 		if(led_rubber.red_outern)
 1959              	 .loc 3 467 16
 1960 001e 354B     	 ldr r3,.L118+4
 1961 0020 1B68     	 ldr r3,[r3]
 1962              	 .loc 3 467 5
 1963 0022 002B     	 cmp r3,#0
 1964 0024 02D0     	 beq .L107
 468:../MainAlg/door_periph.c **** 		{
 469:../MainAlg/door_periph.c **** 			DIGITAL_IO_SetOutputHigh(&LED_SW_1);
 1965              	 .loc 3 469 4
 1966 0026 3448     	 ldr r0,.L118+8
 1967 0028 FFF7FEFF 	 bl DIGITAL_IO_SetOutputHigh
 1968              	.L107:
 470:../MainAlg/door_periph.c **** 		}
 471:../MainAlg/door_periph.c **** 		if(led_rubber.green_outern)
 1969              	 .loc 3 471 16
 1970 002c 314B     	 ldr r3,.L118+4
 1971 002e 5B68     	 ldr r3,[r3,#4]
 1972              	 .loc 3 471 5
 1973 0030 002B     	 cmp r3,#0
 1974 0032 02D0     	 beq .L108
 472:../MainAlg/door_periph.c **** 		{
 473:../MainAlg/door_periph.c **** 			DIGITAL_IO_SetOutputHigh(&LED_SW_2);
 1975              	 .loc 3 473 4
 1976 0034 3148     	 ldr r0,.L118+12
 1977 0036 FFF7FEFF 	 bl DIGITAL_IO_SetOutputHigh
 1978              	.L108:
 474:../MainAlg/door_periph.c **** 		}
 475:../MainAlg/door_periph.c **** 		if(led_rubber.blue_outern)
 1979              	 .loc 3 475 16
 1980 003a 2E4B     	 ldr r3,.L118+4
 1981 003c 9B68     	 ldr r3,[r3,#8]
 1982              	 .loc 3 475 5
 1983 003e 002B     	 cmp r3,#0
 1984 0040 02D0     	 beq .L109
 476:../MainAlg/door_periph.c **** 		{
 477:../MainAlg/door_periph.c **** 			DIGITAL_IO_SetOutputHigh(&LED_SW_3);
 1985              	 .loc 3 477 4
 1986 0042 2F48     	 ldr r0,.L118+16
 1987 0044 FFF7FEFF 	 bl DIGITAL_IO_SetOutputHigh
 1988              	.L109:
 478:../MainAlg/door_periph.c **** 		}
 479:../MainAlg/door_periph.c **** 		if(led_rubber.red_intern)
 1989              	 .loc 3 479 16
 1990 0048 2A4B     	 ldr r3,.L118+4
 1991 004a DB68     	 ldr r3,[r3,#12]
 1992              	 .loc 3 479 5
 1993 004c 002B     	 cmp r3,#0
 1994 004e 02D0     	 beq .L110
 480:../MainAlg/door_periph.c **** 		{
 481:../MainAlg/door_periph.c **** 			DIGITAL_IO_SetOutputHigh(&LED_SW_4);
 1995              	 .loc 3 481 4
 1996 0050 2C48     	 ldr r0,.L118+20
 1997 0052 FFF7FEFF 	 bl DIGITAL_IO_SetOutputHigh
 1998              	.L110:
 482:../MainAlg/door_periph.c **** 		}
 483:../MainAlg/door_periph.c **** 		if(led_rubber.green_intern)
 1999              	 .loc 3 483 16
 2000 0056 274B     	 ldr r3,.L118+4
 2001 0058 1B69     	 ldr r3,[r3,#16]
 2002              	 .loc 3 483 5
 2003 005a 002B     	 cmp r3,#0
 2004 005c 02D0     	 beq .L111
 484:../MainAlg/door_periph.c **** 		{
 485:../MainAlg/door_periph.c **** 			DIGITAL_IO_SetOutputHigh(&LED_SW_5);
 2005              	 .loc 3 485 4
 2006 005e 2A48     	 ldr r0,.L118+24
 2007 0060 FFF7FEFF 	 bl DIGITAL_IO_SetOutputHigh
 2008              	.L111:
 486:../MainAlg/door_periph.c **** 		}
 487:../MainAlg/door_periph.c **** 		if(led_rubber.blue_intern)
 2009              	 .loc 3 487 16
 2010 0064 234B     	 ldr r3,.L118+4
 2011 0066 5B69     	 ldr r3,[r3,#20]
 2012              	 .loc 3 487 5
 2013 0068 002B     	 cmp r3,#0
 2014 006a 02D0     	 beq .L106
 488:../MainAlg/door_periph.c **** 		{
 489:../MainAlg/door_periph.c **** 			DIGITAL_IO_SetOutputHigh(&LED_SW_6);
 2015              	 .loc 3 489 4
 2016 006c 2748     	 ldr r0,.L118+28
 2017 006e FFF7FEFF 	 bl DIGITAL_IO_SetOutputHigh
 2018              	.L106:
 490:../MainAlg/door_periph.c **** 		}
 491:../MainAlg/door_periph.c **** 	}
 492:../MainAlg/door_periph.c **** 
 493:../MainAlg/door_periph.c **** 
 494:../MainAlg/door_periph.c **** 	if ((led_rubber.red_outern <= timer))
 2019              	 .loc 3 494 17
 2020 0072 204B     	 ldr r3,.L118+4
 2021 0074 1A68     	 ldr r2,[r3]
 2022              	 .loc 3 494 29
 2023 0076 1E4B     	 ldr r3,.L118
 2024 0078 1B68     	 ldr r3,[r3]
 2025              	 .loc 3 494 5
 2026 007a 9A42     	 cmp r2,r3
 2027 007c 02DC     	 bgt .L112
 495:../MainAlg/door_periph.c **** 	{
 496:../MainAlg/door_periph.c **** 		DIGITAL_IO_SetOutputLow(&LED_SW_1);
 2028              	 .loc 3 496 3
 2029 007e 1E48     	 ldr r0,.L118+8
 2030 0080 FFF7FEFF 	 bl DIGITAL_IO_SetOutputLow
 2031              	.L112:
 497:../MainAlg/door_periph.c **** 	}
 498:../MainAlg/door_periph.c **** 	if ((led_rubber.green_outern <= timer))
 2032              	 .loc 3 498 17
 2033 0084 1B4B     	 ldr r3,.L118+4
 2034 0086 5A68     	 ldr r2,[r3,#4]
 2035              	 .loc 3 498 31
 2036 0088 194B     	 ldr r3,.L118
 2037 008a 1B68     	 ldr r3,[r3]
 2038              	 .loc 3 498 5
 2039 008c 9A42     	 cmp r2,r3
 2040 008e 02DC     	 bgt .L113
 499:../MainAlg/door_periph.c **** 	{
 500:../MainAlg/door_periph.c **** 		DIGITAL_IO_SetOutputLow(&LED_SW_2);
 2041              	 .loc 3 500 3
 2042 0090 1A48     	 ldr r0,.L118+12
 2043 0092 FFF7FEFF 	 bl DIGITAL_IO_SetOutputLow
 2044              	.L113:
 501:../MainAlg/door_periph.c **** 	}
 502:../MainAlg/door_periph.c **** 	if ((led_rubber.blue_outern <= timer))
 2045              	 .loc 3 502 17
 2046 0096 174B     	 ldr r3,.L118+4
 2047 0098 9A68     	 ldr r2,[r3,#8]
 2048              	 .loc 3 502 30
 2049 009a 154B     	 ldr r3,.L118
 2050 009c 1B68     	 ldr r3,[r3]
 2051              	 .loc 3 502 5
 2052 009e 9A42     	 cmp r2,r3
 2053 00a0 02DC     	 bgt .L114
 503:../MainAlg/door_periph.c **** 	{
 504:../MainAlg/door_periph.c **** 		DIGITAL_IO_SetOutputLow(&LED_SW_3);
 2054              	 .loc 3 504 3
 2055 00a2 1748     	 ldr r0,.L118+16
 2056 00a4 FFF7FEFF 	 bl DIGITAL_IO_SetOutputLow
 2057              	.L114:
 505:../MainAlg/door_periph.c **** 	}
 506:../MainAlg/door_periph.c **** 	if ((led_rubber.red_intern <= timer))
 2058              	 .loc 3 506 17
 2059 00a8 124B     	 ldr r3,.L118+4
 2060 00aa DA68     	 ldr r2,[r3,#12]
 2061              	 .loc 3 506 29
 2062 00ac 104B     	 ldr r3,.L118
 2063 00ae 1B68     	 ldr r3,[r3]
 2064              	 .loc 3 506 5
 2065 00b0 9A42     	 cmp r2,r3
 2066 00b2 02DC     	 bgt .L115
 507:../MainAlg/door_periph.c **** 	{
 508:../MainAlg/door_periph.c **** 		DIGITAL_IO_SetOutputLow(&LED_SW_4);
 2067              	 .loc 3 508 3
 2068 00b4 1348     	 ldr r0,.L118+20
 2069 00b6 FFF7FEFF 	 bl DIGITAL_IO_SetOutputLow
 2070              	.L115:
 509:../MainAlg/door_periph.c **** 	}
 510:../MainAlg/door_periph.c **** 	if ((led_rubber.green_intern <= timer))
 2071              	 .loc 3 510 17
 2072 00ba 0E4B     	 ldr r3,.L118+4
 2073 00bc 1A69     	 ldr r2,[r3,#16]
 2074              	 .loc 3 510 31
 2075 00be 0C4B     	 ldr r3,.L118
 2076 00c0 1B68     	 ldr r3,[r3]
 2077              	 .loc 3 510 5
 2078 00c2 9A42     	 cmp r2,r3
 2079 00c4 02DC     	 bgt .L116
 511:../MainAlg/door_periph.c **** 	{
 512:../MainAlg/door_periph.c **** 		DIGITAL_IO_SetOutputLow(&LED_SW_5);
 2080              	 .loc 3 512 3
 2081 00c6 1048     	 ldr r0,.L118+24
 2082 00c8 FFF7FEFF 	 bl DIGITAL_IO_SetOutputLow
 2083              	.L116:
 513:../MainAlg/door_periph.c **** 	}
 514:../MainAlg/door_periph.c **** 	if ((led_rubber.blue_intern <= timer))
 2084              	 .loc 3 514 17
 2085 00cc 094B     	 ldr r3,.L118+4
 2086 00ce 5A69     	 ldr r2,[r3,#20]
 2087              	 .loc 3 514 30
 2088 00d0 074B     	 ldr r3,.L118
 2089 00d2 1B68     	 ldr r3,[r3]
 2090              	 .loc 3 514 5
 2091 00d4 9A42     	 cmp r2,r3
 2092 00d6 02DC     	 bgt .L117
 515:../MainAlg/door_periph.c **** 	{
 516:../MainAlg/door_periph.c **** 		DIGITAL_IO_SetOutputLow(&LED_SW_6);
 2093              	 .loc 3 516 3
 2094 00d8 0C48     	 ldr r0,.L118+28
 2095 00da FFF7FEFF 	 bl DIGITAL_IO_SetOutputLow
 2096              	.L117:
 517:../MainAlg/door_periph.c **** 	}
 518:../MainAlg/door_periph.c **** 
 519:../MainAlg/door_periph.c **** 	timer++;
 2097              	 .loc 3 519 7
 2098 00de 044B     	 ldr r3,.L118
 2099 00e0 1B68     	 ldr r3,[r3]
 2100 00e2 0133     	 adds r3,r3,#1
 2101 00e4 024A     	 ldr r2,.L118
 2102 00e6 1360     	 str r3,[r2]
 520:../MainAlg/door_periph.c **** }
 2103              	 .loc 3 520 1
 2104 00e8 00BF     	 nop
 2105 00ea 0837     	 adds r7,r7,#8
 2106              	.LCFI90:
 2107              	 .cfi_def_cfa_offset 8
 2108 00ec BD46     	 mov sp,r7
 2109              	.LCFI91:
 2110              	 .cfi_def_cfa_register 13
 2111              	 
 2112 00ee 80BD     	 pop {r7,pc}
 2113              	.L119:
 2114              	 .align 2
 2115              	.L118:
 2116 00f0 00000000 	 .word timer.0
 2117 00f4 00000000 	 .word led_rubber
 2118 00f8 00000000 	 .word LED_SW_1
 2119 00fc 00000000 	 .word LED_SW_2
 2120 0100 00000000 	 .word LED_SW_3
 2121 0104 00000000 	 .word LED_SW_4
 2122 0108 00000000 	 .word LED_SW_5
 2123 010c 00000000 	 .word LED_SW_6
 2124              	 .cfi_endproc
 2125              	.LFE568:
 2127              	 .section .bss.previous_state.8,"aw",%nobits
 2128              	 .align 2
 2131              	previous_state.8:
 2132 0000 00000000 	 .space 4
 2133              	 .section .bss.cmd_prev.7,"aw",%nobits
 2134              	 .align 2
 2137              	cmd_prev.7:
 2138 0000 00000000 	 .space 4
 2139              	 .section .bss.count_en.6,"aw",%nobits
 2140              	 .align 2
 2143              	count_en.6:
 2144 0000 00000000 	 .space 4
 2145              	 .section .bss.timer.5,"aw",%nobits
 2146              	 .align 2
 2149              	timer.5:
 2150 0000 00000000 	 .space 4
 2151              	 .section .bss.previous_position.4,"aw",%nobits
 2152              	 .align 2
 2155              	previous_position.4:
 2156 0000 00000000 	 .space 4
 2157              	 .section .bss.timer.3,"aw",%nobits
 2158              	 .align 2
 2161              	timer.3:
 2162 0000 00000000 	 .space 4
 2163              	 .section .bss.previous_mode.2,"aw",%nobits
 2164              	 .align 2
 2167              	previous_mode.2:
 2168 0000 00000000 	 .space 4
 2169              	 .section .bss.timer.1,"aw",%nobits
 2170              	 .align 2
 2173              	timer.1:
 2174 0000 00000000 	 .space 4
 2175              	 .section .bss.timer.0,"aw",%nobits
 2176              	 .align 2
 2179              	timer.0:
 2180 0000 00000000 	 .space 4
 2181              	 .text
 2182              	.Letext0:
 2183              	 .file 4 "c:\\program files (x86)\\gnu arm embedded toolchain\\10 2020-q4-major\\arm-none-eabi\\include\\machine\\_default_types.h"
 2184              	 .file 5 "c:\\program files (x86)\\gnu arm embedded toolchain\\10 2020-q4-major\\arm-none-eabi\\include\\sys\\_stdint.h"
 2185              	 .file 6 "C:/Workspaces/DAVE-4.4.2-64Bit/_PKDS_TSTS06_STAND/Libraries/CMSIS/Infineon/XMC4500_series/Include/XMC4500.h"
 2186              	 .file 7 "C:/Workspaces/DAVE-4.4.2-64Bit/_PKDS_TSTS06_STAND/Libraries/XMCLib/inc/xmc4_gpio.h"
 2187              	 .file 8 "C:/Workspaces/DAVE-4.4.2-64Bit/_PKDS_TSTS06_STAND/Dave/Generated/DIGITAL_IO/digital_io_extern.h"
 2188              	 .file 9 "C:/Workspaces/DAVE-4.4.2-64Bit/_PKDS_TSTS06_STAND/Libraries/XMCLib/inc/xmc4_scu.h"
 2189              	 .file 10 "C:/Workspaces/DAVE-4.4.2-64Bit/_PKDS_TSTS06_STAND/Dave/Generated/SYSTIMER/systimer.h"
 2190              	 .file 11 "C:/Workspaces/DAVE-4.4.2-64Bit/_PKDS_TSTS06_STAND/Libraries/XMCLib/inc/xmc_ccu4.h"
 2191              	 .file 12 "C:/Workspaces/DAVE-4.4.2-64Bit/_PKDS_TSTS06_STAND/Dave/Generated/GLOBAL_CCU4/global_ccu4.h"
 2192              	 .file 13 "C:/Workspaces/DAVE-4.4.2-64Bit/_PKDS_TSTS06_STAND/Dave/Generated/PWM_CCU4/pwm_ccu4.h"
 2193              	 .file 14 "C:/Workspaces/DAVE-4.4.2-64Bit/_PKDS_TSTS06_STAND/Dave/Generated/PWM_CCU4/pwm_ccu4_extern.h"
 2194              	 .file 15 "C:/Workspaces/DAVE-4.4.2-64Bit/_PKDS_TSTS06_STAND/Dave/Generated/BUS_IO/bus_io.h"
 2195              	 .file 16 "C:/Workspaces/DAVE-4.4.2-64Bit/_PKDS_TSTS06_STAND/Dave/Generated/BUS_IO/bus_io_extern.h"
 2196              	 .file 17 "C:/Workspaces/DAVE-4.4.2-64Bit/_PKDS_TSTS06_STAND/Libraries/XMCLib/inc/xmc_vadc.h"
 2197              	 .file 18 "C:/Workspaces/DAVE-4.4.2-64Bit/_PKDS_TSTS06_STAND/Dave/Generated/GLOBAL_ADC/global_adc.h"
 2198              	 .file 19 "C:/Workspaces/DAVE-4.4.2-64Bit/_PKDS_TSTS06_STAND/Dave/Generated/ANALOG_IO/analog_io.h"
 2199              	 .file 20 "C:/Workspaces/DAVE-4.4.2-64Bit/_PKDS_TSTS06_STAND/Dave/Generated/ADC_MEASUREMENT/adc_measurement.h"
 2200              	 .file 21 "C:/Workspaces/DAVE-4.4.2-64Bit/_PKDS_TSTS06_STAND/Dave/Generated/ADC_MEASUREMENT/adc_measurement_extern.h"
 2201              	 .file 22 "C:/Workspaces/DAVE-4.4.2-64Bit/_PKDS_TSTS06_STAND/MainAlg/door_periph.h"
 2202              	 .file 23 "C:/Workspaces/DAVE-4.4.2-64Bit/_PKDS_TSTS06_STAND/MainAlg/presets.h"